Archive member included because of file (symbol)

libbb/lib.a(appletlib.o)      /opt/Cortina/toolchain/toolchain-arm_gcc-4.5.1+l_uClibc-0.9.32_eabi/bin/../lib/gcc/arm-openwrt-linux-uclibcgnueabi/4.5.2/../../../../arm-openwrt-linux-uclibcgnueabi/lib/crt1.o (main)
libbb/lib.a(default_error_retval.o)
                              libbb/lib.a(appletlib.o) (xfunc_error_retval)
libbb/lib.a(get_last_path_component.o)
                              libbb/lib.a(appletlib.o) (bb_basename)
libbb/lib.a(last_char_is.o)   libbb/lib.a(get_last_path_component.o) (last_char_is)
libbb/lib.a(messages.o)       libbb/lib.a(appletlib.o) (bb_banner)
libbb/lib.a(ptr_to_globals.o)
                              libbb/lib.a(appletlib.o) (bb_errno)
libbb/lib.a(verror_msg.o)     libbb/lib.a(appletlib.o) (bb_error_msg_and_die)
libbb/lib.a(xfunc_die.o)      libbb/lib.a(appletlib.o) (xfunc_die)
libbb/lib.a(xfuncs.o)         libbb/lib.a(appletlib.o) (full_write2_str)
libbb/lib.a(xfuncs_printf.o)  libbb/lib.a(appletlib.o) (malloc_or_warn)
libbb/lib.a(copyfd.o)         libbb/lib.a(xfuncs_printf.o) (bb_copyfd_eof)
libbb/lib.a(full_write.o)     libbb/lib.a(verror_msg.o) (full_write)
libbb/lib.a(perror_msg.o)     libbb/lib.a(xfuncs_printf.o) (bb_perror_msg)
libbb/lib.a(read.o)           libbb/lib.a(copyfd.o) (safe_read)
libbb/lib.a(safe_write.o)     libbb/lib.a(full_write.o) (safe_write)
libbb/lib.a(time.o)           libbb/lib.a(xfuncs_printf.o) (monotonic_us)
libbb/lib.a(bb_strtonum.o)    libbb/lib.a(time.o) (bb_strtol)
loginutils/lib.a(addgroup.o)  libbb/lib.a(appletlib.o) (addgroup_main)
loginutils/lib.a(adduser.o)   libbb/lib.a(appletlib.o) (adduser_main)
loginutils/lib.a(deluser.o)   libbb/lib.a(appletlib.o) (deluser_main)
loginutils/lib.a(getty.o)     libbb/lib.a(appletlib.o) (getty_main)
loginutils/lib.a(login.o)     libbb/lib.a(appletlib.o) (login_main)
loginutils/lib.a(passwd.o)    libbb/lib.a(appletlib.o) (passwd_main)
miscutils/lib.a(crond.o)      libbb/lib.a(appletlib.o) (crond_main)
miscutils/lib.a(crontab.o)    libbb/lib.a(appletlib.o) (crontab_main)
miscutils/lib.a(hdparm.o)     libbb/lib.a(appletlib.o) (hdparm_main)
miscutils/lib.a(less.o)       libbb/lib.a(appletlib.o) (less_main)
miscutils/lib.a(lock.o)       libbb/lib.a(appletlib.o) (lock_main)
miscutils/lib.a(nandwrite.o)  libbb/lib.a(appletlib.o) (nandwrite_main)
miscutils/lib.a(setserial.o)  libbb/lib.a(appletlib.o) (setserial_main)
miscutils/lib.a(strings.o)    libbb/lib.a(appletlib.o) (strings_main)
miscutils/lib.a(taskset.o)    libbb/lib.a(appletlib.o) (taskset_main)
miscutils/lib.a(time.o)       libbb/lib.a(appletlib.o) (time_main)
miscutils/lib.a(ubi_tools.o)  libbb/lib.a(appletlib.o) (ubi_tools_main)
miscutils/lib.a(watchdog.o)   libbb/lib.a(appletlib.o) (watchdog_main)
modutils/lib.a(depmod.o)      libbb/lib.a(appletlib.o) (depmod_main)
modutils/lib.a(insmod.o)      libbb/lib.a(appletlib.o) (insmod_main)
modutils/lib.a(lsmod.o)       libbb/lib.a(appletlib.o) (lsmod_main)
modutils/lib.a(modprobe.o)    libbb/lib.a(appletlib.o) (modprobe_main)
modutils/lib.a(modutils.o)    modutils/lib.a(modprobe.o) (replace)
modutils/lib.a(rmmod.o)       libbb/lib.a(appletlib.o) (rmmod_main)
networking/lib.a(arp.o)       libbb/lib.a(appletlib.o) (arp_main)
networking/lib.a(arping.o)    libbb/lib.a(appletlib.o) (arping_main)
networking/lib.a(ftpd.o)      libbb/lib.a(appletlib.o) (ftpd_main)
networking/lib.a(ftpgetput.o)
                              libbb/lib.a(appletlib.o) (ftpgetput_main)
networking/lib.a(hostname.o)  libbb/lib.a(appletlib.o) (hostname_main)
networking/lib.a(httpd.o)     libbb/lib.a(appletlib.o) (httpd_main)
networking/lib.a(ifconfig.o)  libbb/lib.a(appletlib.o) (ifconfig_main)
networking/lib.a(ifupdown.o)  libbb/lib.a(appletlib.o) (ifupdown_main)
networking/lib.a(inetd.o)     libbb/lib.a(appletlib.o) (inetd_main)
networking/lib.a(interface.o)
                              networking/lib.a(arp.o) (get_aftype)
networking/lib.a(ip.o)        libbb/lib.a(appletlib.o) (ipaddr_main)
networking/lib.a(nbd-client.o)
                              libbb/lib.a(appletlib.o) (nbdclient_main)
networking/lib.a(nc.o)        libbb/lib.a(appletlib.o) (nc_main)
networking/lib.a(netstat.o)   libbb/lib.a(appletlib.o) (netstat_main)
networking/lib.a(nslookup.o)  libbb/lib.a(appletlib.o) (nslookup_main)
networking/lib.a(ping.o)      libbb/lib.a(appletlib.o) (ping_main)
networking/lib.a(route.o)     networking/lib.a(netstat.o) (bb_displayroutes)
networking/lib.a(tcpudp.o)    libbb/lib.a(appletlib.o) (tcpudpsvd_main)
networking/lib.a(tcpudp_perhost.o)
                              networking/lib.a(tcpudp.o) (ipsvd_perhost_init)
networking/lib.a(telnet.o)    libbb/lib.a(appletlib.o) (telnet_main)
networking/lib.a(telnetd.o)   libbb/lib.a(appletlib.o) (telnetd_main)
networking/lib.a(tftp.o)      libbb/lib.a(appletlib.o) (tftp_main)
networking/lib.a(traceroute.o)
                              libbb/lib.a(appletlib.o) (traceroute_main)
networking/lib.a(vconfig.o)   libbb/lib.a(appletlib.o) (vconfig_main)
networking/lib.a(wget.o)      libbb/lib.a(appletlib.o) (wget_main)
networking/lib.a(whois.o)     libbb/lib.a(appletlib.o) (whois_main)
networking/libiproute/lib.a(ip_parse_common_args.o)
                              networking/lib.a(ip.o) (ip_parse_common_args)
networking/libiproute/lib.a(ipaddress.o)
                              networking/lib.a(ip.o) (do_ipaddr)
networking/libiproute/lib.a(iplink.o)
                              networking/lib.a(ip.o) (do_iplink)
networking/libiproute/lib.a(iproute.o)
                              networking/lib.a(ip.o) (do_iproute)
networking/libiproute/lib.a(iprule.o)
                              networking/lib.a(ip.o) (do_iprule)
networking/libiproute/lib.a(iptunnel.o)
                              networking/lib.a(ip.o) (do_iptunnel)
networking/libiproute/lib.a(libnetlink.o)
                              networking/libiproute/lib.a(ipaddress.o) (xrtnl_open)
networking/libiproute/lib.a(ll_addr.o)
                              networking/libiproute/lib.a(ipaddress.o) (ll_addr_n2a)
networking/libiproute/lib.a(ll_map.o)
                              networking/libiproute/lib.a(ipaddress.o) (ll_remember_index)
networking/libiproute/lib.a(ll_types.o)
                              networking/libiproute/lib.a(ipaddress.o) (ll_type_n2a)
networking/libiproute/lib.a(rt_names.o)
                              networking/libiproute/lib.a(iproute.o) (rtnl_rtprot_a2n)
networking/libiproute/lib.a(rtm_map.o)
                              networking/libiproute/lib.a(iproute.o) (rtnl_rtntype_n2a)
networking/libiproute/lib.a(utils.o)
                              networking/libiproute/lib.a(ll_addr.o) (get_addr_1)
networking/udhcp/lib.a(dhcpc.o)
                              libbb/lib.a(appletlib.o) (udhcpc_main)
networking/udhcp/lib.a(dhcpd.o)
                              libbb/lib.a(appletlib.o) (udhcpd_main)
networking/udhcp/lib.a(dhcprelay.o)
                              libbb/lib.a(appletlib.o) (dhcprelay_main)
networking/udhcp/lib.a(domain_codec.o)
                              networking/udhcp/lib.a(dhcpc.o) (dname_dec)
networking/udhcp/lib.a(dumpleases.o)
                              libbb/lib.a(appletlib.o) (dumpleases_main)
networking/udhcp/lib.a(files.o)
                              networking/udhcp/lib.a(dhcpd.o) (read_config)
networking/udhcp/lib.a(leases.o)
                              networking/udhcp/lib.a(dhcpd.o) (add_lease)
networking/udhcp/lib.a(packet.o)
                              networking/udhcp/lib.a(dhcpc.o) (udhcp_init_header)
networking/udhcp/lib.a(signalpipe.o)
                              networking/udhcp/lib.a(dhcpc.o) (udhcp_sp_setup)
networking/udhcp/lib.a(socket.o)
                              networking/udhcp/lib.a(dhcpc.o) (udhcp_read_interface)
networking/udhcp/lib.a(static_leases.o)
                              networking/udhcp/lib.a(files.o) (add_static_lease)
networking/udhcp/lib.a(arpping.o)
                              networking/udhcp/lib.a(leases.o) (arpping)
networking/udhcp/lib.a(common.o)
                              networking/udhcp/lib.a(dhcpc.o) (udhcp_option_idx)
procps/lib.a(free.o)          libbb/lib.a(appletlib.o) (free_main)
procps/lib.a(iostat.o)        libbb/lib.a(appletlib.o) (iostat_main)
procps/lib.a(kill.o)          libbb/lib.a(appletlib.o) (kill_main)
procps/lib.a(lsof.o)          libbb/lib.a(appletlib.o) (lsof_main)
procps/lib.a(mpstat.o)        libbb/lib.a(appletlib.o) (mpstat_main)
procps/lib.a(pgrep.o)         libbb/lib.a(appletlib.o) (pgrep_main)
procps/lib.a(pidof.o)         libbb/lib.a(appletlib.o) (pidof_main)
procps/lib.a(pmap.o)          libbb/lib.a(appletlib.o) (pmap_main)
procps/lib.a(powertop.o)      libbb/lib.a(appletlib.o) (powertop_main)
procps/lib.a(ps.o)            libbb/lib.a(appletlib.o) (ps_main)
procps/lib.a(pstree.o)        libbb/lib.a(appletlib.o) (pstree_main)
procps/lib.a(pwdx.o)          libbb/lib.a(appletlib.o) (pwdx_main)
procps/lib.a(renice.o)        libbb/lib.a(appletlib.o) (renice_main)
procps/lib.a(sysctl.o)        libbb/lib.a(appletlib.o) (sysctl_main)
procps/lib.a(top.o)           libbb/lib.a(appletlib.o) (top_main)
procps/lib.a(uptime.o)        libbb/lib.a(appletlib.o) (uptime_main)
runit/lib.a(svlogd.o)         libbb/lib.a(appletlib.o) (svlogd_main)
shell/lib.a(ash.o)            libbb/lib.a(appletlib.o) (ash_main)
shell/lib.a(ash_ptr_hack.o)   shell/lib.a(ash.o) (ash_ptr_to_globals_misc)
shell/lib.a(math.o)           shell/lib.a(ash.o) (arith)
shell/lib.a(shell_common.o)   shell/lib.a(ash.o) (shell_builtin_read)
sysklogd/lib.a(klogd.o)       libbb/lib.a(appletlib.o) (klogd_main)
sysklogd/lib.a(logread.o)     libbb/lib.a(appletlib.o) (logread_main)
sysklogd/lib.a(syslogd_and_logger.o)
                              libbb/lib.a(appletlib.o) (syslogd_main)
util-linux/lib.a(blkid.o)     libbb/lib.a(appletlib.o) (blkid_main)
util-linux/lib.a(blockdev.o)  libbb/lib.a(appletlib.o) (blockdev_main)
util-linux/lib.a(dmesg.o)     libbb/lib.a(appletlib.o) (dmesg_main)
util-linux/lib.a(fdisk.o)     libbb/lib.a(appletlib.o) (fdisk_main)
util-linux/lib.a(fstrim.o)    libbb/lib.a(appletlib.o) (fstrim_main)
util-linux/lib.a(getopt.o)    libbb/lib.a(appletlib.o) (getopt_main)
util-linux/lib.a(hexdump.o)   libbb/lib.a(appletlib.o) (hexdump_main)
util-linux/lib.a(hwclock.o)   libbb/lib.a(appletlib.o) (hwclock_main)
util-linux/lib.a(lspci.o)     libbb/lib.a(appletlib.o) (lspci_main)
util-linux/lib.a(lsusb.o)     libbb/lib.a(appletlib.o) (lsusb_main)
util-linux/lib.a(mkfs_ext2.o)
                              libbb/lib.a(appletlib.o) (mkfs_ext2_main)
util-linux/lib.a(mkfs_minix.o)
                              libbb/lib.a(appletlib.o) (mkfs_minix_main)
util-linux/lib.a(mkfs_reiser.o)
                              libbb/lib.a(appletlib.o) (mkfs_reiser_main)
util-linux/lib.a(mkfs_vfat.o)
                              libbb/lib.a(appletlib.o) (mkfs_vfat_main)
util-linux/lib.a(mkswap.o)    libbb/lib.a(appletlib.o) (mkswap_main)
util-linux/lib.a(more.o)      libbb/lib.a(appletlib.o) (more_main)
util-linux/lib.a(mount.o)     libbb/lib.a(appletlib.o) (mount_main)
util-linux/lib.a(pivot_root.o)
                              libbb/lib.a(appletlib.o) (pivot_root_main)
util-linux/lib.a(rdate.o)     libbb/lib.a(appletlib.o) (rdate_main)
util-linux/lib.a(swaponoff.o)
                              libbb/lib.a(appletlib.o) (swap_on_off_main)
util-linux/lib.a(switch_root.o)
                              libbb/lib.a(appletlib.o) (switch_root_main)
util-linux/lib.a(umount.o)    libbb/lib.a(appletlib.o) (umount_main)
util-linux/volume_id/lib.a(get_devname.o)
                              util-linux/lib.a(blkid.o) (display_uuid_cache)
util-linux/volume_id/lib.a(volume_id.o)
                              util-linux/volume_id/lib.a(get_devname.o) (volume_id_probe_all)
util-linux/volume_id/lib.a(xfs.o)
                              util-linux/volume_id/lib.a(volume_id.o) (volume_id_probe_xfs)
util-linux/volume_id/lib.a(btrfs.o)
                              util-linux/volume_id/lib.a(volume_id.o) (volume_id_probe_btrfs)
util-linux/volume_id/lib.a(exfat.o)
                              util-linux/volume_id/lib.a(volume_id.o) (volume_id_probe_exfat)
util-linux/volume_id/lib.a(ext.o)
                              util-linux/volume_id/lib.a(volume_id.o) (volume_id_probe_ext)
util-linux/volume_id/lib.a(f2fs.o)
                              util-linux/volume_id/lib.a(volume_id.o) (volume_id_probe_f2fs)
util-linux/volume_id/lib.a(fat.o)
                              util-linux/volume_id/lib.a(volume_id.o) (volume_id_probe_vfat)
util-linux/volume_id/lib.a(hfs.o)
                              util-linux/volume_id/lib.a(volume_id.o) (volume_id_probe_hfs_hfsplus)
util-linux/volume_id/lib.a(iso9660.o)
                              util-linux/volume_id/lib.a(volume_id.o) (volume_id_probe_iso9660)
util-linux/volume_id/lib.a(linux_raid.o)
                              util-linux/volume_id/lib.a(volume_id.o) (volume_id_probe_linux_raid)
util-linux/volume_id/lib.a(linux_swap.o)
                              util-linux/volume_id/lib.a(volume_id.o) (volume_id_probe_linux_swap)
util-linux/volume_id/lib.a(nilfs.o)
                              util-linux/volume_id/lib.a(volume_id.o) (volume_id_probe_nilfs)
util-linux/volume_id/lib.a(ntfs.o)
                              util-linux/volume_id/lib.a(volume_id.o) (volume_id_probe_ntfs)
util-linux/volume_id/lib.a(reiserfs.o)
                              util-linux/volume_id/lib.a(volume_id.o) (volume_id_probe_reiserfs)
util-linux/volume_id/lib.a(udf.o)
                              util-linux/volume_id/lib.a(volume_id.o) (volume_id_probe_udf)
util-linux/volume_id/lib.a(util.o)
                              util-linux/volume_id/lib.a(iso9660.o) (volume_id_set_unicode16)
archival/lib.a(bbunzip.o)     libbb/lib.a(appletlib.o) (gunzip_main)
archival/lib.a(gzip.o)        libbb/lib.a(appletlib.o) (gzip_main)
archival/lib.a(tar.o)         libbb/lib.a(appletlib.o) (tar_main)
archival/libarchive/lib.a(data_extract_all.o)
                              archival/lib.a(tar.o) (data_extract_all)
archival/libarchive/lib.a(data_extract_to_stdout.o)
                              archival/lib.a(tar.o) (data_extract_to_stdout)
archival/libarchive/lib.a(data_skip.o)
                              archival/libarchive/lib.a(data_extract_all.o) (data_skip)
archival/libarchive/lib.a(decompress_bunzip2.o)
                              libbb/lib.a(appletlib.o) (read_bunzip)
archival/libarchive/lib.a(decompress_gunzip.o)
                              archival/lib.a(bbunzip.o) (unpack_gz_stream)
archival/libarchive/lib.a(filter_accept_reject_list.o)
                              archival/lib.a(tar.o) (filter_accept_reject_list)
archival/libarchive/lib.a(find_list_entry.o)
                              archival/lib.a(tar.o) (find_list_entry)
archival/libarchive/lib.a(get_header_tar.o)
                              archival/lib.a(tar.o) (strip_unsafe_prefix)
archival/libarchive/lib.a(header_list.o)
                              archival/lib.a(tar.o) (header_list)
archival/libarchive/lib.a(header_verbose_list.o)
                              archival/lib.a(tar.o) (header_verbose_list)
archival/libarchive/lib.a(init_handle.o)
                              archival/lib.a(tar.o) (init_handle)
archival/libarchive/lib.a(open_transformer.o)
                              archival/lib.a(bbunzip.o) (init_transformer_aux_data)
archival/libarchive/lib.a(seek_by_jump.o)
                              archival/libarchive/lib.a(init_handle.o) (seek_by_jump)
archival/libarchive/lib.a(seek_by_read.o)
                              archival/lib.a(tar.o) (seek_by_read)
archival/libarchive/lib.a(data_align.o)
                              archival/libarchive/lib.a(get_header_tar.o) (data_align)
archival/libarchive/lib.a(filter_accept_all.o)
                              archival/libarchive/lib.a(init_handle.o) (filter_accept_all)
archival/libarchive/lib.a(header_skip.o)
                              archival/libarchive/lib.a(init_handle.o) (header_skip)
console-tools/lib.a(clear.o)  libbb/lib.a(appletlib.o) (clear_main)
console-tools/lib.a(reset.o)  libbb/lib.a(appletlib.o) (reset_main)
console-tools/lib.a(resize.o)
                              libbb/lib.a(appletlib.o) (resize_main)
coreutils/lib.a(basename.o)   libbb/lib.a(appletlib.o) (basename_main)
coreutils/lib.a(cat.o)        miscutils/lib.a(crontab.o) (bb_cat)
coreutils/lib.a(chgrp.o)      libbb/lib.a(appletlib.o) (chgrp_main)
coreutils/lib.a(chmod.o)      libbb/lib.a(appletlib.o) (chmod_main)
coreutils/lib.a(chown.o)      libbb/lib.a(appletlib.o) (chown_main)
coreutils/lib.a(chroot.o)     libbb/lib.a(appletlib.o) (chroot_main)
coreutils/lib.a(cp.o)         libbb/lib.a(appletlib.o) (cp_main)
coreutils/lib.a(cut.o)        libbb/lib.a(appletlib.o) (cut_main)
coreutils/lib.a(date.o)       libbb/lib.a(appletlib.o) (date_main)
coreutils/lib.a(dd.o)         libbb/lib.a(appletlib.o) (dd_main)
coreutils/lib.a(df.o)         libbb/lib.a(appletlib.o) (df_main)
coreutils/lib.a(dirname.o)    libbb/lib.a(appletlib.o) (dirname_main)
coreutils/lib.a(du.o)         libbb/lib.a(appletlib.o) (du_main)
coreutils/lib.a(echo.o)       libbb/lib.a(appletlib.o) (echo_main)
coreutils/lib.a(env.o)        libbb/lib.a(appletlib.o) (env_main)
coreutils/lib.a(expr.o)       libbb/lib.a(appletlib.o) (expr_main)
coreutils/lib.a(false.o)      libbb/lib.a(appletlib.o) (false_main)
coreutils/lib.a(head.o)       libbb/lib.a(appletlib.o) (head_main)
coreutils/lib.a(hostid.o)     libbb/lib.a(appletlib.o) (hostid_main)
coreutils/lib.a(id.o)         libbb/lib.a(appletlib.o) (id_main)
coreutils/lib.a(ln.o)         libbb/lib.a(appletlib.o) (ln_main)
coreutils/lib.a(ls.o)         libbb/lib.a(appletlib.o) (ls_main)
coreutils/lib.a(md5_sha1_sum.o)
                              libbb/lib.a(appletlib.o) (md5_sha1_sum_main)
coreutils/lib.a(mkdir.o)      libbb/lib.a(appletlib.o) (mkdir_main)
coreutils/lib.a(mkfifo.o)     libbb/lib.a(appletlib.o) (mkfifo_main)
coreutils/lib.a(mknod.o)      libbb/lib.a(appletlib.o) (mknod_main)
coreutils/lib.a(mv.o)         libbb/lib.a(appletlib.o) (mv_main)
coreutils/lib.a(nice.o)       libbb/lib.a(appletlib.o) (nice_main)
coreutils/lib.a(nohup.o)      libbb/lib.a(appletlib.o) (nohup_main)
coreutils/lib.a(printf.o)     libbb/lib.a(appletlib.o) (printf_main)
coreutils/lib.a(pwd.o)        libbb/lib.a(appletlib.o) (pwd_main)
coreutils/lib.a(readlink.o)   libbb/lib.a(appletlib.o) (readlink_main)
coreutils/lib.a(rm.o)         libbb/lib.a(appletlib.o) (rm_main)
coreutils/lib.a(rmdir.o)      libbb/lib.a(appletlib.o) (rmdir_main)
coreutils/lib.a(seq.o)        libbb/lib.a(appletlib.o) (seq_main)
coreutils/lib.a(sleep.o)      libbb/lib.a(appletlib.o) (sleep_main)
coreutils/lib.a(sort.o)       libbb/lib.a(appletlib.o) (sort_main)
coreutils/lib.a(stty.o)       libbb/lib.a(appletlib.o) (stty_main)
coreutils/lib.a(sync.o)       libbb/lib.a(appletlib.o) (sync_main)
coreutils/lib.a(tail.o)       libbb/lib.a(appletlib.o) (tail_main)
coreutils/lib.a(tee.o)        libbb/lib.a(appletlib.o) (tee_main)
coreutils/lib.a(test.o)       libbb/lib.a(appletlib.o) (test_main)
coreutils/lib.a(test_ptr_hack.o)
                              coreutils/lib.a(test.o) (test_ptr_to_statics)
coreutils/lib.a(touch.o)      libbb/lib.a(appletlib.o) (touch_main)
coreutils/lib.a(tr.o)         libbb/lib.a(appletlib.o) (tr_main)
coreutils/lib.a(true.o)       libbb/lib.a(appletlib.o) (true_main)
coreutils/lib.a(tty.o)        libbb/lib.a(appletlib.o) (tty_main)
coreutils/lib.a(uname.o)      libbb/lib.a(appletlib.o) (uname_main)
coreutils/lib.a(uniq.o)       libbb/lib.a(appletlib.o) (uniq_main)
coreutils/lib.a(usleep.o)     libbb/lib.a(appletlib.o) (usleep_main)
coreutils/lib.a(uudecode.o)   libbb/lib.a(appletlib.o) (base64_main)
coreutils/lib.a(wc.o)         libbb/lib.a(appletlib.o) (wc_main)
coreutils/lib.a(yes.o)        libbb/lib.a(appletlib.o) (yes_main)
coreutils/libcoreutils/lib.a(cp_mv_stat.o)
                              coreutils/lib.a(cp.o) (cp_mv_stat2)
coreutils/libcoreutils/lib.a(getopt_mk_fifo_nod.o)
                              coreutils/lib.a(mkfifo.o) (getopt_mk_fifo_nod)
debianutils/lib.a(mktemp.o)   libbb/lib.a(appletlib.o) (mktemp_main)
debianutils/lib.a(run_parts.o)
                              libbb/lib.a(appletlib.o) (run_parts_main)
debianutils/lib.a(start_stop_daemon.o)
                              libbb/lib.a(appletlib.o) (start_stop_daemon_main)
debianutils/lib.a(which.o)    libbb/lib.a(appletlib.o) (which_main)
editors/lib.a(awk.o)          libbb/lib.a(appletlib.o) (awk_main)
editors/lib.a(cmp.o)          libbb/lib.a(appletlib.o) (cmp_main)
editors/lib.a(diff.o)         libbb/lib.a(appletlib.o) (diff_main)
editors/lib.a(sed.o)          libbb/lib.a(appletlib.o) (sed_main)
editors/lib.a(vi.o)           libbb/lib.a(appletlib.o) (vi_main)
findutils/lib.a(find.o)       libbb/lib.a(appletlib.o) (find_main)
findutils/lib.a(grep.o)       libbb/lib.a(appletlib.o) (grep_main)
findutils/lib.a(xargs.o)      libbb/lib.a(appletlib.o) (xargs_main)
init/lib.a(halt.o)            libbb/lib.a(appletlib.o) (halt_main)
init/lib.a(init.o)            libbb/lib.a(appletlib.o) (init_main)
init/lib.a(mesg.o)            libbb/lib.a(appletlib.o) (mesg_main)
libbb/lib.a(ask_confirmation.o)
                              coreutils/lib.a(mv.o) (bb_ask_confirmation)
libbb/lib.a(bb_askpass.o)     loginutils/lib.a(passwd.o) (bb_ask_stdin)
libbb/lib.a(bb_bswap_64.o)    networking/lib.a(nbd-client.o) (bb_bswap_64)
libbb/lib.a(bb_do_delay.o)    loginutils/lib.a(login.o) (bb_do_delay)
libbb/lib.a(bb_pwd.o)         loginutils/lib.a(deluser.o) (xgetpwnam)
libbb/lib.a(bb_qsort.o)       editors/lib.a(diff.o) (qsort_string_vector)
libbb/lib.a(change_identity.o)
                              loginutils/lib.a(login.o) (change_identity)
libbb/lib.a(compare_string_array.o)
                              networking/lib.a(arp.o) (index_in_strings)
libbb/lib.a(concat_path_file.o)
                              modutils/lib.a(depmod.o) (concat_path_file)
libbb/lib.a(concat_subpath_file.o)
                              procps/lib.a(sysctl.o) (concat_subpath_file)
libbb/lib.a(copy_file.o)      loginutils/lib.a(adduser.o) (copy_file)
libbb/lib.a(correct_password.o)
                              loginutils/lib.a(login.o) (ask_and_check_password)
libbb/lib.a(crc32.o)          archival/lib.a(gzip.o) (crc32_filltable)
libbb/lib.a(device_open.o)    miscutils/lib.a(setserial.o) (device_open)
libbb/lib.a(dump.o)           util-linux/lib.a(hexdump.o) (alloc_dumper)
libbb/lib.a(endofname.o)      shell/lib.a(ash.o) (endofname)
libbb/lib.a(execable.o)       debianutils/lib.a(which.o) (execable_file)
libbb/lib.a(fclose_nonstdin.o)
                              miscutils/lib.a(strings.o) (fclose_if_not_stdin)
libbb/lib.a(fflush_stdout_and_exit.o)
                              miscutils/lib.a(strings.o) (fflush_stdout_and_exit)
libbb/lib.a(fgets_str.o)      networking/lib.a(netstat.o) (xmalloc_fgets_str)
libbb/lib.a(find_mount_point.o)
                              util-linux/lib.a(mkfs_ext2.o) (find_mount_point)
libbb/lib.a(find_pid_by_name.o)
                              procps/lib.a(kill.o) (find_pid_by_name)
libbb/lib.a(find_root_device.o)
                              util-linux/lib.a(fstrim.o) (find_block_device)
libbb/lib.a(get_cpu_count.o)  procps/lib.a(iostat.o) (starts_with_cpu)
libbb/lib.a(get_line_from_file.o)
                              editors/lib.a(sed.o) (bb_get_chunk_from_file)
libbb/lib.a(get_shell_name.o)
                              loginutils/lib.a(adduser.o) (get_shell_name)
libbb/lib.a(get_volsize.o)    util-linux/lib.a(mkfs_ext2.o) (get_volume_size_in_bytes)
libbb/lib.a(getopt32.o)       loginutils/lib.a(addgroup.o) (getopt32)
libbb/lib.a(getpty.o)         networking/lib.a(telnetd.o) (xgetpty)
libbb/lib.a(hash_md5_sha.o)   util-linux/volume_id/lib.a(hfs.o) (md5_begin)
libbb/lib.a(herror_msg.o)     util-linux/lib.a(mount.o) (bb_herror_msg)
libbb/lib.a(human_readable.o)
                              coreutils/lib.a(df.o) (make_human_readable_str)
libbb/lib.a(in_ether.o)       networking/lib.a(ifconfig.o) (in_ether)
libbb/lib.a(inet_cksum.o)     networking/lib.a(ping.o) (inet_cksum)
libbb/lib.a(inet_common.o)    networking/lib.a(interface.o) (INET_resolve)
libbb/lib.a(info_msg.o)       loginutils/lib.a(passwd.o) (bb_info_msg)
libbb/lib.a(inode_hash.o)     coreutils/lib.a(du.o) (is_in_ino_dev_hashtable)
libbb/lib.a(isdirectory.o)    networking/lib.a(httpd.o) (is_directory)
libbb/lib.a(kernel_version.o)
                              sysklogd/lib.a(syslogd_and_logger.o) (get_linux_version_code)
libbb/lib.a(lineedit.o)       shell/lib.a(ash.o) (new_line_input_t)
libbb/lib.a(lineedit_ptr_hack.o)
                              libbb/lib.a(lineedit.o) (lineedit_ptr_to_statics)
libbb/lib.a(llist.o)          modutils/lib.a(modprobe.o) (llist_add_to)
libbb/lib.a(login.o)          loginutils/lib.a(getty.o) (print_login_issue)
libbb/lib.a(loop.o)           util-linux/lib.a(mount.o) (del_loop)
libbb/lib.a(make_directory.o)
                              archival/libarchive/lib.a(data_extract_all.o) (bb_make_directory)
libbb/lib.a(makedev.o)        archival/libarchive/lib.a(get_header_tar.o) (bb_makedev)
libbb/lib.a(match_fstype.o)   util-linux/lib.a(mount.o) (match_fstype)
libbb/lib.a(mode_string.o)    archival/libarchive/lib.a(header_verbose_list.o) (bb_mode_string)
libbb/lib.a(nuke_str.o)       loginutils/lib.a(passwd.o) (nuke_str)
libbb/lib.a(obscure.o)        loginutils/lib.a(passwd.o) (obscure)
libbb/lib.a(parse_config.o)   modutils/lib.a(modprobe.o) (config_open2)
libbb/lib.a(parse_mode.o)     shell/lib.a(ash.o) (bb_parse_mode)
libbb/lib.a(percent_decode.o)
                              networking/lib.a(httpd.o) (percent_decode_in_place)
libbb/lib.a(perror_nomsg_and_die.o)
                              networking/lib.a(ftpgetput.o) (bb_perror_nomsg_and_die)
libbb/lib.a(pidfile.o)        miscutils/lib.a(crond.o) (write_pidfile)
libbb/lib.a(print_flags.o)    miscutils/lib.a(hdparm.o) (print_flags_separated)
libbb/lib.a(printable.o)      networking/lib.a(netstat.o) (fputc_printable)
libbb/lib.a(printable_string.o)
                              coreutils/lib.a(ls.o) (printable_string)
libbb/lib.a(process_escape_sequence.o)
                              shell/lib.a(ash.o) (bb_process_escape_sequence)
libbb/lib.a(procps.o)         procps/lib.a(top.o) (clear_username_cache)
libbb/lib.a(progress.o)       networking/lib.a(wget.o) (bb_progress_init)
libbb/lib.a(pw_encrypt.o)     networking/lib.a(httpd.o) (crypt_make_salt)
libbb/lib.a(read_key.o)       miscutils/lib.a(less.o) (read_key)
libbb/lib.a(read_printf.o)    shell/lib.a(ash.o) (nonblock_immune_read)
libbb/lib.a(recursive_action.o)
                              modutils/lib.a(depmod.o) (recursive_action)
libbb/lib.a(remove_file.o)    coreutils/lib.a(mv.o) (remove_file)
libbb/lib.a(rtc.o)            util-linux/lib.a(hwclock.o) (rtc_adjtime_is_utc)
libbb/lib.a(run_shell.o)      loginutils/lib.a(login.o) (run_shell)
libbb/lib.a(safe_gethostname.o)
                              networking/lib.a(hostname.o) (safe_gethostname)
libbb/lib.a(safe_poll.o)      miscutils/lib.a(less.o) (safe_poll)
libbb/lib.a(safe_strncpy.o)   loginutils/lib.a(login.o) (safe_strncpy)
libbb/lib.a(setup_environment.o)
                              loginutils/lib.a(login.o) (setup_environment)
libbb/lib.a(signals.o)        loginutils/lib.a(getty.o) (record_signo)
libbb/lib.a(simplify_path.o)  networking/lib.a(httpd.o) (bb_simplify_abs_path_inplace)
libbb/lib.a(single_argv.o)    coreutils/lib.a(dirname.o) (single_argv)
libbb/lib.a(skip_whitespace.o)
                              networking/lib.a(httpd.o) (skip_whitespace)
libbb/lib.a(speed_table.o)    coreutils/lib.a(stty.o) (tty_baud_to_value)
libbb/lib.a(str_tolower.o)    networking/lib.a(wget.o) (str_tolower)
libbb/lib.a(strrstr.o)        modutils/lib.a(depmod.o) (strrstr)
libbb/lib.a(systemd_support.o)
                              sysklogd/lib.a(syslogd_and_logger.o) (sd_listen_fds)
libbb/lib.a(u_signal_names.o)
                              procps/lib.a(kill.o) (get_signum)
libbb/lib.a(udp_io.o)         networking/lib.a(tcpudp.o) (socket_want_pktinfo)
libbb/lib.a(update_passwd.o)  loginutils/lib.a(addgroup.o) (update_passwd)
libbb/lib.a(uuencode.o)       networking/lib.a(wget.o) (bb_uuencode)
libbb/lib.a(vfork_daemon_rexec.o)
                              loginutils/lib.a(adduser.o) (spawn_and_wait)
libbb/lib.a(wfopen.o)         networking/lib.a(interface.o) (fopen_or_warn)
libbb/lib.a(wfopen_input.o)   miscutils/lib.a(strings.o) (fopen_or_warn_stdin)
libbb/lib.a(xatonum.o)        util-linux/lib.a(hexdump.o) (xstrtoull_range_sfx)
libbb/lib.a(xconnect.o)       networking/lib.a(ftpd.o) (setsockopt_reuseaddr)
libbb/lib.a(xgetcwd.o)        networking/lib.a(ftpd.o) (xrealloc_getcwd_or_warn)
libbb/lib.a(xgethostbyname.o)
                              networking/lib.a(hostname.o) (xgethostbyname)
libbb/lib.a(xreadlink.o)      networking/lib.a(netstat.o) (xmalloc_readlink)
libbb/lib.a(xrealloc_vector.o)
                              miscutils/lib.a(less.o) (xrealloc_vector_helper)
libbb/lib.a(xregcomp.o)       procps/lib.a(pgrep.o) (xregcomp)
libbb/lib.a(perror_nomsg.o)   libbb/lib.a(update_passwd.o) (bb_perror_nomsg)
libpwdgrp/lib.a(uidgid_get.o)
                              networking/lib.a(httpd.o) (xget_uidgid)
/opt/Cortina/toolchain/toolchain-arm_gcc-4.5.1+l_uClibc-0.9.32_eabi/bin/../lib/gcc/arm-openwrt-linux-uclibcgnueabi/4.5.2/libgcc.a(_udivsi3.o)
                              libbb/lib.a(xfuncs.o) (__aeabi_uidiv)
/opt/Cortina/toolchain/toolchain-arm_gcc-4.5.1+l_uClibc-0.9.32_eabi/bin/../lib/gcc/arm-openwrt-linux-uclibcgnueabi/4.5.2/libgcc.a(_divsi3.o)
                              libbb/lib.a(time.o) (__aeabi_idiv)
/opt/Cortina/toolchain/toolchain-arm_gcc-4.5.1+l_uClibc-0.9.32_eabi/bin/../lib/gcc/arm-openwrt-linux-uclibcgnueabi/4.5.2/libgcc.a(_lshrdi3.o)
                              shell/lib.a(shell_common.o) (__aeabi_llsr)
/opt/Cortina/toolchain/toolchain-arm_gcc-4.5.1+l_uClibc-0.9.32_eabi/bin/../lib/gcc/arm-openwrt-linux-uclibcgnueabi/4.5.2/libgcc.a(_ashrdi3.o)
                              shell/lib.a(math.o) (__aeabi_lasr)
/opt/Cortina/toolchain/toolchain-arm_gcc-4.5.1+l_uClibc-0.9.32_eabi/bin/../lib/gcc/arm-openwrt-linux-uclibcgnueabi/4.5.2/libgcc.a(_arm_addsubdf3.o)
                              coreutils/lib.a(sleep.o) (__aeabi_dsub)
/opt/Cortina/toolchain/toolchain-arm_gcc-4.5.1+l_uClibc-0.9.32_eabi/bin/../lib/gcc/arm-openwrt-linux-uclibcgnueabi/4.5.2/libgcc.a(_arm_muldivdf3.o)
                              procps/lib.a(iostat.o) (__aeabi_dmul)
/opt/Cortina/toolchain/toolchain-arm_gcc-4.5.1+l_uClibc-0.9.32_eabi/bin/../lib/gcc/arm-openwrt-linux-uclibcgnueabi/4.5.2/libgcc.a(_arm_cmpdf2.o)
                              editors/lib.a(awk.o) (__aeabi_dcmpeq)
/opt/Cortina/toolchain/toolchain-arm_gcc-4.5.1+l_uClibc-0.9.32_eabi/bin/../lib/gcc/arm-openwrt-linux-uclibcgnueabi/4.5.2/libgcc.a(_arm_fixdfsi.o)
                              coreutils/lib.a(sleep.o) (__aeabi_d2iz)
/opt/Cortina/toolchain/toolchain-arm_gcc-4.5.1+l_uClibc-0.9.32_eabi/bin/../lib/gcc/arm-openwrt-linux-uclibcgnueabi/4.5.2/libgcc.a(_arm_fixunsdfsi.o)
                              editors/lib.a(awk.o) (__aeabi_d2uiz)
/opt/Cortina/toolchain/toolchain-arm_gcc-4.5.1+l_uClibc-0.9.32_eabi/bin/../lib/gcc/arm-openwrt-linux-uclibcgnueabi/4.5.2/libgcc.a(_arm_addsubsf3.o)
                              miscutils/lib.a(hdparm.o) (__aeabi_ui2f)
/opt/Cortina/toolchain/toolchain-arm_gcc-4.5.1+l_uClibc-0.9.32_eabi/bin/../lib/gcc/arm-openwrt-linux-uclibcgnueabi/4.5.2/libgcc.a(_arm_muldivsf3.o)
                              miscutils/lib.a(hdparm.o) (__aeabi_fmul)
/opt/Cortina/toolchain/toolchain-arm_gcc-4.5.1+l_uClibc-0.9.32_eabi/bin/../lib/gcc/arm-openwrt-linux-uclibcgnueabi/4.5.2/libgcc.a(_aeabi_ldivmod.o)
                              shell/lib.a(math.o) (__aeabi_ldivmod)
/opt/Cortina/toolchain/toolchain-arm_gcc-4.5.1+l_uClibc-0.9.32_eabi/bin/../lib/gcc/arm-openwrt-linux-uclibcgnueabi/4.5.2/libgcc.a(_aeabi_uldivmod.o)
                              miscutils/lib.a(hdparm.o) (__aeabi_uldivmod)
/opt/Cortina/toolchain/toolchain-arm_gcc-4.5.1+l_uClibc-0.9.32_eabi/bin/../lib/gcc/arm-openwrt-linux-uclibcgnueabi/4.5.2/libgcc.a(_dvmd_lnx.o)
                              /opt/Cortina/toolchain/toolchain-arm_gcc-4.5.1+l_uClibc-0.9.32_eabi/bin/../lib/gcc/arm-openwrt-linux-uclibcgnueabi/4.5.2/libgcc.a(_udivsi3.o) (__aeabi_idiv0)
/opt/Cortina/toolchain/toolchain-arm_gcc-4.5.1+l_uClibc-0.9.32_eabi/bin/../lib/gcc/arm-openwrt-linux-uclibcgnueabi/4.5.2/libgcc.a(bpabi.o)
                              /opt/Cortina/toolchain/toolchain-arm_gcc-4.5.1+l_uClibc-0.9.32_eabi/bin/../lib/gcc/arm-openwrt-linux-uclibcgnueabi/4.5.2/libgcc.a(_aeabi_ldivmod.o) (__gnu_ldivmod_helper)
/opt/Cortina/toolchain/toolchain-arm_gcc-4.5.1+l_uClibc-0.9.32_eabi/bin/../lib/gcc/arm-openwrt-linux-uclibcgnueabi/4.5.2/libgcc.a(_divdi3.o)
                              /opt/Cortina/toolchain/toolchain-arm_gcc-4.5.1+l_uClibc-0.9.32_eabi/bin/../lib/gcc/arm-openwrt-linux-uclibcgnueabi/4.5.2/libgcc.a(bpabi.o) (__divdi3)
/opt/Cortina/toolchain/toolchain-arm_gcc-4.5.1+l_uClibc-0.9.32_eabi/bin/../lib/gcc/arm-openwrt-linux-uclibcgnueabi/4.5.2/libgcc.a(_udivdi3.o)
                              /opt/Cortina/toolchain/toolchain-arm_gcc-4.5.1+l_uClibc-0.9.32_eabi/bin/../lib/gcc/arm-openwrt-linux-uclibcgnueabi/4.5.2/libgcc.a(bpabi.o) (__udivdi3)
/opt/Cortina/toolchain/toolchain-arm_gcc-4.5.1+l_uClibc-0.9.32_eabi/bin/../lib/gcc/arm-openwrt-linux-uclibcgnueabi/4.5.2/../../../../arm-openwrt-linux-uclibcgnueabi/lib/uclibc_nonshared.a(atexit.os)
                              procps/lib.a(powertop.o) (atexit)

Allocating common symbols
Common symbol       size              file

bb_common_bufsiz1   0x1001            libbb/lib.a(messages.o)
die_jmp             0x110             libbb/lib.a(xfunc_die.o)
applet_name         0x4               libbb/lib.a(appletlib.o)
opt_complementary   0x4               libbb/lib.a(getopt32.o)
lineedit_ptr_to_statics
                    0x4               libbb/lib.a(lineedit_ptr_hack.o)
bb_errno            0x4               libbb/lib.a(ptr_to_globals.o)
ash_ptr_to_globals_memstack
                    0x4               shell/lib.a(ash_ptr_hack.o)
oneline             0x4               networking/libiproute/lib.a(ip_parse_common_args.o)
bb_got_signal       0x4               libbb/lib.a(signals.o)
ash_ptr_to_globals_misc
                    0x4               shell/lib.a(ash_ptr_hack.o)
global_crc32_table  0x4               libbb/lib.a(crc32.o)
option_mask32       0x4               libbb/lib.a(getopt32.o)
die_sleep           0x4               libbb/lib.a(xfunc_die.o)
ash_ptr_to_globals_var
                    0x4               shell/lib.a(ash_ptr_hack.o)
test_ptr_to_statics
                    0x4               coreutils/lib.a(test_ptr_hack.o)
wrote_pidfile       0x4               libbb/lib.a(pidfile.o)
ptr_to_globals      0x4               libbb/lib.a(ptr_to_globals.o)
g_leases            0x4               networking/udhcp/lib.a(dhcpd.o)
applet_long_options
                    0x4               libbb/lib.a(getopt32.o)
interface_opt_a     0x4               networking/lib.a(interface.o)
_SL_                0x1               networking/libiproute/lib.a(ip_parse_common_args.o)

Discarded input sections

 .data          0x00000000        0x4 /opt/Cortina/toolchain/toolchain-arm_gcc-4.5.1+l_uClibc-0.9.32_eabi/bin/../lib/gcc/arm-openwrt-linux-uclibcgnueabi/4.5.2/../../../../arm-openwrt-linux-uclibcgnueabi/lib/crt1.o
 .bss           0x00000000        0x0 /opt/Cortina/toolchain/toolchain-arm_gcc-4.5.1+l_uClibc-0.9.32_eabi/bin/../lib/gcc/arm-openwrt-linux-uclibcgnueabi/4.5.2/../../../../arm-openwrt-linux-uclibcgnueabi/lib/crt1.o
 .note.GNU-stack
                0x00000000        0x0 /opt/Cortina/toolchain/toolchain-arm_gcc-4.5.1+l_uClibc-0.9.32_eabi/bin/../lib/gcc/arm-openwrt-linux-uclibcgnueabi/4.5.2/../../../../arm-openwrt-linux-uclibcgnueabi/lib/crt1.o
 .text          0x00000000        0x0 /opt/Cortina/toolchain/toolchain-arm_gcc-4.5.1+l_uClibc-0.9.32_eabi/bin/../lib/gcc/arm-openwrt-linux-uclibcgnueabi/4.5.2/../../../../arm-openwrt-linux-uclibcgnueabi/lib/crti.o
 .data          0x00000000        0x0 /opt/Cortina/toolchain/toolchain-arm_gcc-4.5.1+l_uClibc-0.9.32_eabi/bin/../lib/gcc/arm-openwrt-linux-uclibcgnueabi/4.5.2/../../../../arm-openwrt-linux-uclibcgnueabi/lib/crti.o
 .bss           0x00000000        0x0 /opt/Cortina/toolchain/toolchain-arm_gcc-4.5.1+l_uClibc-0.9.32_eabi/bin/../lib/gcc/arm-openwrt-linux-uclibcgnueabi/4.5.2/../../../../arm-openwrt-linux-uclibcgnueabi/lib/crti.o
 .note.GNU-stack
                0x00000000        0x0 /opt/Cortina/toolchain/toolchain-arm_gcc-4.5.1+l_uClibc-0.9.32_eabi/bin/../lib/gcc/arm-openwrt-linux-uclibcgnueabi/4.5.2/../../../../arm-openwrt-linux-uclibcgnueabi/lib/crti.o
 .note.GNU-stack
                0x00000000        0x0 /opt/Cortina/toolchain/toolchain-arm_gcc-4.5.1+l_uClibc-0.9.32_eabi/bin/../lib/gcc/arm-openwrt-linux-uclibcgnueabi/4.5.2/crtbegin.o
 .text          0x00000000        0x0 applets/built-in.o
 .data          0x00000000        0x0 applets/built-in.o
 .bss           0x00000000        0x0 applets/built-in.o
 .note.GNU-stack
                0x00000000        0x0 applets/built-in.o
 .text          0x00000000        0x0 libbb/lib.a(appletlib.o)
 .data          0x00000000        0x0 libbb/lib.a(appletlib.o)
 .bss           0x00000000        0x0 libbb/lib.a(appletlib.o)
 .note.GNU-stack
                0x00000000        0x0 libbb/lib.a(appletlib.o)
 .text          0x00000000        0x0 libbb/lib.a(default_error_retval.o)
 .data          0x00000000        0x0 libbb/lib.a(default_error_retval.o)
 .bss           0x00000000        0x0 libbb/lib.a(default_error_retval.o)
 .note.GNU-stack
                0x00000000        0x0 libbb/lib.a(default_error_retval.o)
 .text          0x00000000        0x0 libbb/lib.a(get_last_path_component.o)
 .data          0x00000000        0x0 libbb/lib.a(get_last_path_component.o)
 .bss           0x00000000        0x0 libbb/lib.a(get_last_path_component.o)
 .note.GNU-stack
                0x00000000        0x0 libbb/lib.a(get_last_path_component.o)
 .text          0x00000000        0x0 libbb/lib.a(last_char_is.o)
 .data          0x00000000        0x0 libbb/lib.a(last_char_is.o)
 .bss           0x00000000        0x0 libbb/lib.a(last_char_is.o)
 .note.GNU-stack
                0x00000000        0x0 libbb/lib.a(last_char_is.o)
 .text          0x00000000        0x0 libbb/lib.a(messages.o)
 .data          0x00000000        0x0 libbb/lib.a(messages.o)
 .bss           0x00000000        0x0 libbb/lib.a(messages.o)
 .note.GNU-stack
                0x00000000        0x0 libbb/lib.a(messages.o)
 .text          0x00000000        0x0 libbb/lib.a(ptr_to_globals.o)
 .data          0x00000000        0x0 libbb/lib.a(ptr_to_globals.o)
 .bss           0x00000000        0x0 libbb/lib.a(ptr_to_globals.o)
 .note.GNU-stack
                0x00000000        0x0 libbb/lib.a(ptr_to_globals.o)
 .text          0x00000000        0x0 libbb/lib.a(verror_msg.o)
 .data          0x00000000        0x0 libbb/lib.a(verror_msg.o)
 .bss           0x00000000        0x0 libbb/lib.a(verror_msg.o)
 .note.GNU-stack
                0x00000000        0x0 libbb/lib.a(verror_msg.o)
 .text          0x00000000        0x0 libbb/lib.a(xfunc_die.o)
 .data          0x00000000        0x0 libbb/lib.a(xfunc_die.o)
 .bss           0x00000000        0x0 libbb/lib.a(xfunc_die.o)
 .note.GNU-stack
                0x00000000        0x0 libbb/lib.a(xfunc_die.o)
 .text          0x00000000        0x0 libbb/lib.a(xfuncs.o)
 .data          0x00000000        0x0 libbb/lib.a(xfuncs.o)
 .bss           0x00000000        0x0 libbb/lib.a(xfuncs.o)
 .note.GNU-stack
                0x00000000        0x0 libbb/lib.a(xfuncs.o)
 .text          0x00000000        0x0 libbb/lib.a(xfuncs_printf.o)
 .data          0x00000000        0x0 libbb/lib.a(xfuncs_printf.o)
 .bss           0x00000000        0x0 libbb/lib.a(xfuncs_printf.o)
 .text.rename_or_warn
                0x00000000       0x34 libbb/lib.a(xfuncs_printf.o)
 .text.xprint_and_close_file
                0x00000000       0x40 libbb/lib.a(xfuncs_printf.o)
 .text.selinux_or_die
                0x00000000       0x10 libbb/lib.a(xfuncs_printf.o)
 .note.GNU-stack
                0x00000000        0x0 libbb/lib.a(xfuncs_printf.o)
 .text          0x00000000        0x0 libbb/lib.a(copyfd.o)
 .data          0x00000000        0x0 libbb/lib.a(copyfd.o)
 .bss           0x00000000        0x0 libbb/lib.a(copyfd.o)
 .note.GNU-stack
                0x00000000        0x0 libbb/lib.a(copyfd.o)
 .text          0x00000000        0x0 libbb/lib.a(full_write.o)
 .data          0x00000000        0x0 libbb/lib.a(full_write.o)
 .bss           0x00000000        0x0 libbb/lib.a(full_write.o)
 .note.GNU-stack
                0x00000000        0x0 libbb/lib.a(full_write.o)
 .text          0x00000000        0x0 libbb/lib.a(perror_msg.o)
 .data          0x00000000        0x0 libbb/lib.a(perror_msg.o)
 .bss           0x00000000        0x0 libbb/lib.a(perror_msg.o)
 .note.GNU-stack
                0x00000000        0x0 libbb/lib.a(perror_msg.o)
 .text          0x00000000        0x0 libbb/lib.a(read.o)
 .data          0x00000000        0x0 libbb/lib.a(read.o)
 .bss           0x00000000        0x0 libbb/lib.a(read.o)
 .note.GNU-stack
                0x00000000        0x0 libbb/lib.a(read.o)
 .text          0x00000000        0x0 libbb/lib.a(safe_write.o)
 .data          0x00000000        0x0 libbb/lib.a(safe_write.o)
 .bss           0x00000000        0x0 libbb/lib.a(safe_write.o)
 .note.GNU-stack
                0x00000000        0x0 libbb/lib.a(safe_write.o)
 .text          0x00000000        0x0 libbb/lib.a(time.o)
 .data          0x00000000        0x0 libbb/lib.a(time.o)
 .bss           0x00000000        0x0 libbb/lib.a(time.o)
 .text.strftime_YYYYMMDDHHMMSS
                0x00000000        0xc libbb/lib.a(time.o)
 .text.monotonic_ns
                0x00000000       0x40 libbb/lib.a(time.o)
 .note.GNU-stack
                0x00000000        0x0 libbb/lib.a(time.o)
 .text          0x00000000        0x0 libbb/lib.a(bb_strtonum.o)
 .data          0x00000000        0x0 libbb/lib.a(bb_strtonum.o)
 .bss           0x00000000        0x0 libbb/lib.a(bb_strtonum.o)
 .note.GNU-stack
                0x00000000        0x0 libbb/lib.a(bb_strtonum.o)
 .text          0x00000000        0x0 loginutils/lib.a(addgroup.o)
 .data          0x00000000        0x0 loginutils/lib.a(addgroup.o)
 .bss           0x00000000        0x0 loginutils/lib.a(addgroup.o)
 .note.GNU-stack
                0x00000000        0x0 loginutils/lib.a(addgroup.o)
 .text          0x00000000        0x0 loginutils/lib.a(adduser.o)
 .data          0x00000000        0x0 loginutils/lib.a(adduser.o)
 .bss           0x00000000        0x0 loginutils/lib.a(adduser.o)
 .note.GNU-stack
                0x00000000        0x0 loginutils/lib.a(adduser.o)
 .text          0x00000000        0x0 loginutils/lib.a(deluser.o)
 .data          0x00000000        0x0 loginutils/lib.a(deluser.o)
 .bss           0x00000000        0x0 loginutils/lib.a(deluser.o)
 .note.GNU-stack
                0x00000000        0x0 loginutils/lib.a(deluser.o)
 .text          0x00000000        0x0 loginutils/lib.a(getty.o)
 .data          0x00000000        0x0 loginutils/lib.a(getty.o)
 .bss           0x00000000        0x0 loginutils/lib.a(getty.o)
 .note.GNU-stack
                0x00000000        0x0 loginutils/lib.a(getty.o)
 .text          0x00000000        0x0 loginutils/lib.a(login.o)
 .data          0x00000000        0x0 loginutils/lib.a(login.o)
 .bss           0x00000000        0x0 loginutils/lib.a(login.o)
 .note.GNU-stack
                0x00000000        0x0 loginutils/lib.a(login.o)
 .text          0x00000000        0x0 loginutils/lib.a(passwd.o)
 .data          0x00000000        0x0 loginutils/lib.a(passwd.o)
 .bss           0x00000000        0x0 loginutils/lib.a(passwd.o)
 .note.GNU-stack
                0x00000000        0x0 loginutils/lib.a(passwd.o)
 .text          0x00000000        0x0 miscutils/lib.a(crond.o)
 .data          0x00000000        0x0 miscutils/lib.a(crond.o)
 .bss           0x00000000        0x0 miscutils/lib.a(crond.o)
 .note.GNU-stack
                0x00000000        0x0 miscutils/lib.a(crond.o)
 .text          0x00000000        0x0 miscutils/lib.a(crontab.o)
 .data          0x00000000        0x0 miscutils/lib.a(crontab.o)
 .bss           0x00000000        0x0 miscutils/lib.a(crontab.o)
 .note.GNU-stack
                0x00000000        0x0 miscutils/lib.a(crontab.o)
 .text          0x00000000        0x0 miscutils/lib.a(hdparm.o)
 .data          0x00000000        0x0 miscutils/lib.a(hdparm.o)
 .bss           0x00000000        0x0 miscutils/lib.a(hdparm.o)
 .note.GNU-stack
                0x00000000        0x0 miscutils/lib.a(hdparm.o)
 .text          0x00000000        0x0 miscutils/lib.a(less.o)
 .data          0x00000000        0x0 miscutils/lib.a(less.o)
 .bss           0x00000000        0x0 miscutils/lib.a(less.o)
 .note.GNU-stack
                0x00000000        0x0 miscutils/lib.a(less.o)
 .text          0x00000000        0x0 miscutils/lib.a(lock.o)
 .data          0x00000000        0x0 miscutils/lib.a(lock.o)
 .bss           0x00000000        0x0 miscutils/lib.a(lock.o)
 .note.GNU-stack
                0x00000000        0x0 miscutils/lib.a(lock.o)
 .text          0x00000000        0x0 miscutils/lib.a(nandwrite.o)
 .data          0x00000000        0x0 miscutils/lib.a(nandwrite.o)
 .bss           0x00000000        0x0 miscutils/lib.a(nandwrite.o)
 .note.GNU-stack
                0x00000000        0x0 miscutils/lib.a(nandwrite.o)
 .text          0x00000000        0x0 miscutils/lib.a(setserial.o)
 .data          0x00000000        0x0 miscutils/lib.a(setserial.o)
 .bss           0x00000000        0x0 miscutils/lib.a(setserial.o)
 .note.GNU-stack
                0x00000000        0x0 miscutils/lib.a(setserial.o)
 .text          0x00000000        0x0 miscutils/lib.a(strings.o)
 .data          0x00000000        0x0 miscutils/lib.a(strings.o)
 .bss           0x00000000        0x0 miscutils/lib.a(strings.o)
 .note.GNU-stack
                0x00000000        0x0 miscutils/lib.a(strings.o)
 .text          0x00000000        0x0 miscutils/lib.a(taskset.o)
 .data          0x00000000        0x0 miscutils/lib.a(taskset.o)
 .bss           0x00000000        0x0 miscutils/lib.a(taskset.o)
 .note.GNU-stack
                0x00000000        0x0 miscutils/lib.a(taskset.o)
 .text          0x00000000        0x0 miscutils/lib.a(time.o)
 .data          0x00000000        0x0 miscutils/lib.a(time.o)
 .bss           0x00000000        0x0 miscutils/lib.a(time.o)
 .note.GNU-stack
                0x00000000        0x0 miscutils/lib.a(time.o)
 .text          0x00000000        0x0 miscutils/lib.a(ubi_tools.o)
 .data          0x00000000        0x0 miscutils/lib.a(ubi_tools.o)
 .bss           0x00000000        0x0 miscutils/lib.a(ubi_tools.o)
 .note.GNU-stack
                0x00000000        0x0 miscutils/lib.a(ubi_tools.o)
 .text          0x00000000        0x0 miscutils/lib.a(watchdog.o)
 .data          0x00000000        0x0 miscutils/lib.a(watchdog.o)
 .bss           0x00000000        0x0 miscutils/lib.a(watchdog.o)
 .note.GNU-stack
                0x00000000        0x0 miscutils/lib.a(watchdog.o)
 .text          0x00000000        0x0 modutils/lib.a(depmod.o)
 .data          0x00000000        0x0 modutils/lib.a(depmod.o)
 .bss           0x00000000        0x0 modutils/lib.a(depmod.o)
 .note.GNU-stack
                0x00000000        0x0 modutils/lib.a(depmod.o)
 .text          0x00000000        0x0 modutils/lib.a(insmod.o)
 .data          0x00000000        0x0 modutils/lib.a(insmod.o)
 .bss           0x00000000        0x0 modutils/lib.a(insmod.o)
 .note.GNU-stack
                0x00000000        0x0 modutils/lib.a(insmod.o)
 .text          0x00000000        0x0 modutils/lib.a(lsmod.o)
 .data          0x00000000        0x0 modutils/lib.a(lsmod.o)
 .bss           0x00000000        0x0 modutils/lib.a(lsmod.o)
 .note.GNU-stack
                0x00000000        0x0 modutils/lib.a(lsmod.o)
 .text          0x00000000        0x0 modutils/lib.a(modprobe.o)
 .data          0x00000000        0x0 modutils/lib.a(modprobe.o)
 .bss           0x00000000        0x0 modutils/lib.a(modprobe.o)
 .note.GNU-stack
                0x00000000        0x0 modutils/lib.a(modprobe.o)
 .text          0x00000000        0x0 modutils/lib.a(modutils.o)
 .data          0x00000000        0x0 modutils/lib.a(modutils.o)
 .bss           0x00000000        0x0 modutils/lib.a(modutils.o)
 .text.replace_underscores
                0x00000000       0x20 modutils/lib.a(modutils.o)
 .note.GNU-stack
                0x00000000        0x0 modutils/lib.a(modutils.o)
 .text          0x00000000        0x0 modutils/lib.a(rmmod.o)
 .data          0x00000000        0x0 modutils/lib.a(rmmod.o)
 .bss           0x00000000        0x0 modutils/lib.a(rmmod.o)
 .note.GNU-stack
                0x00000000        0x0 modutils/lib.a(rmmod.o)
 .text          0x00000000        0x0 networking/lib.a(arp.o)
 .data          0x00000000        0x0 networking/lib.a(arp.o)
 .bss           0x00000000        0x0 networking/lib.a(arp.o)
 .note.GNU-stack
                0x00000000        0x0 networking/lib.a(arp.o)
 .text          0x00000000        0x0 networking/lib.a(arping.o)
 .data          0x00000000        0x0 networking/lib.a(arping.o)
 .bss           0x00000000        0x0 networking/lib.a(arping.o)
 .note.GNU-stack
                0x00000000        0x0 networking/lib.a(arping.o)
 .text          0x00000000        0x0 networking/lib.a(ftpd.o)
 .data          0x00000000        0x0 networking/lib.a(ftpd.o)
 .bss           0x00000000        0x0 networking/lib.a(ftpd.o)
 .note.GNU-stack
                0x00000000        0x0 networking/lib.a(ftpd.o)
 .text          0x00000000        0x0 networking/lib.a(ftpgetput.o)
 .data          0x00000000        0x0 networking/lib.a(ftpgetput.o)
 .bss           0x00000000        0x0 networking/lib.a(ftpgetput.o)
 .note.GNU-stack
                0x00000000        0x0 networking/lib.a(ftpgetput.o)
 .text          0x00000000        0x0 networking/lib.a(hostname.o)
 .data          0x00000000        0x0 networking/lib.a(hostname.o)
 .bss           0x00000000        0x0 networking/lib.a(hostname.o)
 .note.GNU-stack
                0x00000000        0x0 networking/lib.a(hostname.o)
 .text          0x00000000        0x0 networking/lib.a(httpd.o)
 .data          0x00000000        0x0 networking/lib.a(httpd.o)
 .bss           0x00000000        0x0 networking/lib.a(httpd.o)
 .note.GNU-stack
                0x00000000        0x0 networking/lib.a(httpd.o)
 .text          0x00000000        0x0 networking/lib.a(ifconfig.o)
 .data          0x00000000        0x0 networking/lib.a(ifconfig.o)
 .bss           0x00000000        0x0 networking/lib.a(ifconfig.o)
 .note.GNU-stack
                0x00000000        0x0 networking/lib.a(ifconfig.o)
 .text          0x00000000        0x0 networking/lib.a(ifupdown.o)
 .data          0x00000000        0x0 networking/lib.a(ifupdown.o)
 .bss           0x00000000        0x0 networking/lib.a(ifupdown.o)
 .note.GNU-stack
                0x00000000        0x0 networking/lib.a(ifupdown.o)
 .text          0x00000000        0x0 networking/lib.a(inetd.o)
 .data          0x00000000        0x0 networking/lib.a(inetd.o)
 .bss           0x00000000        0x0 networking/lib.a(inetd.o)
 .note.GNU-stack
                0x00000000        0x0 networking/lib.a(inetd.o)
 .text          0x00000000        0x0 networking/lib.a(interface.o)
 .data          0x00000000        0x0 networking/lib.a(interface.o)
 .bss           0x00000000        0x0 networking/lib.a(interface.o)
 .note.GNU-stack
                0x00000000        0x0 networking/lib.a(interface.o)
 .text          0x00000000        0x0 networking/lib.a(ip.o)
 .data          0x00000000        0x0 networking/lib.a(ip.o)
 .bss           0x00000000        0x0 networking/lib.a(ip.o)
 .note.GNU-stack
                0x00000000        0x0 networking/lib.a(ip.o)
 .text          0x00000000        0x0 networking/lib.a(nbd-client.o)
 .data          0x00000000        0x0 networking/lib.a(nbd-client.o)
 .bss           0x00000000        0x0 networking/lib.a(nbd-client.o)
 .note.GNU-stack
                0x00000000        0x0 networking/lib.a(nbd-client.o)
 .text          0x00000000        0x0 networking/lib.a(nc.o)
 .data          0x00000000        0x0 networking/lib.a(nc.o)
 .bss           0x00000000        0x0 networking/lib.a(nc.o)
 .note.GNU-stack
                0x00000000        0x0 networking/lib.a(nc.o)
 .text          0x00000000        0x0 networking/lib.a(netstat.o)
 .data          0x00000000        0x0 networking/lib.a(netstat.o)
 .bss           0x00000000        0x0 networking/lib.a(netstat.o)
 .note.GNU-stack
                0x00000000        0x0 networking/lib.a(netstat.o)
 .text          0x00000000        0x0 networking/lib.a(nslookup.o)
 .data          0x00000000        0x0 networking/lib.a(nslookup.o)
 .bss           0x00000000        0x0 networking/lib.a(nslookup.o)
 .note.GNU-stack
                0x00000000        0x0 networking/lib.a(nslookup.o)
 .text          0x00000000        0x0 networking/lib.a(ping.o)
 .data          0x00000000        0x0 networking/lib.a(ping.o)
 .bss           0x00000000        0x0 networking/lib.a(ping.o)
 .note.GNU-stack
                0x00000000        0x0 networking/lib.a(ping.o)
 .text          0x00000000        0x0 networking/lib.a(route.o)
 .data          0x00000000        0x0 networking/lib.a(route.o)
 .bss           0x00000000        0x0 networking/lib.a(route.o)
 .note.GNU-stack
                0x00000000        0x0 networking/lib.a(route.o)
 .text          0x00000000        0x0 networking/lib.a(tcpudp.o)
 .data          0x00000000        0x0 networking/lib.a(tcpudp.o)
 .bss           0x00000000        0x0 networking/lib.a(tcpudp.o)
 .note.GNU-stack
                0x00000000        0x0 networking/lib.a(tcpudp.o)
 .text          0x00000000        0x0 networking/lib.a(tcpudp_perhost.o)
 .data          0x00000000        0x0 networking/lib.a(tcpudp_perhost.o)
 .bss           0x00000000        0x0 networking/lib.a(tcpudp_perhost.o)
 .note.GNU-stack
                0x00000000        0x0 networking/lib.a(tcpudp_perhost.o)
 .text          0x00000000        0x0 networking/lib.a(telnet.o)
 .data          0x00000000        0x0 networking/lib.a(telnet.o)
 .bss           0x00000000        0x0 networking/lib.a(telnet.o)
 .note.GNU-stack
                0x00000000        0x0 networking/lib.a(telnet.o)
 .text          0x00000000        0x0 networking/lib.a(telnetd.o)
 .data          0x00000000        0x0 networking/lib.a(telnetd.o)
 .bss           0x00000000        0x0 networking/lib.a(telnetd.o)
 .note.GNU-stack
                0x00000000        0x0 networking/lib.a(telnetd.o)
 .text          0x00000000        0x0 networking/lib.a(tftp.o)
 .data          0x00000000        0x0 networking/lib.a(tftp.o)
 .bss           0x00000000        0x0 networking/lib.a(tftp.o)
 .note.GNU-stack
                0x00000000        0x0 networking/lib.a(tftp.o)
 .text          0x00000000        0x0 networking/lib.a(traceroute.o)
 .data          0x00000000        0x0 networking/lib.a(traceroute.o)
 .bss           0x00000000        0x0 networking/lib.a(traceroute.o)
 .note.GNU-stack
                0x00000000        0x0 networking/lib.a(traceroute.o)
 .text          0x00000000        0x0 networking/lib.a(vconfig.o)
 .data          0x00000000        0x0 networking/lib.a(vconfig.o)
 .bss           0x00000000        0x0 networking/lib.a(vconfig.o)
 .note.GNU-stack
                0x00000000        0x0 networking/lib.a(vconfig.o)
 .text          0x00000000        0x0 networking/lib.a(wget.o)
 .data          0x00000000        0x0 networking/lib.a(wget.o)
 .bss           0x00000000        0x0 networking/lib.a(wget.o)
 .note.GNU-stack
                0x00000000        0x0 networking/lib.a(wget.o)
 .text          0x00000000        0x0 networking/lib.a(whois.o)
 .data          0x00000000        0x0 networking/lib.a(whois.o)
 .bss           0x00000000        0x0 networking/lib.a(whois.o)
 .note.GNU-stack
                0x00000000        0x0 networking/lib.a(whois.o)
 .text          0x00000000        0x0 networking/libiproute/lib.a(ip_parse_common_args.o)
 .data          0x00000000        0x0 networking/libiproute/lib.a(ip_parse_common_args.o)
 .bss           0x00000000        0x0 networking/libiproute/lib.a(ip_parse_common_args.o)
 .note.GNU-stack
                0x00000000        0x0 networking/libiproute/lib.a(ip_parse_common_args.o)
 .text          0x00000000        0x0 networking/libiproute/lib.a(ipaddress.o)
 .data          0x00000000        0x0 networking/libiproute/lib.a(ipaddress.o)
 .bss           0x00000000        0x0 networking/libiproute/lib.a(ipaddress.o)
 .note.GNU-stack
                0x00000000        0x0 networking/libiproute/lib.a(ipaddress.o)
 .text          0x00000000        0x0 networking/libiproute/lib.a(iplink.o)
 .data          0x00000000        0x0 networking/libiproute/lib.a(iplink.o)
 .bss           0x00000000        0x0 networking/libiproute/lib.a(iplink.o)
 .note.GNU-stack
                0x00000000        0x0 networking/libiproute/lib.a(iplink.o)
 .text          0x00000000        0x0 networking/libiproute/lib.a(iproute.o)
 .data          0x00000000        0x0 networking/libiproute/lib.a(iproute.o)
 .bss           0x00000000        0x0 networking/libiproute/lib.a(iproute.o)
 .note.GNU-stack
                0x00000000        0x0 networking/libiproute/lib.a(iproute.o)
 .text          0x00000000        0x0 networking/libiproute/lib.a(iprule.o)
 .data          0x00000000        0x0 networking/libiproute/lib.a(iprule.o)
 .bss           0x00000000        0x0 networking/libiproute/lib.a(iprule.o)
 .note.GNU-stack
                0x00000000        0x0 networking/libiproute/lib.a(iprule.o)
 .text          0x00000000        0x0 networking/libiproute/lib.a(iptunnel.o)
 .data          0x00000000        0x0 networking/libiproute/lib.a(iptunnel.o)
 .bss           0x00000000        0x0 networking/libiproute/lib.a(iptunnel.o)
 .note.GNU-stack
                0x00000000        0x0 networking/libiproute/lib.a(iptunnel.o)
 .text          0x00000000        0x0 networking/libiproute/lib.a(libnetlink.o)
 .data          0x00000000        0x0 networking/libiproute/lib.a(libnetlink.o)
 .bss           0x00000000        0x0 networking/libiproute/lib.a(libnetlink.o)
 .text.rtnl_dump_request
                0x00000000       0xb4 networking/libiproute/lib.a(libnetlink.o)
 .text.rta_addattr_l
                0x00000000       0x70 networking/libiproute/lib.a(libnetlink.o)
 .note.GNU-stack
                0x00000000        0x0 networking/libiproute/lib.a(libnetlink.o)
 .text          0x00000000        0x0 networking/libiproute/lib.a(ll_addr.o)
 .data          0x00000000        0x0 networking/libiproute/lib.a(ll_addr.o)
 .bss           0x00000000        0x0 networking/libiproute/lib.a(ll_addr.o)
 .note.GNU-stack
                0x00000000        0x0 networking/libiproute/lib.a(ll_addr.o)
 .text          0x00000000        0x0 networking/libiproute/lib.a(ll_map.o)
 .data          0x00000000        0x0 networking/libiproute/lib.a(ll_map.o)
 .bss           0x00000000        0x0 networking/libiproute/lib.a(ll_map.o)
 .note.GNU-stack
                0x00000000        0x0 networking/libiproute/lib.a(ll_map.o)
 .text          0x00000000        0x0 networking/libiproute/lib.a(ll_types.o)
 .data          0x00000000        0x0 networking/libiproute/lib.a(ll_types.o)
 .bss           0x00000000        0x0 networking/libiproute/lib.a(ll_types.o)
 .note.GNU-stack
                0x00000000        0x0 networking/libiproute/lib.a(ll_types.o)
 .text          0x00000000        0x0 networking/libiproute/lib.a(rt_names.o)
 .data          0x00000000        0x0 networking/libiproute/lib.a(rt_names.o)
 .bss           0x00000000        0x0 networking/libiproute/lib.a(rt_names.o)
 .text.rtnl_rtprot_n2a
                0x00000000       0x54 networking/libiproute/lib.a(rt_names.o)
 .note.GNU-stack
                0x00000000        0x0 networking/libiproute/lib.a(rt_names.o)
 .text          0x00000000        0x0 networking/libiproute/lib.a(rtm_map.o)
 .data          0x00000000        0x0 networking/libiproute/lib.a(rtm_map.o)
 .bss           0x00000000        0x0 networking/libiproute/lib.a(rtm_map.o)
 .note.GNU-stack
                0x00000000        0x0 networking/libiproute/lib.a(rtm_map.o)
 .text          0x00000000        0x0 networking/libiproute/lib.a(utils.o)
 .data          0x00000000        0x0 networking/libiproute/lib.a(utils.o)
 .bss           0x00000000        0x0 networking/libiproute/lib.a(utils.o)
 .note.GNU-stack
                0x00000000        0x0 networking/libiproute/lib.a(utils.o)
 .text          0x00000000        0x0 networking/udhcp/lib.a(dhcpc.o)
 .data          0x00000000        0x0 networking/udhcp/lib.a(dhcpc.o)
 .bss           0x00000000        0x0 networking/udhcp/lib.a(dhcpc.o)
 .note.GNU-stack
                0x00000000        0x0 networking/udhcp/lib.a(dhcpc.o)
 .text          0x00000000        0x0 networking/udhcp/lib.a(dhcpd.o)
 .data          0x00000000        0x0 networking/udhcp/lib.a(dhcpd.o)
 .bss           0x00000000        0x0 networking/udhcp/lib.a(dhcpd.o)
 .note.GNU-stack
                0x00000000        0x0 networking/udhcp/lib.a(dhcpd.o)
 .text          0x00000000        0x0 networking/udhcp/lib.a(dhcprelay.o)
 .data          0x00000000        0x0 networking/udhcp/lib.a(dhcprelay.o)
 .bss           0x00000000        0x0 networking/udhcp/lib.a(dhcprelay.o)
 .note.GNU-stack
                0x00000000        0x0 networking/udhcp/lib.a(dhcprelay.o)
 .text          0x00000000        0x0 networking/udhcp/lib.a(domain_codec.o)
 .data          0x00000000        0x0 networking/udhcp/lib.a(domain_codec.o)
 .bss           0x00000000        0x0 networking/udhcp/lib.a(domain_codec.o)
 .note.GNU-stack
                0x00000000        0x0 networking/udhcp/lib.a(domain_codec.o)
 .text          0x00000000        0x0 networking/udhcp/lib.a(dumpleases.o)
 .data          0x00000000        0x0 networking/udhcp/lib.a(dumpleases.o)
 .bss           0x00000000        0x0 networking/udhcp/lib.a(dumpleases.o)
 .note.GNU-stack
                0x00000000        0x0 networking/udhcp/lib.a(dumpleases.o)
 .text          0x00000000        0x0 networking/udhcp/lib.a(files.o)
 .data          0x00000000        0x0 networking/udhcp/lib.a(files.o)
 .bss           0x00000000        0x0 networking/udhcp/lib.a(files.o)
 .note.GNU-stack
                0x00000000        0x0 networking/udhcp/lib.a(files.o)
 .text          0x00000000        0x0 networking/udhcp/lib.a(leases.o)
 .data          0x00000000        0x0 networking/udhcp/lib.a(leases.o)
 .bss           0x00000000        0x0 networking/udhcp/lib.a(leases.o)
 .note.GNU-stack
                0x00000000        0x0 networking/udhcp/lib.a(leases.o)
 .text          0x00000000        0x0 networking/udhcp/lib.a(packet.o)
 .data          0x00000000        0x0 networking/udhcp/lib.a(packet.o)
 .bss           0x00000000        0x0 networking/udhcp/lib.a(packet.o)
 .note.GNU-stack
                0x00000000        0x0 networking/udhcp/lib.a(packet.o)
 .text          0x00000000        0x0 networking/udhcp/lib.a(signalpipe.o)
 .data          0x00000000        0x0 networking/udhcp/lib.a(signalpipe.o)
 .bss           0x00000000        0x0 networking/udhcp/lib.a(signalpipe.o)
 .note.GNU-stack
                0x00000000        0x0 networking/udhcp/lib.a(signalpipe.o)
 .text          0x00000000        0x0 networking/udhcp/lib.a(socket.o)
 .data          0x00000000        0x0 networking/udhcp/lib.a(socket.o)
 .bss           0x00000000        0x0 networking/udhcp/lib.a(socket.o)
 .note.GNU-stack
                0x00000000        0x0 networking/udhcp/lib.a(socket.o)
 .text          0x00000000        0x0 networking/udhcp/lib.a(static_leases.o)
 .data          0x00000000        0x0 networking/udhcp/lib.a(static_leases.o)
 .bss           0x00000000        0x0 networking/udhcp/lib.a(static_leases.o)
 .note.GNU-stack
                0x00000000        0x0 networking/udhcp/lib.a(static_leases.o)
 .text          0x00000000        0x0 networking/udhcp/lib.a(arpping.o)
 .data          0x00000000        0x0 networking/udhcp/lib.a(arpping.o)
 .bss           0x00000000        0x0 networking/udhcp/lib.a(arpping.o)
 .note.GNU-stack
                0x00000000        0x0 networking/udhcp/lib.a(arpping.o)
 .text          0x00000000        0x0 networking/udhcp/lib.a(common.o)
 .data          0x00000000        0x0 networking/udhcp/lib.a(common.o)
 .bss           0x00000000        0x0 networking/udhcp/lib.a(common.o)
 .note.GNU-stack
                0x00000000        0x0 networking/udhcp/lib.a(common.o)
 .text          0x00000000        0x0 procps/lib.a(free.o)
 .data          0x00000000        0x0 procps/lib.a(free.o)
 .bss           0x00000000        0x0 procps/lib.a(free.o)
 .note.GNU-stack
                0x00000000        0x0 procps/lib.a(free.o)
 .text          0x00000000        0x0 procps/lib.a(iostat.o)
 .data          0x00000000        0x0 procps/lib.a(iostat.o)
 .bss           0x00000000        0x0 procps/lib.a(iostat.o)
 .note.GNU-stack
                0x00000000        0x0 procps/lib.a(iostat.o)
 .text          0x00000000        0x0 procps/lib.a(kill.o)
 .data          0x00000000        0x0 procps/lib.a(kill.o)
 .bss           0x00000000        0x0 procps/lib.a(kill.o)
 .note.GNU-stack
                0x00000000        0x0 procps/lib.a(kill.o)
 .text          0x00000000        0x0 procps/lib.a(lsof.o)
 .data          0x00000000        0x0 procps/lib.a(lsof.o)
 .bss           0x00000000        0x0 procps/lib.a(lsof.o)
 .note.GNU-stack
                0x00000000        0x0 procps/lib.a(lsof.o)
 .text          0x00000000        0x0 procps/lib.a(mpstat.o)
 .data          0x00000000        0x0 procps/lib.a(mpstat.o)
 .bss           0x00000000        0x0 procps/lib.a(mpstat.o)
 .note.GNU-stack
                0x00000000        0x0 procps/lib.a(mpstat.o)
 .text          0x00000000        0x0 procps/lib.a(pgrep.o)
 .data          0x00000000        0x0 procps/lib.a(pgrep.o)
 .bss           0x00000000        0x0 procps/lib.a(pgrep.o)
 .note.GNU-stack
                0x00000000        0x0 procps/lib.a(pgrep.o)
 .text          0x00000000        0x0 procps/lib.a(pidof.o)
 .data          0x00000000        0x0 procps/lib.a(pidof.o)
 .bss           0x00000000        0x0 procps/lib.a(pidof.o)
 .note.GNU-stack
                0x00000000        0x0 procps/lib.a(pidof.o)
 .text          0x00000000        0x0 procps/lib.a(pmap.o)
 .data          0x00000000        0x0 procps/lib.a(pmap.o)
 .bss           0x00000000        0x0 procps/lib.a(pmap.o)
 .note.GNU-stack
                0x00000000        0x0 procps/lib.a(pmap.o)
 .text          0x00000000        0x0 procps/lib.a(powertop.o)
 .data          0x00000000        0x0 procps/lib.a(powertop.o)
 .bss           0x00000000        0x0 procps/lib.a(powertop.o)
 .note.GNU-stack
                0x00000000        0x0 procps/lib.a(powertop.o)
 .text          0x00000000        0x0 procps/lib.a(ps.o)
 .data          0x00000000        0x0 procps/lib.a(ps.o)
 .bss           0x00000000        0x0 procps/lib.a(ps.o)
 .note.GNU-stack
                0x00000000        0x0 procps/lib.a(ps.o)
 .text          0x00000000        0x0 procps/lib.a(pstree.o)
 .data          0x00000000        0x0 procps/lib.a(pstree.o)
 .bss           0x00000000        0x0 procps/lib.a(pstree.o)
 .note.GNU-stack
                0x00000000        0x0 procps/lib.a(pstree.o)
 .text          0x00000000        0x0 procps/lib.a(pwdx.o)
 .data          0x00000000        0x0 procps/lib.a(pwdx.o)
 .bss           0x00000000        0x0 procps/lib.a(pwdx.o)
 .note.GNU-stack
                0x00000000        0x0 procps/lib.a(pwdx.o)
 .text          0x00000000        0x0 procps/lib.a(renice.o)
 .data          0x00000000        0x0 procps/lib.a(renice.o)
 .bss           0x00000000        0x0 procps/lib.a(renice.o)
 .note.GNU-stack
                0x00000000        0x0 procps/lib.a(renice.o)
 .text          0x00000000        0x0 procps/lib.a(sysctl.o)
 .data          0x00000000        0x0 procps/lib.a(sysctl.o)
 .bss           0x00000000        0x0 procps/lib.a(sysctl.o)
 .note.GNU-stack
                0x00000000        0x0 procps/lib.a(sysctl.o)
 .text          0x00000000        0x0 procps/lib.a(top.o)
 .data          0x00000000        0x0 procps/lib.a(top.o)
 .bss           0x00000000        0x0 procps/lib.a(top.o)
 .note.GNU-stack
                0x00000000        0x0 procps/lib.a(top.o)
 .text          0x00000000        0x0 procps/lib.a(uptime.o)
 .data          0x00000000        0x0 procps/lib.a(uptime.o)
 .bss           0x00000000        0x0 procps/lib.a(uptime.o)
 .note.GNU-stack
                0x00000000        0x0 procps/lib.a(uptime.o)
 .text          0x00000000        0x0 runit/lib.a(svlogd.o)
 .data          0x00000000        0x0 runit/lib.a(svlogd.o)
 .bss           0x00000000        0x0 runit/lib.a(svlogd.o)
 .note.GNU-stack
                0x00000000        0x0 runit/lib.a(svlogd.o)
 .text          0x00000000        0x0 shell/lib.a(ash.o)
 .data          0x00000000        0x0 shell/lib.a(ash.o)
 .bss           0x00000000        0x0 shell/lib.a(ash.o)
 .note.GNU-stack
                0x00000000        0x0 shell/lib.a(ash.o)
 .text          0x00000000        0x0 shell/lib.a(ash_ptr_hack.o)
 .data          0x00000000        0x0 shell/lib.a(ash_ptr_hack.o)
 .bss           0x00000000        0x0 shell/lib.a(ash_ptr_hack.o)
 .note.GNU-stack
                0x00000000        0x0 shell/lib.a(ash_ptr_hack.o)
 .text          0x00000000        0x0 shell/lib.a(math.o)
 .data          0x00000000        0x0 shell/lib.a(math.o)
 .bss           0x00000000        0x0 shell/lib.a(math.o)
 .note.GNU-stack
                0x00000000        0x0 shell/lib.a(math.o)
 .text          0x00000000        0x0 shell/lib.a(shell_common.o)
 .data          0x00000000        0x0 shell/lib.a(shell_common.o)
 .bss           0x00000000        0x0 shell/lib.a(shell_common.o)
 .note.GNU-stack
                0x00000000        0x0 shell/lib.a(shell_common.o)
 .text          0x00000000        0x0 sysklogd/lib.a(klogd.o)
 .data          0x00000000        0x0 sysklogd/lib.a(klogd.o)
 .bss           0x00000000        0x0 sysklogd/lib.a(klogd.o)
 .note.GNU-stack
                0x00000000        0x0 sysklogd/lib.a(klogd.o)
 .text          0x00000000        0x0 sysklogd/lib.a(logread.o)
 .data          0x00000000        0x0 sysklogd/lib.a(logread.o)
 .bss           0x00000000        0x0 sysklogd/lib.a(logread.o)
 .note.GNU-stack
                0x00000000        0x0 sysklogd/lib.a(logread.o)
 .text          0x00000000        0x0 sysklogd/lib.a(syslogd_and_logger.o)
 .data          0x00000000        0x0 sysklogd/lib.a(syslogd_and_logger.o)
 .bss           0x00000000        0x0 sysklogd/lib.a(syslogd_and_logger.o)
 .note.GNU-stack
                0x00000000        0x0 sysklogd/lib.a(syslogd_and_logger.o)
 .text          0x00000000        0x0 util-linux/lib.a(blkid.o)
 .data          0x00000000        0x0 util-linux/lib.a(blkid.o)
 .bss           0x00000000        0x0 util-linux/lib.a(blkid.o)
 .note.GNU-stack
                0x00000000        0x0 util-linux/lib.a(blkid.o)
 .text          0x00000000        0x0 util-linux/lib.a(blockdev.o)
 .data          0x00000000        0x0 util-linux/lib.a(blockdev.o)
 .bss           0x00000000        0x0 util-linux/lib.a(blockdev.o)
 .note.GNU-stack
                0x00000000        0x0 util-linux/lib.a(blockdev.o)
 .text          0x00000000        0x0 util-linux/lib.a(dmesg.o)
 .data          0x00000000        0x0 util-linux/lib.a(dmesg.o)
 .bss           0x00000000        0x0 util-linux/lib.a(dmesg.o)
 .note.GNU-stack
                0x00000000        0x0 util-linux/lib.a(dmesg.o)
 .text          0x00000000        0x0 util-linux/lib.a(fdisk.o)
 .data          0x00000000        0x0 util-linux/lib.a(fdisk.o)
 .bss           0x00000000        0x0 util-linux/lib.a(fdisk.o)
 .note.GNU-stack
                0x00000000        0x0 util-linux/lib.a(fdisk.o)
 .text          0x00000000        0x0 util-linux/lib.a(fstrim.o)
 .data          0x00000000        0x0 util-linux/lib.a(fstrim.o)
 .bss           0x00000000        0x0 util-linux/lib.a(fstrim.o)
 .note.GNU-stack
                0x00000000        0x0 util-linux/lib.a(fstrim.o)
 .text          0x00000000        0x0 util-linux/lib.a(getopt.o)
 .data          0x00000000        0x0 util-linux/lib.a(getopt.o)
 .bss           0x00000000        0x0 util-linux/lib.a(getopt.o)
 .note.GNU-stack
                0x00000000        0x0 util-linux/lib.a(getopt.o)
 .text          0x00000000        0x0 util-linux/lib.a(hexdump.o)
 .data          0x00000000        0x0 util-linux/lib.a(hexdump.o)
 .bss           0x00000000        0x0 util-linux/lib.a(hexdump.o)
 .note.GNU-stack
                0x00000000        0x0 util-linux/lib.a(hexdump.o)
 .text          0x00000000        0x0 util-linux/lib.a(hwclock.o)
 .data          0x00000000        0x0 util-linux/lib.a(hwclock.o)
 .bss           0x00000000        0x0 util-linux/lib.a(hwclock.o)
 .note.GNU-stack
                0x00000000        0x0 util-linux/lib.a(hwclock.o)
 .text          0x00000000        0x0 util-linux/lib.a(lspci.o)
 .data          0x00000000        0x0 util-linux/lib.a(lspci.o)
 .bss           0x00000000        0x0 util-linux/lib.a(lspci.o)
 .note.GNU-stack
                0x00000000        0x0 util-linux/lib.a(lspci.o)
 .text          0x00000000        0x0 util-linux/lib.a(lsusb.o)
 .data          0x00000000        0x0 util-linux/lib.a(lsusb.o)
 .bss           0x00000000        0x0 util-linux/lib.a(lsusb.o)
 .note.GNU-stack
                0x00000000        0x0 util-linux/lib.a(lsusb.o)
 .text          0x00000000        0x0 util-linux/lib.a(mkfs_ext2.o)
 .data          0x00000000        0x0 util-linux/lib.a(mkfs_ext2.o)
 .bss           0x00000000        0x0 util-linux/lib.a(mkfs_ext2.o)
 .note.GNU-stack
                0x00000000        0x0 util-linux/lib.a(mkfs_ext2.o)
 .text          0x00000000        0x0 util-linux/lib.a(mkfs_minix.o)
 .data          0x00000000        0x0 util-linux/lib.a(mkfs_minix.o)
 .bss           0x00000000        0x0 util-linux/lib.a(mkfs_minix.o)
 .note.GNU-stack
                0x00000000        0x0 util-linux/lib.a(mkfs_minix.o)
 .text          0x00000000        0x0 util-linux/lib.a(mkfs_reiser.o)
 .data          0x00000000        0x0 util-linux/lib.a(mkfs_reiser.o)
 .bss           0x00000000        0x0 util-linux/lib.a(mkfs_reiser.o)
 .note.GNU-stack
                0x00000000        0x0 util-linux/lib.a(mkfs_reiser.o)
 .text          0x00000000        0x0 util-linux/lib.a(mkfs_vfat.o)
 .data          0x00000000        0x0 util-linux/lib.a(mkfs_vfat.o)
 .bss           0x00000000        0x0 util-linux/lib.a(mkfs_vfat.o)
 .note.GNU-stack
                0x00000000        0x0 util-linux/lib.a(mkfs_vfat.o)
 .text          0x00000000        0x0 util-linux/lib.a(mkswap.o)
 .data          0x00000000        0x0 util-linux/lib.a(mkswap.o)
 .bss           0x00000000        0x0 util-linux/lib.a(mkswap.o)
 .note.GNU-stack
                0x00000000        0x0 util-linux/lib.a(mkswap.o)
 .text          0x00000000        0x0 util-linux/lib.a(more.o)
 .data          0x00000000        0x0 util-linux/lib.a(more.o)
 .bss           0x00000000        0x0 util-linux/lib.a(more.o)
 .note.GNU-stack
                0x00000000        0x0 util-linux/lib.a(more.o)
 .text          0x00000000        0x0 util-linux/lib.a(mount.o)
 .data          0x00000000        0x0 util-linux/lib.a(mount.o)
 .bss           0x00000000        0x0 util-linux/lib.a(mount.o)
 .note.GNU-stack
                0x00000000        0x0 util-linux/lib.a(mount.o)
 .text          0x00000000        0x0 util-linux/lib.a(pivot_root.o)
 .data          0x00000000        0x0 util-linux/lib.a(pivot_root.o)
 .bss           0x00000000        0x0 util-linux/lib.a(pivot_root.o)
 .note.GNU-stack
                0x00000000        0x0 util-linux/lib.a(pivot_root.o)
 .text          0x00000000        0x0 util-linux/lib.a(rdate.o)
 .data          0x00000000        0x0 util-linux/lib.a(rdate.o)
 .bss           0x00000000        0x0 util-linux/lib.a(rdate.o)
 .note.GNU-stack
                0x00000000        0x0 util-linux/lib.a(rdate.o)
 .text          0x00000000        0x0 util-linux/lib.a(swaponoff.o)
 .data          0x00000000        0x0 util-linux/lib.a(swaponoff.o)
 .bss           0x00000000        0x0 util-linux/lib.a(swaponoff.o)
 .note.GNU-stack
                0x00000000        0x0 util-linux/lib.a(swaponoff.o)
 .text          0x00000000        0x0 util-linux/lib.a(switch_root.o)
 .data          0x00000000        0x0 util-linux/lib.a(switch_root.o)
 .bss           0x00000000        0x0 util-linux/lib.a(switch_root.o)
 .note.GNU-stack
                0x00000000        0x0 util-linux/lib.a(switch_root.o)
 .text          0x00000000        0x0 util-linux/lib.a(umount.o)
 .data          0x00000000        0x0 util-linux/lib.a(umount.o)
 .bss           0x00000000        0x0 util-linux/lib.a(umount.o)
 .note.GNU-stack
                0x00000000        0x0 util-linux/lib.a(umount.o)
 .text          0x00000000        0x0 util-linux/volume_id/lib.a(get_devname.o)
 .data          0x00000000        0x0 util-linux/volume_id/lib.a(get_devname.o)
 .bss           0x00000000        0x0 util-linux/volume_id/lib.a(get_devname.o)
 .note.GNU-stack
                0x00000000        0x0 util-linux/volume_id/lib.a(get_devname.o)
 .text          0x00000000        0x0 util-linux/volume_id/lib.a(volume_id.o)
 .data          0x00000000        0x0 util-linux/volume_id/lib.a(volume_id.o)
 .bss           0x00000000        0x0 util-linux/volume_id/lib.a(volume_id.o)
 .note.GNU-stack
                0x00000000        0x0 util-linux/volume_id/lib.a(volume_id.o)
 .text          0x00000000        0x0 util-linux/volume_id/lib.a(xfs.o)
 .data          0x00000000        0x0 util-linux/volume_id/lib.a(xfs.o)
 .bss           0x00000000        0x0 util-linux/volume_id/lib.a(xfs.o)
 .note.GNU-stack
                0x00000000        0x0 util-linux/volume_id/lib.a(xfs.o)
 .text          0x00000000        0x0 util-linux/volume_id/lib.a(btrfs.o)
 .data          0x00000000        0x0 util-linux/volume_id/lib.a(btrfs.o)
 .bss           0x00000000        0x0 util-linux/volume_id/lib.a(btrfs.o)
 .note.GNU-stack
                0x00000000        0x0 util-linux/volume_id/lib.a(btrfs.o)
 .text          0x00000000        0x0 util-linux/volume_id/lib.a(exfat.o)
 .data          0x00000000        0x0 util-linux/volume_id/lib.a(exfat.o)
 .bss           0x00000000        0x0 util-linux/volume_id/lib.a(exfat.o)
 .note.GNU-stack
                0x00000000        0x0 util-linux/volume_id/lib.a(exfat.o)
 .text          0x00000000        0x0 util-linux/volume_id/lib.a(ext.o)
 .data          0x00000000        0x0 util-linux/volume_id/lib.a(ext.o)
 .bss           0x00000000        0x0 util-linux/volume_id/lib.a(ext.o)
 .note.GNU-stack
                0x00000000        0x0 util-linux/volume_id/lib.a(ext.o)
 .text          0x00000000        0x0 util-linux/volume_id/lib.a(f2fs.o)
 .data          0x00000000        0x0 util-linux/volume_id/lib.a(f2fs.o)
 .bss           0x00000000        0x0 util-linux/volume_id/lib.a(f2fs.o)
 .note.GNU-stack
                0x00000000        0x0 util-linux/volume_id/lib.a(f2fs.o)
 .text          0x00000000        0x0 util-linux/volume_id/lib.a(fat.o)
 .data          0x00000000        0x0 util-linux/volume_id/lib.a(fat.o)
 .bss           0x00000000        0x0 util-linux/volume_id/lib.a(fat.o)
 .note.GNU-stack
                0x00000000        0x0 util-linux/volume_id/lib.a(fat.o)
 .text          0x00000000        0x0 util-linux/volume_id/lib.a(hfs.o)
 .data          0x00000000        0x0 util-linux/volume_id/lib.a(hfs.o)
 .bss           0x00000000        0x0 util-linux/volume_id/lib.a(hfs.o)
 .note.GNU-stack
                0x00000000        0x0 util-linux/volume_id/lib.a(hfs.o)
 .text          0x00000000        0x0 util-linux/volume_id/lib.a(iso9660.o)
 .data          0x00000000        0x0 util-linux/volume_id/lib.a(iso9660.o)
 .bss           0x00000000        0x0 util-linux/volume_id/lib.a(iso9660.o)
 .note.GNU-stack
                0x00000000        0x0 util-linux/volume_id/lib.a(iso9660.o)
 .text          0x00000000        0x0 util-linux/volume_id/lib.a(linux_raid.o)
 .data          0x00000000        0x0 util-linux/volume_id/lib.a(linux_raid.o)
 .bss           0x00000000        0x0 util-linux/volume_id/lib.a(linux_raid.o)
 .note.GNU-stack
                0x00000000        0x0 util-linux/volume_id/lib.a(linux_raid.o)
 .text          0x00000000        0x0 util-linux/volume_id/lib.a(linux_swap.o)
 .data          0x00000000        0x0 util-linux/volume_id/lib.a(linux_swap.o)
 .bss           0x00000000        0x0 util-linux/volume_id/lib.a(linux_swap.o)
 .note.GNU-stack
                0x00000000        0x0 util-linux/volume_id/lib.a(linux_swap.o)
 .text          0x00000000        0x0 util-linux/volume_id/lib.a(nilfs.o)
 .data          0x00000000        0x0 util-linux/volume_id/lib.a(nilfs.o)
 .bss           0x00000000        0x0 util-linux/volume_id/lib.a(nilfs.o)
 .note.GNU-stack
                0x00000000        0x0 util-linux/volume_id/lib.a(nilfs.o)
 .text          0x00000000        0x0 util-linux/volume_id/lib.a(ntfs.o)
 .data          0x00000000        0x0 util-linux/volume_id/lib.a(ntfs.o)
 .bss           0x00000000        0x0 util-linux/volume_id/lib.a(ntfs.o)
 .note.GNU-stack
                0x00000000        0x0 util-linux/volume_id/lib.a(ntfs.o)
 .text          0x00000000        0x0 util-linux/volume_id/lib.a(reiserfs.o)
 .data          0x00000000        0x0 util-linux/volume_id/lib.a(reiserfs.o)
 .bss           0x00000000        0x0 util-linux/volume_id/lib.a(reiserfs.o)
 .note.GNU-stack
                0x00000000        0x0 util-linux/volume_id/lib.a(reiserfs.o)
 .text          0x00000000        0x0 util-linux/volume_id/lib.a(udf.o)
 .data          0x00000000        0x0 util-linux/volume_id/lib.a(udf.o)
 .bss           0x00000000        0x0 util-linux/volume_id/lib.a(udf.o)
 .note.GNU-stack
                0x00000000        0x0 util-linux/volume_id/lib.a(udf.o)
 .text          0x00000000        0x0 util-linux/volume_id/lib.a(util.o)
 .data          0x00000000        0x0 util-linux/volume_id/lib.a(util.o)
 .bss           0x00000000        0x0 util-linux/volume_id/lib.a(util.o)
 .note.GNU-stack
                0x00000000        0x0 util-linux/volume_id/lib.a(util.o)
 .text          0x00000000        0x0 archival/lib.a(bbunzip.o)
 .data          0x00000000        0x0 archival/lib.a(bbunzip.o)
 .bss           0x00000000        0x0 archival/lib.a(bbunzip.o)
 .note.GNU-stack
                0x00000000        0x0 archival/lib.a(bbunzip.o)
 .text          0x00000000        0x0 archival/lib.a(gzip.o)
 .data          0x00000000        0x0 archival/lib.a(gzip.o)
 .bss           0x00000000        0x0 archival/lib.a(gzip.o)
 .note.GNU-stack
                0x00000000        0x0 archival/lib.a(gzip.o)
 .text          0x00000000        0x0 archival/lib.a(tar.o)
 .data          0x00000000        0x0 archival/lib.a(tar.o)
 .bss           0x00000000        0x0 archival/lib.a(tar.o)
 .note.GNU-stack
                0x00000000        0x0 archival/lib.a(tar.o)
 .text          0x00000000        0x0 archival/libarchive/lib.a(data_extract_all.o)
 .data          0x00000000        0x0 archival/libarchive/lib.a(data_extract_all.o)
 .bss           0x00000000        0x0 archival/libarchive/lib.a(data_extract_all.o)
 .note.GNU-stack
                0x00000000        0x0 archival/libarchive/lib.a(data_extract_all.o)
 .text          0x00000000        0x0 archival/libarchive/lib.a(data_extract_to_stdout.o)
 .data          0x00000000        0x0 archival/libarchive/lib.a(data_extract_to_stdout.o)
 .bss           0x00000000        0x0 archival/libarchive/lib.a(data_extract_to_stdout.o)
 .note.GNU-stack
                0x00000000        0x0 archival/libarchive/lib.a(data_extract_to_stdout.o)
 .text          0x00000000        0x0 archival/libarchive/lib.a(data_skip.o)
 .data          0x00000000        0x0 archival/libarchive/lib.a(data_skip.o)
 .bss           0x00000000        0x0 archival/libarchive/lib.a(data_skip.o)
 .note.GNU-stack
                0x00000000        0x0 archival/libarchive/lib.a(data_skip.o)
 .text          0x00000000        0x0 archival/libarchive/lib.a(decompress_bunzip2.o)
 .data          0x00000000        0x0 archival/libarchive/lib.a(decompress_bunzip2.o)
 .bss           0x00000000        0x0 archival/libarchive/lib.a(decompress_bunzip2.o)
 .note.GNU-stack
                0x00000000        0x0 archival/libarchive/lib.a(decompress_bunzip2.o)
 .text          0x00000000        0x0 archival/libarchive/lib.a(decompress_gunzip.o)
 .data          0x00000000        0x0 archival/libarchive/lib.a(decompress_gunzip.o)
 .bss           0x00000000        0x0 archival/libarchive/lib.a(decompress_gunzip.o)
 .text.inflate_unzip
                0x00000000       0x84 archival/libarchive/lib.a(decompress_gunzip.o)
 .note.GNU-stack
                0x00000000        0x0 archival/libarchive/lib.a(decompress_gunzip.o)
 .text          0x00000000        0x0 archival/libarchive/lib.a(filter_accept_reject_list.o)
 .data          0x00000000        0x0 archival/libarchive/lib.a(filter_accept_reject_list.o)
 .bss           0x00000000        0x0 archival/libarchive/lib.a(filter_accept_reject_list.o)
 .note.GNU-stack
                0x00000000        0x0 archival/libarchive/lib.a(filter_accept_reject_list.o)
 .text          0x00000000        0x0 archival/libarchive/lib.a(find_list_entry.o)
 .data          0x00000000        0x0 archival/libarchive/lib.a(find_list_entry.o)
 .bss           0x00000000        0x0 archival/libarchive/lib.a(find_list_entry.o)
 .note.GNU-stack
                0x00000000        0x0 archival/libarchive/lib.a(find_list_entry.o)
 .text          0x00000000        0x0 archival/libarchive/lib.a(get_header_tar.o)
 .data          0x00000000        0x0 archival/libarchive/lib.a(get_header_tar.o)
 .bss           0x00000000        0x0 archival/libarchive/lib.a(get_header_tar.o)
 .note.GNU-stack
                0x00000000        0x0 archival/libarchive/lib.a(get_header_tar.o)
 .text          0x00000000        0x0 archival/libarchive/lib.a(header_list.o)
 .data          0x00000000        0x0 archival/libarchive/lib.a(header_list.o)
 .bss           0x00000000        0x0 archival/libarchive/lib.a(header_list.o)
 .note.GNU-stack
                0x00000000        0x0 archival/libarchive/lib.a(header_list.o)
 .text          0x00000000        0x0 archival/libarchive/lib.a(header_verbose_list.o)
 .data          0x00000000        0x0 archival/libarchive/lib.a(header_verbose_list.o)
 .bss           0x00000000        0x0 archival/libarchive/lib.a(header_verbose_list.o)
 .note.GNU-stack
                0x00000000        0x0 archival/libarchive/lib.a(header_verbose_list.o)
 .text          0x00000000        0x0 archival/libarchive/lib.a(init_handle.o)
 .data          0x00000000        0x0 archival/libarchive/lib.a(init_handle.o)
 .bss           0x00000000        0x0 archival/libarchive/lib.a(init_handle.o)
 .note.GNU-stack
                0x00000000        0x0 archival/libarchive/lib.a(init_handle.o)
 .text          0x00000000        0x0 archival/libarchive/lib.a(open_transformer.o)
 .data          0x00000000        0x0 archival/libarchive/lib.a(open_transformer.o)
 .bss           0x00000000        0x0 archival/libarchive/lib.a(open_transformer.o)
 .note.GNU-stack
                0x00000000        0x0 archival/libarchive/lib.a(open_transformer.o)
 .text          0x00000000        0x0 archival/libarchive/lib.a(seek_by_jump.o)
 .data          0x00000000        0x0 archival/libarchive/lib.a(seek_by_jump.o)
 .bss           0x00000000        0x0 archival/libarchive/lib.a(seek_by_jump.o)
 .note.GNU-stack
                0x00000000        0x0 archival/libarchive/lib.a(seek_by_jump.o)
 .text          0x00000000        0x0 archival/libarchive/lib.a(seek_by_read.o)
 .data          0x00000000        0x0 archival/libarchive/lib.a(seek_by_read.o)
 .bss           0x00000000        0x0 archival/libarchive/lib.a(seek_by_read.o)
 .note.GNU-stack
                0x00000000        0x0 archival/libarchive/lib.a(seek_by_read.o)
 .text          0x00000000        0x0 archival/libarchive/lib.a(data_align.o)
 .data          0x00000000        0x0 archival/libarchive/lib.a(data_align.o)
 .bss           0x00000000        0x0 archival/libarchive/lib.a(data_align.o)
 .note.GNU-stack
                0x00000000        0x0 archival/libarchive/lib.a(data_align.o)
 .text          0x00000000        0x0 archival/libarchive/lib.a(filter_accept_all.o)
 .data          0x00000000        0x0 archival/libarchive/lib.a(filter_accept_all.o)
 .bss           0x00000000        0x0 archival/libarchive/lib.a(filter_accept_all.o)
 .note.GNU-stack
                0x00000000        0x0 archival/libarchive/lib.a(filter_accept_all.o)
 .text          0x00000000        0x0 archival/libarchive/lib.a(header_skip.o)
 .data          0x00000000        0x0 archival/libarchive/lib.a(header_skip.o)
 .bss           0x00000000        0x0 archival/libarchive/lib.a(header_skip.o)
 .note.GNU-stack
                0x00000000        0x0 archival/libarchive/lib.a(header_skip.o)
 .text          0x00000000        0x0 console-tools/lib.a(clear.o)
 .data          0x00000000        0x0 console-tools/lib.a(clear.o)
 .bss           0x00000000        0x0 console-tools/lib.a(clear.o)
 .note.GNU-stack
                0x00000000        0x0 console-tools/lib.a(clear.o)
 .text          0x00000000        0x0 console-tools/lib.a(reset.o)
 .data          0x00000000        0x0 console-tools/lib.a(reset.o)
 .bss           0x00000000        0x0 console-tools/lib.a(reset.o)
 .note.GNU-stack
                0x00000000        0x0 console-tools/lib.a(reset.o)
 .text          0x00000000        0x0 console-tools/lib.a(resize.o)
 .data          0x00000000        0x0 console-tools/lib.a(resize.o)
 .bss           0x00000000        0x0 console-tools/lib.a(resize.o)
 .note.GNU-stack
                0x00000000        0x0 console-tools/lib.a(resize.o)
 .text          0x00000000        0x0 coreutils/lib.a(basename.o)
 .data          0x00000000        0x0 coreutils/lib.a(basename.o)
 .bss           0x00000000        0x0 coreutils/lib.a(basename.o)
 .note.GNU-stack
                0x00000000        0x0 coreutils/lib.a(basename.o)
 .text          0x00000000        0x0 coreutils/lib.a(cat.o)
 .data          0x00000000        0x0 coreutils/lib.a(cat.o)
 .bss           0x00000000        0x0 coreutils/lib.a(cat.o)
 .note.GNU-stack
                0x00000000        0x0 coreutils/lib.a(cat.o)
 .text          0x00000000        0x0 coreutils/lib.a(chgrp.o)
 .data          0x00000000        0x0 coreutils/lib.a(chgrp.o)
 .bss           0x00000000        0x0 coreutils/lib.a(chgrp.o)
 .note.GNU-stack
                0x00000000        0x0 coreutils/lib.a(chgrp.o)
 .text          0x00000000        0x0 coreutils/lib.a(chmod.o)
 .data          0x00000000        0x0 coreutils/lib.a(chmod.o)
 .bss           0x00000000        0x0 coreutils/lib.a(chmod.o)
 .note.GNU-stack
                0x00000000        0x0 coreutils/lib.a(chmod.o)
 .text          0x00000000        0x0 coreutils/lib.a(chown.o)
 .data          0x00000000        0x0 coreutils/lib.a(chown.o)
 .bss           0x00000000        0x0 coreutils/lib.a(chown.o)
 .note.GNU-stack
                0x00000000        0x0 coreutils/lib.a(chown.o)
 .text          0x00000000        0x0 coreutils/lib.a(chroot.o)
 .data          0x00000000        0x0 coreutils/lib.a(chroot.o)
 .bss           0x00000000        0x0 coreutils/lib.a(chroot.o)
 .note.GNU-stack
                0x00000000        0x0 coreutils/lib.a(chroot.o)
 .text          0x00000000        0x0 coreutils/lib.a(cp.o)
 .data          0x00000000        0x0 coreutils/lib.a(cp.o)
 .bss           0x00000000        0x0 coreutils/lib.a(cp.o)
 .note.GNU-stack
                0x00000000        0x0 coreutils/lib.a(cp.o)
 .text          0x00000000        0x0 coreutils/lib.a(cut.o)
 .data          0x00000000        0x0 coreutils/lib.a(cut.o)
 .bss           0x00000000        0x0 coreutils/lib.a(cut.o)
 .note.GNU-stack
                0x00000000        0x0 coreutils/lib.a(cut.o)
 .text          0x00000000        0x0 coreutils/lib.a(date.o)
 .data          0x00000000        0x0 coreutils/lib.a(date.o)
 .bss           0x00000000        0x0 coreutils/lib.a(date.o)
 .note.GNU-stack
                0x00000000        0x0 coreutils/lib.a(date.o)
 .text          0x00000000        0x0 coreutils/lib.a(dd.o)
 .data          0x00000000        0x0 coreutils/lib.a(dd.o)
 .bss           0x00000000        0x0 coreutils/lib.a(dd.o)
 .note.GNU-stack
                0x00000000        0x0 coreutils/lib.a(dd.o)
 .text          0x00000000        0x0 coreutils/lib.a(df.o)
 .data          0x00000000        0x0 coreutils/lib.a(df.o)
 .bss           0x00000000        0x0 coreutils/lib.a(df.o)
 .note.GNU-stack
                0x00000000        0x0 coreutils/lib.a(df.o)
 .text          0x00000000        0x0 coreutils/lib.a(dirname.o)
 .data          0x00000000        0x0 coreutils/lib.a(dirname.o)
 .bss           0x00000000        0x0 coreutils/lib.a(dirname.o)
 .note.GNU-stack
                0x00000000        0x0 coreutils/lib.a(dirname.o)
 .text          0x00000000        0x0 coreutils/lib.a(du.o)
 .data          0x00000000        0x0 coreutils/lib.a(du.o)
 .bss           0x00000000        0x0 coreutils/lib.a(du.o)
 .note.GNU-stack
                0x00000000        0x0 coreutils/lib.a(du.o)
 .text          0x00000000        0x0 coreutils/lib.a(echo.o)
 .data          0x00000000        0x0 coreutils/lib.a(echo.o)
 .bss           0x00000000        0x0 coreutils/lib.a(echo.o)
 .note.GNU-stack
                0x00000000        0x0 coreutils/lib.a(echo.o)
 .text          0x00000000        0x0 coreutils/lib.a(env.o)
 .data          0x00000000        0x0 coreutils/lib.a(env.o)
 .bss           0x00000000        0x0 coreutils/lib.a(env.o)
 .note.GNU-stack
                0x00000000        0x0 coreutils/lib.a(env.o)
 .text          0x00000000        0x0 coreutils/lib.a(expr.o)
 .data          0x00000000        0x0 coreutils/lib.a(expr.o)
 .bss           0x00000000        0x0 coreutils/lib.a(expr.o)
 .note.GNU-stack
                0x00000000        0x0 coreutils/lib.a(expr.o)
 .text          0x00000000        0x0 coreutils/lib.a(false.o)
 .data          0x00000000        0x0 coreutils/lib.a(false.o)
 .bss           0x00000000        0x0 coreutils/lib.a(false.o)
 .note.GNU-stack
                0x00000000        0x0 coreutils/lib.a(false.o)
 .text          0x00000000        0x0 coreutils/lib.a(head.o)
 .data          0x00000000        0x0 coreutils/lib.a(head.o)
 .bss           0x00000000        0x0 coreutils/lib.a(head.o)
 .note.GNU-stack
                0x00000000        0x0 coreutils/lib.a(head.o)
 .text          0x00000000        0x0 coreutils/lib.a(hostid.o)
 .data          0x00000000        0x0 coreutils/lib.a(hostid.o)
 .bss           0x00000000        0x0 coreutils/lib.a(hostid.o)
 .note.GNU-stack
                0x00000000        0x0 coreutils/lib.a(hostid.o)
 .text          0x00000000        0x0 coreutils/lib.a(id.o)
 .data          0x00000000        0x0 coreutils/lib.a(id.o)
 .bss           0x00000000        0x0 coreutils/lib.a(id.o)
 .note.GNU-stack
                0x00000000        0x0 coreutils/lib.a(id.o)
 .text          0x00000000        0x0 coreutils/lib.a(ln.o)
 .data          0x00000000        0x0 coreutils/lib.a(ln.o)
 .bss           0x00000000        0x0 coreutils/lib.a(ln.o)
 .note.GNU-stack
                0x00000000        0x0 coreutils/lib.a(ln.o)
 .text          0x00000000        0x0 coreutils/lib.a(ls.o)
 .data          0x00000000        0x0 coreutils/lib.a(ls.o)
 .bss           0x00000000        0x0 coreutils/lib.a(ls.o)
 .note.GNU-stack
                0x00000000        0x0 coreutils/lib.a(ls.o)
 .text          0x00000000        0x0 coreutils/lib.a(md5_sha1_sum.o)
 .data          0x00000000        0x0 coreutils/lib.a(md5_sha1_sum.o)
 .bss           0x00000000        0x0 coreutils/lib.a(md5_sha1_sum.o)
 .note.GNU-stack
                0x00000000        0x0 coreutils/lib.a(md5_sha1_sum.o)
 .text          0x00000000        0x0 coreutils/lib.a(mkdir.o)
 .data          0x00000000        0x0 coreutils/lib.a(mkdir.o)
 .bss           0x00000000        0x0 coreutils/lib.a(mkdir.o)
 .note.GNU-stack
                0x00000000        0x0 coreutils/lib.a(mkdir.o)
 .text          0x00000000        0x0 coreutils/lib.a(mkfifo.o)
 .data          0x00000000        0x0 coreutils/lib.a(mkfifo.o)
 .bss           0x00000000        0x0 coreutils/lib.a(mkfifo.o)
 .note.GNU-stack
                0x00000000        0x0 coreutils/lib.a(mkfifo.o)
 .text          0x00000000        0x0 coreutils/lib.a(mknod.o)
 .data          0x00000000        0x0 coreutils/lib.a(mknod.o)
 .bss           0x00000000        0x0 coreutils/lib.a(mknod.o)
 .note.GNU-stack
                0x00000000        0x0 coreutils/lib.a(mknod.o)
 .text          0x00000000        0x0 coreutils/lib.a(mv.o)
 .data          0x00000000        0x0 coreutils/lib.a(mv.o)
 .bss           0x00000000        0x0 coreutils/lib.a(mv.o)
 .note.GNU-stack
                0x00000000        0x0 coreutils/lib.a(mv.o)
 .text          0x00000000        0x0 coreutils/lib.a(nice.o)
 .data          0x00000000        0x0 coreutils/lib.a(nice.o)
 .bss           0x00000000        0x0 coreutils/lib.a(nice.o)
 .note.GNU-stack
                0x00000000        0x0 coreutils/lib.a(nice.o)
 .text          0x00000000        0x0 coreutils/lib.a(nohup.o)
 .data          0x00000000        0x0 coreutils/lib.a(nohup.o)
 .bss           0x00000000        0x0 coreutils/lib.a(nohup.o)
 .note.GNU-stack
                0x00000000        0x0 coreutils/lib.a(nohup.o)
 .text          0x00000000        0x0 coreutils/lib.a(printf.o)
 .data          0x00000000        0x0 coreutils/lib.a(printf.o)
 .bss           0x00000000        0x0 coreutils/lib.a(printf.o)
 .note.GNU-stack
                0x00000000        0x0 coreutils/lib.a(printf.o)
 .text          0x00000000        0x0 coreutils/lib.a(pwd.o)
 .data          0x00000000        0x0 coreutils/lib.a(pwd.o)
 .bss           0x00000000        0x0 coreutils/lib.a(pwd.o)
 .note.GNU-stack
                0x00000000        0x0 coreutils/lib.a(pwd.o)
 .text          0x00000000        0x0 coreutils/lib.a(readlink.o)
 .data          0x00000000        0x0 coreutils/lib.a(readlink.o)
 .bss           0x00000000        0x0 coreutils/lib.a(readlink.o)
 .note.GNU-stack
                0x00000000        0x0 coreutils/lib.a(readlink.o)
 .text          0x00000000        0x0 coreutils/lib.a(rm.o)
 .data          0x00000000        0x0 coreutils/lib.a(rm.o)
 .bss           0x00000000        0x0 coreutils/lib.a(rm.o)
 .note.GNU-stack
                0x00000000        0x0 coreutils/lib.a(rm.o)
 .text          0x00000000        0x0 coreutils/lib.a(rmdir.o)
 .data          0x00000000        0x0 coreutils/lib.a(rmdir.o)
 .bss           0x00000000        0x0 coreutils/lib.a(rmdir.o)
 .note.GNU-stack
                0x00000000        0x0 coreutils/lib.a(rmdir.o)
 .text          0x00000000        0x0 coreutils/lib.a(seq.o)
 .data          0x00000000        0x0 coreutils/lib.a(seq.o)
 .bss           0x00000000        0x0 coreutils/lib.a(seq.o)
 .note.GNU-stack
                0x00000000        0x0 coreutils/lib.a(seq.o)
 .text          0x00000000        0x0 coreutils/lib.a(sleep.o)
 .data          0x00000000        0x0 coreutils/lib.a(sleep.o)
 .bss           0x00000000        0x0 coreutils/lib.a(sleep.o)
 .note.GNU-stack
                0x00000000        0x0 coreutils/lib.a(sleep.o)
 .text          0x00000000        0x0 coreutils/lib.a(sort.o)
 .data          0x00000000        0x0 coreutils/lib.a(sort.o)
 .bss           0x00000000        0x0 coreutils/lib.a(sort.o)
 .note.GNU-stack
                0x00000000        0x0 coreutils/lib.a(sort.o)
 .text          0x00000000        0x0 coreutils/lib.a(stty.o)
 .data          0x00000000        0x0 coreutils/lib.a(stty.o)
 .bss           0x00000000        0x0 coreutils/lib.a(stty.o)
 .note.GNU-stack
                0x00000000        0x0 coreutils/lib.a(stty.o)
 .text          0x00000000        0x0 coreutils/lib.a(sync.o)
 .data          0x00000000        0x0 coreutils/lib.a(sync.o)
 .bss           0x00000000        0x0 coreutils/lib.a(sync.o)
 .note.GNU-stack
                0x00000000        0x0 coreutils/lib.a(sync.o)
 .text          0x00000000        0x0 coreutils/lib.a(tail.o)
 .data          0x00000000        0x0 coreutils/lib.a(tail.o)
 .bss           0x00000000        0x0 coreutils/lib.a(tail.o)
 .note.GNU-stack
                0x00000000        0x0 coreutils/lib.a(tail.o)
 .text          0x00000000        0x0 coreutils/lib.a(tee.o)
 .data          0x00000000        0x0 coreutils/lib.a(tee.o)
 .bss           0x00000000        0x0 coreutils/lib.a(tee.o)
 .note.GNU-stack
                0x00000000        0x0 coreutils/lib.a(tee.o)
 .text          0x00000000        0x0 coreutils/lib.a(test.o)
 .data          0x00000000        0x0 coreutils/lib.a(test.o)
 .bss           0x00000000        0x0 coreutils/lib.a(test.o)
 .note.GNU-stack
                0x00000000        0x0 coreutils/lib.a(test.o)
 .text          0x00000000        0x0 coreutils/lib.a(test_ptr_hack.o)
 .data          0x00000000        0x0 coreutils/lib.a(test_ptr_hack.o)
 .bss           0x00000000        0x0 coreutils/lib.a(test_ptr_hack.o)
 .note.GNU-stack
                0x00000000        0x0 coreutils/lib.a(test_ptr_hack.o)
 .text          0x00000000        0x0 coreutils/lib.a(touch.o)
 .data          0x00000000        0x0 coreutils/lib.a(touch.o)
 .bss           0x00000000        0x0 coreutils/lib.a(touch.o)
 .note.GNU-stack
                0x00000000        0x0 coreutils/lib.a(touch.o)
 .text          0x00000000        0x0 coreutils/lib.a(tr.o)
 .data          0x00000000        0x0 coreutils/lib.a(tr.o)
 .bss           0x00000000        0x0 coreutils/lib.a(tr.o)
 .note.GNU-stack
                0x00000000        0x0 coreutils/lib.a(tr.o)
 .text          0x00000000        0x0 coreutils/lib.a(true.o)
 .data          0x00000000        0x0 coreutils/lib.a(true.o)
 .bss           0x00000000        0x0 coreutils/lib.a(true.o)
 .note.GNU-stack
                0x00000000        0x0 coreutils/lib.a(true.o)
 .text          0x00000000        0x0 coreutils/lib.a(tty.o)
 .data          0x00000000        0x0 coreutils/lib.a(tty.o)
 .bss           0x00000000        0x0 coreutils/lib.a(tty.o)
 .note.GNU-stack
                0x00000000        0x0 coreutils/lib.a(tty.o)
 .text          0x00000000        0x0 coreutils/lib.a(uname.o)
 .data          0x00000000        0x0 coreutils/lib.a(uname.o)
 .bss           0x00000000        0x0 coreutils/lib.a(uname.o)
 .note.GNU-stack
                0x00000000        0x0 coreutils/lib.a(uname.o)
 .text          0x00000000        0x0 coreutils/lib.a(uniq.o)
 .data          0x00000000        0x0 coreutils/lib.a(uniq.o)
 .bss           0x00000000        0x0 coreutils/lib.a(uniq.o)
 .note.GNU-stack
                0x00000000        0x0 coreutils/lib.a(uniq.o)
 .text          0x00000000        0x0 coreutils/lib.a(usleep.o)
 .data          0x00000000        0x0 coreutils/lib.a(usleep.o)
 .bss           0x00000000        0x0 coreutils/lib.a(usleep.o)
 .note.GNU-stack
                0x00000000        0x0 coreutils/lib.a(usleep.o)
 .text          0x00000000        0x0 coreutils/lib.a(uudecode.o)
 .data          0x00000000        0x0 coreutils/lib.a(uudecode.o)
 .bss           0x00000000        0x0 coreutils/lib.a(uudecode.o)
 .note.GNU-stack
                0x00000000        0x0 coreutils/lib.a(uudecode.o)
 .text          0x00000000        0x0 coreutils/lib.a(wc.o)
 .data          0x00000000        0x0 coreutils/lib.a(wc.o)
 .bss           0x00000000        0x0 coreutils/lib.a(wc.o)
 .note.GNU-stack
                0x00000000        0x0 coreutils/lib.a(wc.o)
 .text          0x00000000        0x0 coreutils/lib.a(yes.o)
 .data          0x00000000        0x0 coreutils/lib.a(yes.o)
 .bss           0x00000000        0x0 coreutils/lib.a(yes.o)
 .note.GNU-stack
                0x00000000        0x0 coreutils/lib.a(yes.o)
 .text          0x00000000        0x0 coreutils/libcoreutils/lib.a(cp_mv_stat.o)
 .data          0x00000000        0x0 coreutils/libcoreutils/lib.a(cp_mv_stat.o)
 .bss           0x00000000        0x0 coreutils/libcoreutils/lib.a(cp_mv_stat.o)
 .note.GNU-stack
                0x00000000        0x0 coreutils/libcoreutils/lib.a(cp_mv_stat.o)
 .text          0x00000000        0x0 coreutils/libcoreutils/lib.a(getopt_mk_fifo_nod.o)
 .data          0x00000000        0x0 coreutils/libcoreutils/lib.a(getopt_mk_fifo_nod.o)
 .bss           0x00000000        0x0 coreutils/libcoreutils/lib.a(getopt_mk_fifo_nod.o)
 .note.GNU-stack
                0x00000000        0x0 coreutils/libcoreutils/lib.a(getopt_mk_fifo_nod.o)
 .text          0x00000000        0x0 debianutils/lib.a(mktemp.o)
 .data          0x00000000        0x0 debianutils/lib.a(mktemp.o)
 .bss           0x00000000        0x0 debianutils/lib.a(mktemp.o)
 .note.GNU-stack
                0x00000000        0x0 debianutils/lib.a(mktemp.o)
 .text          0x00000000        0x0 debianutils/lib.a(run_parts.o)
 .data          0x00000000        0x0 debianutils/lib.a(run_parts.o)
 .bss           0x00000000        0x0 debianutils/lib.a(run_parts.o)
 .note.GNU-stack
                0x00000000        0x0 debianutils/lib.a(run_parts.o)
 .text          0x00000000        0x0 debianutils/lib.a(start_stop_daemon.o)
 .data          0x00000000        0x0 debianutils/lib.a(start_stop_daemon.o)
 .bss           0x00000000        0x0 debianutils/lib.a(start_stop_daemon.o)
 .note.GNU-stack
                0x00000000        0x0 debianutils/lib.a(start_stop_daemon.o)
 .text          0x00000000        0x0 debianutils/lib.a(which.o)
 .data          0x00000000        0x0 debianutils/lib.a(which.o)
 .bss           0x00000000        0x0 debianutils/lib.a(which.o)
 .note.GNU-stack
                0x00000000        0x0 debianutils/lib.a(which.o)
 .text          0x00000000        0x0 editors/lib.a(awk.o)
 .data          0x00000000        0x0 editors/lib.a(awk.o)
 .bss           0x00000000        0x0 editors/lib.a(awk.o)
 .note.GNU-stack
                0x00000000        0x0 editors/lib.a(awk.o)
 .text          0x00000000        0x0 editors/lib.a(cmp.o)
 .data          0x00000000        0x0 editors/lib.a(cmp.o)
 .bss           0x00000000        0x0 editors/lib.a(cmp.o)
 .note.GNU-stack
                0x00000000        0x0 editors/lib.a(cmp.o)
 .text          0x00000000        0x0 editors/lib.a(diff.o)
 .data          0x00000000        0x0 editors/lib.a(diff.o)
 .bss           0x00000000        0x0 editors/lib.a(diff.o)
 .note.GNU-stack
                0x00000000        0x0 editors/lib.a(diff.o)
 .text          0x00000000        0x0 editors/lib.a(sed.o)
 .data          0x00000000        0x0 editors/lib.a(sed.o)
 .bss           0x00000000        0x0 editors/lib.a(sed.o)
 .note.GNU-stack
                0x00000000        0x0 editors/lib.a(sed.o)
 .text          0x00000000        0x0 editors/lib.a(vi.o)
 .data          0x00000000        0x0 editors/lib.a(vi.o)
 .bss           0x00000000        0x0 editors/lib.a(vi.o)
 .note.GNU-stack
                0x00000000        0x0 editors/lib.a(vi.o)
 .text          0x00000000        0x0 findutils/lib.a(find.o)
 .data          0x00000000        0x0 findutils/lib.a(find.o)
 .bss           0x00000000        0x0 findutils/lib.a(find.o)
 .note.GNU-stack
                0x00000000        0x0 findutils/lib.a(find.o)
 .text          0x00000000        0x0 findutils/lib.a(grep.o)
 .data          0x00000000        0x0 findutils/lib.a(grep.o)
 .bss           0x00000000        0x0 findutils/lib.a(grep.o)
 .note.GNU-stack
                0x00000000        0x0 findutils/lib.a(grep.o)
 .text          0x00000000        0x0 findutils/lib.a(xargs.o)
 .data          0x00000000        0x0 findutils/lib.a(xargs.o)
 .bss           0x00000000        0x0 findutils/lib.a(xargs.o)
 .note.GNU-stack
                0x00000000        0x0 findutils/lib.a(xargs.o)
 .text          0x00000000        0x0 init/lib.a(halt.o)
 .data          0x00000000        0x0 init/lib.a(halt.o)
 .bss           0x00000000        0x0 init/lib.a(halt.o)
 .note.GNU-stack
                0x00000000        0x0 init/lib.a(halt.o)
 .text          0x00000000        0x0 init/lib.a(init.o)
 .data          0x00000000        0x0 init/lib.a(init.o)
 .bss           0x00000000        0x0 init/lib.a(init.o)
 .note.GNU-stack
                0x00000000        0x0 init/lib.a(init.o)
 .text          0x00000000        0x0 init/lib.a(mesg.o)
 .data          0x00000000        0x0 init/lib.a(mesg.o)
 .bss           0x00000000        0x0 init/lib.a(mesg.o)
 .note.GNU-stack
                0x00000000        0x0 init/lib.a(mesg.o)
 .text          0x00000000        0x0 libbb/lib.a(ask_confirmation.o)
 .data          0x00000000        0x0 libbb/lib.a(ask_confirmation.o)
 .bss           0x00000000        0x0 libbb/lib.a(ask_confirmation.o)
 .note.GNU-stack
                0x00000000        0x0 libbb/lib.a(ask_confirmation.o)
 .text          0x00000000        0x0 libbb/lib.a(bb_askpass.o)
 .data          0x00000000        0x0 libbb/lib.a(bb_askpass.o)
 .bss           0x00000000        0x0 libbb/lib.a(bb_askpass.o)
 .note.GNU-stack
                0x00000000        0x0 libbb/lib.a(bb_askpass.o)
 .text          0x00000000        0x0 libbb/lib.a(bb_bswap_64.o)
 .data          0x00000000        0x0 libbb/lib.a(bb_bswap_64.o)
 .bss           0x00000000        0x0 libbb/lib.a(bb_bswap_64.o)
 .note.GNU-stack
                0x00000000        0x0 libbb/lib.a(bb_bswap_64.o)
 .text          0x00000000        0x0 libbb/lib.a(bb_do_delay.o)
 .data          0x00000000        0x0 libbb/lib.a(bb_do_delay.o)
 .bss           0x00000000        0x0 libbb/lib.a(bb_do_delay.o)
 .note.GNU-stack
                0x00000000        0x0 libbb/lib.a(bb_do_delay.o)
 .text          0x00000000        0x0 libbb/lib.a(bb_pwd.o)
 .data          0x00000000        0x0 libbb/lib.a(bb_pwd.o)
 .bss           0x00000000        0x0 libbb/lib.a(bb_pwd.o)
 .text.xgetgrgid
                0x00000000       0x28 libbb/lib.a(bb_pwd.o)
 .text.xgid2group
                0x00000000       0x14 libbb/lib.a(bb_pwd.o)
 .note.GNU-stack
                0x00000000        0x0 libbb/lib.a(bb_pwd.o)
 .text          0x00000000        0x0 libbb/lib.a(bb_qsort.o)
 .data          0x00000000        0x0 libbb/lib.a(bb_qsort.o)
 .bss           0x00000000        0x0 libbb/lib.a(bb_qsort.o)
 .note.GNU-stack
                0x00000000        0x0 libbb/lib.a(bb_qsort.o)
 .text          0x00000000        0x0 libbb/lib.a(change_identity.o)
 .data          0x00000000        0x0 libbb/lib.a(change_identity.o)
 .bss           0x00000000        0x0 libbb/lib.a(change_identity.o)
 .note.GNU-stack
                0x00000000        0x0 libbb/lib.a(change_identity.o)
 .text          0x00000000        0x0 libbb/lib.a(compare_string_array.o)
 .data          0x00000000        0x0 libbb/lib.a(compare_string_array.o)
 .bss           0x00000000        0x0 libbb/lib.a(compare_string_array.o)
 .text.index_in_str_array
                0x00000000       0x44 libbb/lib.a(compare_string_array.o)
 .note.GNU-stack
                0x00000000        0x0 libbb/lib.a(compare_string_array.o)
 .text          0x00000000        0x0 libbb/lib.a(concat_path_file.o)
 .data          0x00000000        0x0 libbb/lib.a(concat_path_file.o)
 .bss           0x00000000        0x0 libbb/lib.a(concat_path_file.o)
 .note.GNU-stack
                0x00000000        0x0 libbb/lib.a(concat_path_file.o)
 .text          0x00000000        0x0 libbb/lib.a(concat_subpath_file.o)
 .data          0x00000000        0x0 libbb/lib.a(concat_subpath_file.o)
 .bss           0x00000000        0x0 libbb/lib.a(concat_subpath_file.o)
 .note.GNU-stack
                0x00000000        0x0 libbb/lib.a(concat_subpath_file.o)
 .text          0x00000000        0x0 libbb/lib.a(copy_file.o)
 .data          0x00000000        0x0 libbb/lib.a(copy_file.o)
 .bss           0x00000000        0x0 libbb/lib.a(copy_file.o)
 .note.GNU-stack
                0x00000000        0x0 libbb/lib.a(copy_file.o)
 .text          0x00000000        0x0 libbb/lib.a(correct_password.o)
 .data          0x00000000        0x0 libbb/lib.a(correct_password.o)
 .bss           0x00000000        0x0 libbb/lib.a(correct_password.o)
 .note.GNU-stack
                0x00000000        0x0 libbb/lib.a(correct_password.o)
 .text          0x00000000        0x0 libbb/lib.a(crc32.o)
 .data          0x00000000        0x0 libbb/lib.a(crc32.o)
 .bss           0x00000000        0x0 libbb/lib.a(crc32.o)
 .text.crc32_block_endian1
                0x00000000       0x24 libbb/lib.a(crc32.o)
 .note.GNU-stack
                0x00000000        0x0 libbb/lib.a(crc32.o)
 .text          0x00000000        0x0 libbb/lib.a(device_open.o)
 .data          0x00000000        0x0 libbb/lib.a(device_open.o)
 .bss           0x00000000        0x0 libbb/lib.a(device_open.o)
 .note.GNU-stack
                0x00000000        0x0 libbb/lib.a(device_open.o)
 .text          0x00000000        0x0 libbb/lib.a(dump.o)
 .data          0x00000000        0x0 libbb/lib.a(dump.o)
 .bss           0x00000000        0x0 libbb/lib.a(dump.o)
 .note.GNU-stack
                0x00000000        0x0 libbb/lib.a(dump.o)
 .text          0x00000000        0x0 libbb/lib.a(endofname.o)
 .data          0x00000000        0x0 libbb/lib.a(endofname.o)
 .bss           0x00000000        0x0 libbb/lib.a(endofname.o)
 .note.GNU-stack
                0x00000000        0x0 libbb/lib.a(endofname.o)
 .text          0x00000000        0x0 libbb/lib.a(execable.o)
 .data          0x00000000        0x0 libbb/lib.a(execable.o)
 .bss           0x00000000        0x0 libbb/lib.a(execable.o)
 .note.GNU-stack
                0x00000000        0x0 libbb/lib.a(execable.o)
 .text          0x00000000        0x0 libbb/lib.a(fclose_nonstdin.o)
 .data          0x00000000        0x0 libbb/lib.a(fclose_nonstdin.o)
 .bss           0x00000000        0x0 libbb/lib.a(fclose_nonstdin.o)
 .note.GNU-stack
                0x00000000        0x0 libbb/lib.a(fclose_nonstdin.o)
 .text          0x00000000        0x0 libbb/lib.a(fflush_stdout_and_exit.o)
 .data          0x00000000        0x0 libbb/lib.a(fflush_stdout_and_exit.o)
 .bss           0x00000000        0x0 libbb/lib.a(fflush_stdout_and_exit.o)
 .note.GNU-stack
                0x00000000        0x0 libbb/lib.a(fflush_stdout_and_exit.o)
 .text          0x00000000        0x0 libbb/lib.a(fgets_str.o)
 .data          0x00000000        0x0 libbb/lib.a(fgets_str.o)
 .bss           0x00000000        0x0 libbb/lib.a(fgets_str.o)
 .text.xmalloc_fgetline_str
                0x00000000       0x24 libbb/lib.a(fgets_str.o)
 .note.GNU-stack
                0x00000000        0x0 libbb/lib.a(fgets_str.o)
 .text          0x00000000        0x0 libbb/lib.a(find_mount_point.o)
 .data          0x00000000        0x0 libbb/lib.a(find_mount_point.o)
 .bss           0x00000000        0x0 libbb/lib.a(find_mount_point.o)
 .note.GNU-stack
                0x00000000        0x0 libbb/lib.a(find_mount_point.o)
 .text          0x00000000        0x0 libbb/lib.a(find_pid_by_name.o)
 .data          0x00000000        0x0 libbb/lib.a(find_pid_by_name.o)
 .bss           0x00000000        0x0 libbb/lib.a(find_pid_by_name.o)
 .note.GNU-stack
                0x00000000        0x0 libbb/lib.a(find_pid_by_name.o)
 .text          0x00000000        0x0 libbb/lib.a(find_root_device.o)
 .data          0x00000000        0x0 libbb/lib.a(find_root_device.o)
 .bss           0x00000000        0x0 libbb/lib.a(find_root_device.o)
 .note.GNU-stack
                0x00000000        0x0 libbb/lib.a(find_root_device.o)
 .text          0x00000000        0x0 libbb/lib.a(get_cpu_count.o)
 .data          0x00000000        0x0 libbb/lib.a(get_cpu_count.o)
 .bss           0x00000000        0x0 libbb/lib.a(get_cpu_count.o)
 .note.GNU-stack
                0x00000000        0x0 libbb/lib.a(get_cpu_count.o)
 .text          0x00000000        0x0 libbb/lib.a(get_line_from_file.o)
 .data          0x00000000        0x0 libbb/lib.a(get_line_from_file.o)
 .bss           0x00000000        0x0 libbb/lib.a(get_line_from_file.o)
 .note.GNU-stack
                0x00000000        0x0 libbb/lib.a(get_line_from_file.o)
 .text          0x00000000        0x0 libbb/lib.a(get_shell_name.o)
 .data          0x00000000        0x0 libbb/lib.a(get_shell_name.o)
 .bss           0x00000000        0x0 libbb/lib.a(get_shell_name.o)
 .note.GNU-stack
                0x00000000        0x0 libbb/lib.a(get_shell_name.o)
 .text          0x00000000        0x0 libbb/lib.a(get_volsize.o)
 .data          0x00000000        0x0 libbb/lib.a(get_volsize.o)
 .bss           0x00000000        0x0 libbb/lib.a(get_volsize.o)
 .note.GNU-stack
                0x00000000        0x0 libbb/lib.a(get_volsize.o)
 .text          0x00000000        0x0 libbb/lib.a(getopt32.o)
 .data          0x00000000        0x0 libbb/lib.a(getopt32.o)
 .bss           0x00000000        0x0 libbb/lib.a(getopt32.o)
 .note.GNU-stack
                0x00000000        0x0 libbb/lib.a(getopt32.o)
 .text          0x00000000        0x0 libbb/lib.a(getpty.o)
 .data          0x00000000        0x0 libbb/lib.a(getpty.o)
 .bss           0x00000000        0x0 libbb/lib.a(getpty.o)
 .note.GNU-stack
                0x00000000        0x0 libbb/lib.a(getpty.o)
 .text          0x00000000        0x0 libbb/lib.a(hash_md5_sha.o)
 .data          0x00000000        0x0 libbb/lib.a(hash_md5_sha.o)
 .bss           0x00000000        0x0 libbb/lib.a(hash_md5_sha.o)
 .text.sha512_process_block128
                0x00000000      0x540 libbb/lib.a(hash_md5_sha.o)
 .text.sha1_process_block64
                0x00000000      0x1d0 libbb/lib.a(hash_md5_sha.o)
 .text.sha256_process_block64
                0x00000000      0x1fc libbb/lib.a(hash_md5_sha.o)
 .text.sha1_begin
                0x00000000       0x64 libbb/lib.a(hash_md5_sha.o)
 .text.sha256_begin
                0x00000000       0x40 libbb/lib.a(hash_md5_sha.o)
 .text.sha512_begin
                0x00000000       0x44 libbb/lib.a(hash_md5_sha.o)
 .text.sha512_hash
                0x00000000       0x9c libbb/lib.a(hash_md5_sha.o)
 .text.sha1_end
                0x00000000       0x7c libbb/lib.a(hash_md5_sha.o)
 .text.sha512_end
                0x00000000      0x100 libbb/lib.a(hash_md5_sha.o)
 .rodata.init256
                0x00000000       0x28 libbb/lib.a(hash_md5_sha.o)
 .rodata.rconsts.7076
                0x00000000       0x10 libbb/lib.a(hash_md5_sha.o)
 .rodata.init512_lo
                0x00000000       0x28 libbb/lib.a(hash_md5_sha.o)
 .rodata.sha_K  0x00000000      0x280 libbb/lib.a(hash_md5_sha.o)
 .note.GNU-stack
                0x00000000        0x0 libbb/lib.a(hash_md5_sha.o)
 .text          0x00000000        0x0 libbb/lib.a(herror_msg.o)
 .data          0x00000000        0x0 libbb/lib.a(herror_msg.o)
 .bss           0x00000000        0x0 libbb/lib.a(herror_msg.o)
 .note.GNU-stack
                0x00000000        0x0 libbb/lib.a(herror_msg.o)
 .text          0x00000000        0x0 libbb/lib.a(human_readable.o)
 .data          0x00000000        0x0 libbb/lib.a(human_readable.o)
 .bss           0x00000000        0x0 libbb/lib.a(human_readable.o)
 .text.smart_ulltoa4
                0x00000000      0x194 libbb/lib.a(human_readable.o)
 .note.GNU-stack
                0x00000000        0x0 libbb/lib.a(human_readable.o)
 .text          0x00000000        0x0 libbb/lib.a(in_ether.o)
 .data          0x00000000        0x0 libbb/lib.a(in_ether.o)
 .bss           0x00000000        0x0 libbb/lib.a(in_ether.o)
 .note.GNU-stack
                0x00000000        0x0 libbb/lib.a(in_ether.o)
 .text          0x00000000        0x0 libbb/lib.a(inet_cksum.o)
 .data          0x00000000        0x0 libbb/lib.a(inet_cksum.o)
 .bss           0x00000000        0x0 libbb/lib.a(inet_cksum.o)
 .note.GNU-stack
                0x00000000        0x0 libbb/lib.a(inet_cksum.o)
 .text          0x00000000        0x0 libbb/lib.a(inet_common.o)
 .data          0x00000000        0x0 libbb/lib.a(inet_common.o)
 .bss           0x00000000        0x0 libbb/lib.a(inet_common.o)
 .note.GNU-stack
                0x00000000        0x0 libbb/lib.a(inet_common.o)
 .text          0x00000000        0x0 libbb/lib.a(info_msg.o)
 .data          0x00000000        0x0 libbb/lib.a(info_msg.o)
 .bss           0x00000000        0x0 libbb/lib.a(info_msg.o)
 .note.GNU-stack
                0x00000000        0x0 libbb/lib.a(info_msg.o)
 .text          0x00000000        0x0 libbb/lib.a(inode_hash.o)
 .data          0x00000000        0x0 libbb/lib.a(inode_hash.o)
 .bss           0x00000000        0x0 libbb/lib.a(inode_hash.o)
 .note.GNU-stack
                0x00000000        0x0 libbb/lib.a(inode_hash.o)
 .text          0x00000000        0x0 libbb/lib.a(isdirectory.o)
 .data          0x00000000        0x0 libbb/lib.a(isdirectory.o)
 .bss           0x00000000        0x0 libbb/lib.a(isdirectory.o)
 .note.GNU-stack
                0x00000000        0x0 libbb/lib.a(isdirectory.o)
 .text          0x00000000        0x0 libbb/lib.a(kernel_version.o)
 .data          0x00000000        0x0 libbb/lib.a(kernel_version.o)
 .bss           0x00000000        0x0 libbb/lib.a(kernel_version.o)
 .note.GNU-stack
                0x00000000        0x0 libbb/lib.a(kernel_version.o)
 .text          0x00000000        0x0 libbb/lib.a(lineedit.o)
 .data          0x00000000        0x0 libbb/lib.a(lineedit.o)
 .bss           0x00000000        0x0 libbb/lib.a(lineedit.o)
 .text.size_from_HISTFILESIZE
                0x00000000       0x30 libbb/lib.a(lineedit.o)
 .note.GNU-stack
                0x00000000        0x0 libbb/lib.a(lineedit.o)
 .text          0x00000000        0x0 libbb/lib.a(lineedit_ptr_hack.o)
 .data          0x00000000        0x0 libbb/lib.a(lineedit_ptr_hack.o)
 .bss           0x00000000        0x0 libbb/lib.a(lineedit_ptr_hack.o)
 .note.GNU-stack
                0x00000000        0x0 libbb/lib.a(lineedit_ptr_hack.o)
 .text          0x00000000        0x0 libbb/lib.a(llist.o)
 .data          0x00000000        0x0 libbb/lib.a(llist.o)
 .bss           0x00000000        0x0 libbb/lib.a(llist.o)
 .note.GNU-stack
                0x00000000        0x0 libbb/lib.a(llist.o)
 .text          0x00000000        0x0 libbb/lib.a(login.o)
 .data          0x00000000        0x0 libbb/lib.a(login.o)
 .bss           0x00000000        0x0 libbb/lib.a(login.o)
 .note.GNU-stack
                0x00000000        0x0 libbb/lib.a(login.o)
 .text          0x00000000        0x0 libbb/lib.a(loop.o)
 .data          0x00000000        0x0 libbb/lib.a(loop.o)
 .bss           0x00000000        0x0 libbb/lib.a(loop.o)
 .text.query_loop
                0x00000000       0x70 libbb/lib.a(loop.o)
 .note.GNU-stack
                0x00000000        0x0 libbb/lib.a(loop.o)
 .text          0x00000000        0x0 libbb/lib.a(make_directory.o)
 .data          0x00000000        0x0 libbb/lib.a(make_directory.o)
 .bss           0x00000000        0x0 libbb/lib.a(make_directory.o)
 .note.GNU-stack
                0x00000000        0x0 libbb/lib.a(make_directory.o)
 .text          0x00000000        0x0 libbb/lib.a(makedev.o)
 .data          0x00000000        0x0 libbb/lib.a(makedev.o)
 .bss           0x00000000        0x0 libbb/lib.a(makedev.o)
 .note.GNU-stack
                0x00000000        0x0 libbb/lib.a(makedev.o)
 .text          0x00000000        0x0 libbb/lib.a(match_fstype.o)
 .data          0x00000000        0x0 libbb/lib.a(match_fstype.o)
 .bss           0x00000000        0x0 libbb/lib.a(match_fstype.o)
 .note.GNU-stack
                0x00000000        0x0 libbb/lib.a(match_fstype.o)
 .text          0x00000000        0x0 libbb/lib.a(mode_string.o)
 .data          0x00000000        0x0 libbb/lib.a(mode_string.o)
 .bss           0x00000000        0x0 libbb/lib.a(mode_string.o)
 .note.GNU-stack
                0x00000000        0x0 libbb/lib.a(mode_string.o)
 .text          0x00000000        0x0 libbb/lib.a(nuke_str.o)
 .data          0x00000000        0x0 libbb/lib.a(nuke_str.o)
 .bss           0x00000000        0x0 libbb/lib.a(nuke_str.o)
 .note.GNU-stack
                0x00000000        0x0 libbb/lib.a(nuke_str.o)
 .text          0x00000000        0x0 libbb/lib.a(obscure.o)
 .data          0x00000000        0x0 libbb/lib.a(obscure.o)
 .bss           0x00000000        0x0 libbb/lib.a(obscure.o)
 .note.GNU-stack
                0x00000000        0x0 libbb/lib.a(obscure.o)
 .text          0x00000000        0x0 libbb/lib.a(parse_config.o)
 .data          0x00000000        0x0 libbb/lib.a(parse_config.o)
 .bss           0x00000000        0x0 libbb/lib.a(parse_config.o)
 .note.GNU-stack
                0x00000000        0x0 libbb/lib.a(parse_config.o)
 .text          0x00000000        0x0 libbb/lib.a(parse_mode.o)
 .data          0x00000000        0x0 libbb/lib.a(parse_mode.o)
 .bss           0x00000000        0x0 libbb/lib.a(parse_mode.o)
 .note.GNU-stack
                0x00000000        0x0 libbb/lib.a(parse_mode.o)
 .text          0x00000000        0x0 libbb/lib.a(percent_decode.o)
 .data          0x00000000        0x0 libbb/lib.a(percent_decode.o)
 .bss           0x00000000        0x0 libbb/lib.a(percent_decode.o)
 .note.GNU-stack
                0x00000000        0x0 libbb/lib.a(percent_decode.o)
 .text          0x00000000        0x0 libbb/lib.a(perror_nomsg_and_die.o)
 .data          0x00000000        0x0 libbb/lib.a(perror_nomsg_and_die.o)
 .bss           0x00000000        0x0 libbb/lib.a(perror_nomsg_and_die.o)
 .note.GNU-stack
                0x00000000        0x0 libbb/lib.a(perror_nomsg_and_die.o)
 .text          0x00000000        0x0 libbb/lib.a(pidfile.o)
 .data          0x00000000        0x0 libbb/lib.a(pidfile.o)
 .bss           0x00000000        0x0 libbb/lib.a(pidfile.o)
 .note.GNU-stack
                0x00000000        0x0 libbb/lib.a(pidfile.o)
 .text          0x00000000        0x0 libbb/lib.a(print_flags.o)
 .data          0x00000000        0x0 libbb/lib.a(print_flags.o)
 .bss           0x00000000        0x0 libbb/lib.a(print_flags.o)
 .note.GNU-stack
                0x00000000        0x0 libbb/lib.a(print_flags.o)
 .text          0x00000000        0x0 libbb/lib.a(printable.o)
 .data          0x00000000        0x0 libbb/lib.a(printable.o)
 .bss           0x00000000        0x0 libbb/lib.a(printable.o)
 .note.GNU-stack
                0x00000000        0x0 libbb/lib.a(printable.o)
 .text          0x00000000        0x0 libbb/lib.a(printable_string.o)
 .data          0x00000000        0x0 libbb/lib.a(printable_string.o)
 .bss           0x00000000        0x0 libbb/lib.a(printable_string.o)
 .note.GNU-stack
                0x00000000        0x0 libbb/lib.a(printable_string.o)
 .text          0x00000000        0x0 libbb/lib.a(process_escape_sequence.o)
 .data          0x00000000        0x0 libbb/lib.a(process_escape_sequence.o)
 .bss           0x00000000        0x0 libbb/lib.a(process_escape_sequence.o)
 .note.GNU-stack
                0x00000000        0x0 libbb/lib.a(process_escape_sequence.o)
 .text          0x00000000        0x0 libbb/lib.a(procps.o)
 .data          0x00000000        0x0 libbb/lib.a(procps.o)
 .bss           0x00000000        0x0 libbb/lib.a(procps.o)
 .note.GNU-stack
                0x00000000        0x0 libbb/lib.a(procps.o)
 .text          0x00000000        0x0 libbb/lib.a(progress.o)
 .data          0x00000000        0x0 libbb/lib.a(progress.o)
 .bss           0x00000000        0x0 libbb/lib.a(progress.o)
 .note.GNU-stack
                0x00000000        0x0 libbb/lib.a(progress.o)
 .text          0x00000000        0x0 libbb/lib.a(pw_encrypt.o)
 .data          0x00000000        0x0 libbb/lib.a(pw_encrypt.o)
 .bss           0x00000000        0x0 libbb/lib.a(pw_encrypt.o)
 .note.GNU-stack
                0x00000000        0x0 libbb/lib.a(pw_encrypt.o)
 .text          0x00000000        0x0 libbb/lib.a(read_key.o)
 .data          0x00000000        0x0 libbb/lib.a(read_key.o)
 .bss           0x00000000        0x0 libbb/lib.a(read_key.o)
 .text.read_key_ungets
                0x00000000       0x3c libbb/lib.a(read_key.o)
 .note.GNU-stack
                0x00000000        0x0 libbb/lib.a(read_key.o)
 .text          0x00000000        0x0 libbb/lib.a(read_printf.o)
 .data          0x00000000        0x0 libbb/lib.a(read_printf.o)
 .bss           0x00000000        0x0 libbb/lib.a(read_printf.o)
 .text.xmalloc_reads
                0x00000000       0xc8 libbb/lib.a(read_printf.o)
 .text.xread_char
                0x00000000       0x1c libbb/lib.a(read_printf.o)
 .text.xmalloc_xopen_read_close
                0x00000000       0x28 libbb/lib.a(read_printf.o)
 .note.GNU-stack
                0x00000000        0x0 libbb/lib.a(read_printf.o)
 .text          0x00000000        0x0 libbb/lib.a(recursive_action.o)
 .data          0x00000000        0x0 libbb/lib.a(recursive_action.o)
 .bss           0x00000000        0x0 libbb/lib.a(recursive_action.o)
 .note.GNU-stack
                0x00000000        0x0 libbb/lib.a(recursive_action.o)
 .text          0x00000000        0x0 libbb/lib.a(remove_file.o)
 .data          0x00000000        0x0 libbb/lib.a(remove_file.o)
 .bss           0x00000000        0x0 libbb/lib.a(remove_file.o)
 .note.GNU-stack
                0x00000000        0x0 libbb/lib.a(remove_file.o)
 .text          0x00000000        0x0 libbb/lib.a(rtc.o)
 .data          0x00000000        0x0 libbb/lib.a(rtc.o)
 .bss           0x00000000        0x0 libbb/lib.a(rtc.o)
 .note.GNU-stack
                0x00000000        0x0 libbb/lib.a(rtc.o)
 .text          0x00000000        0x0 libbb/lib.a(run_shell.o)
 .data          0x00000000        0x0 libbb/lib.a(run_shell.o)
 .bss           0x00000000        0x0 libbb/lib.a(run_shell.o)
 .note.GNU-stack
                0x00000000        0x0 libbb/lib.a(run_shell.o)
 .text          0x00000000        0x0 libbb/lib.a(safe_gethostname.o)
 .data          0x00000000        0x0 libbb/lib.a(safe_gethostname.o)
 .bss           0x00000000        0x0 libbb/lib.a(safe_gethostname.o)
 .note.GNU-stack
                0x00000000        0x0 libbb/lib.a(safe_gethostname.o)
 .text          0x00000000        0x0 libbb/lib.a(safe_poll.o)
 .data          0x00000000        0x0 libbb/lib.a(safe_poll.o)
 .bss           0x00000000        0x0 libbb/lib.a(safe_poll.o)
 .note.GNU-stack
                0x00000000        0x0 libbb/lib.a(safe_poll.o)
 .text          0x00000000        0x0 libbb/lib.a(safe_strncpy.o)
 .data          0x00000000        0x0 libbb/lib.a(safe_strncpy.o)
 .bss           0x00000000        0x0 libbb/lib.a(safe_strncpy.o)
 .note.GNU-stack
                0x00000000        0x0 libbb/lib.a(safe_strncpy.o)
 .text          0x00000000        0x0 libbb/lib.a(setup_environment.o)
 .data          0x00000000        0x0 libbb/lib.a(setup_environment.o)
 .bss           0x00000000        0x0 libbb/lib.a(setup_environment.o)
 .note.GNU-stack
                0x00000000        0x0 libbb/lib.a(setup_environment.o)
 .text          0x00000000        0x0 libbb/lib.a(signals.o)
 .data          0x00000000        0x0 libbb/lib.a(signals.o)
 .bss           0x00000000        0x0 libbb/lib.a(signals.o)
 .note.GNU-stack
                0x00000000        0x0 libbb/lib.a(signals.o)
 .text          0x00000000        0x0 libbb/lib.a(simplify_path.o)
 .data          0x00000000        0x0 libbb/lib.a(simplify_path.o)
 .bss           0x00000000        0x0 libbb/lib.a(simplify_path.o)
 .note.GNU-stack
                0x00000000        0x0 libbb/lib.a(simplify_path.o)
 .text          0x00000000        0x0 libbb/lib.a(single_argv.o)
 .data          0x00000000        0x0 libbb/lib.a(single_argv.o)
 .bss           0x00000000        0x0 libbb/lib.a(single_argv.o)
 .note.GNU-stack
                0x00000000        0x0 libbb/lib.a(single_argv.o)
 .text          0x00000000        0x0 libbb/lib.a(skip_whitespace.o)
 .data          0x00000000        0x0 libbb/lib.a(skip_whitespace.o)
 .bss           0x00000000        0x0 libbb/lib.a(skip_whitespace.o)
 .note.GNU-stack
                0x00000000        0x0 libbb/lib.a(skip_whitespace.o)
 .text          0x00000000        0x0 libbb/lib.a(speed_table.o)
 .data          0x00000000        0x0 libbb/lib.a(speed_table.o)
 .bss           0x00000000        0x0 libbb/lib.a(speed_table.o)
 .note.GNU-stack
                0x00000000        0x0 libbb/lib.a(speed_table.o)
 .text          0x00000000        0x0 libbb/lib.a(str_tolower.o)
 .data          0x00000000        0x0 libbb/lib.a(str_tolower.o)
 .bss           0x00000000        0x0 libbb/lib.a(str_tolower.o)
 .note.GNU-stack
                0x00000000        0x0 libbb/lib.a(str_tolower.o)
 .text          0x00000000        0x0 libbb/lib.a(strrstr.o)
 .data          0x00000000        0x0 libbb/lib.a(strrstr.o)
 .bss           0x00000000        0x0 libbb/lib.a(strrstr.o)
 .note.GNU-stack
                0x00000000        0x0 libbb/lib.a(strrstr.o)
 .text          0x00000000        0x0 libbb/lib.a(systemd_support.o)
 .data          0x00000000        0x0 libbb/lib.a(systemd_support.o)
 .bss           0x00000000        0x0 libbb/lib.a(systemd_support.o)
 .note.GNU-stack
                0x00000000        0x0 libbb/lib.a(systemd_support.o)
 .text          0x00000000        0x0 libbb/lib.a(u_signal_names.o)
 .data          0x00000000        0x0 libbb/lib.a(u_signal_names.o)
 .bss           0x00000000        0x0 libbb/lib.a(u_signal_names.o)
 .note.GNU-stack
                0x00000000        0x0 libbb/lib.a(u_signal_names.o)
 .text          0x00000000        0x0 libbb/lib.a(udp_io.o)
 .data          0x00000000        0x0 libbb/lib.a(udp_io.o)
 .bss           0x00000000        0x0 libbb/lib.a(udp_io.o)
 .text.send_to_from
                0x00000000      0x11c libbb/lib.a(udp_io.o)
 .note.GNU-stack
                0x00000000        0x0 libbb/lib.a(udp_io.o)
 .text          0x00000000        0x0 libbb/lib.a(update_passwd.o)
 .data          0x00000000        0x0 libbb/lib.a(update_passwd.o)
 .bss           0x00000000        0x0 libbb/lib.a(update_passwd.o)
 .note.GNU-stack
                0x00000000        0x0 libbb/lib.a(update_passwd.o)
 .text          0x00000000        0x0 libbb/lib.a(uuencode.o)
 .data          0x00000000        0x0 libbb/lib.a(uuencode.o)
 .bss           0x00000000        0x0 libbb/lib.a(uuencode.o)
 .rodata.bb_uuenc_tbl_std
                0x00000000       0x41 libbb/lib.a(uuencode.o)
 .note.GNU-stack
                0x00000000        0x0 libbb/lib.a(uuencode.o)
 .text          0x00000000        0x0 libbb/lib.a(vfork_daemon_rexec.o)
 .data          0x00000000        0x0 libbb/lib.a(vfork_daemon_rexec.o)
 .bss           0x00000000        0x0 libbb/lib.a(vfork_daemon_rexec.o)
 .text.xspawn   0x00000000       0x20 libbb/lib.a(vfork_daemon_rexec.o)
 .note.GNU-stack
                0x00000000        0x0 libbb/lib.a(vfork_daemon_rexec.o)
 .text          0x00000000        0x0 libbb/lib.a(wfopen.o)
 .data          0x00000000        0x0 libbb/lib.a(wfopen.o)
 .bss           0x00000000        0x0 libbb/lib.a(wfopen.o)
 .note.GNU-stack
                0x00000000        0x0 libbb/lib.a(wfopen.o)
 .text          0x00000000        0x0 libbb/lib.a(wfopen_input.o)
 .data          0x00000000        0x0 libbb/lib.a(wfopen_input.o)
 .bss           0x00000000        0x0 libbb/lib.a(wfopen_input.o)
 .text.xopen_stdin
                0x00000000       0x1c libbb/lib.a(wfopen_input.o)
 .note.GNU-stack
                0x00000000        0x0 libbb/lib.a(wfopen_input.o)
 .text          0x00000000        0x0 libbb/lib.a(xatonum.o)
 .data          0x00000000        0x0 libbb/lib.a(xatonum.o)
 .bss           0x00000000        0x0 libbb/lib.a(xatonum.o)
 .text.xstrtoull_sfx
                0x00000000       0x2c libbb/lib.a(xatonum.o)
 .text.xstrtoull
                0x00000000       0x30 libbb/lib.a(xatonum.o)
 .text.xatoull_range_sfx
                0x00000000        0x8 libbb/lib.a(xatonum.o)
 .text.xatoull  0x00000000        0x8 libbb/lib.a(xatonum.o)
 .text.xstrtoll_range_sfx
                0x00000000       0xd0 libbb/lib.a(xatonum.o)
 .text.xstrtoll_range
                0x00000000       0x2c libbb/lib.a(xatonum.o)
 .text.xstrtoll
                0x00000000       0x30 libbb/lib.a(xatonum.o)
 .text.xatoll_range_sfx
                0x00000000        0x8 libbb/lib.a(xatonum.o)
 .text.xatoll_range
                0x00000000       0x30 libbb/lib.a(xatonum.o)
 .text.xatoll_sfx
                0x00000000       0x30 libbb/lib.a(xatonum.o)
 .text.xatoll   0x00000000       0x34 libbb/lib.a(xatonum.o)
 .text.xstrtoul_sfx
                0x00000000       0x1c libbb/lib.a(xatonum.o)
 .text.xstrtol_range
                0x00000000       0x18 libbb/lib.a(xatonum.o)
 .text.xstrtol  0x00000000       0x20 libbb/lib.a(xatonum.o)
 .text.xatol_range_sfx
                0x00000000       0x28 libbb/lib.a(xatonum.o)
 .text.xatol_sfx
                0x00000000       0x20 libbb/lib.a(xatonum.o)
 .note.GNU-stack
                0x00000000        0x0 libbb/lib.a(xatonum.o)
 .text          0x00000000        0x0 libbb/lib.a(xconnect.o)
 .data          0x00000000        0x0 libbb/lib.a(xconnect.o)
 .bss           0x00000000        0x0 libbb/lib.a(xconnect.o)
 .text.xsocket_stream
                0x00000000        0xc libbb/lib.a(xconnect.o)
 .text.create_and_bind_dgram_or_die
                0x00000000        0x8 libbb/lib.a(xconnect.o)
 .text.xmalloc_sockaddr2host
                0x00000000        0x8 libbb/lib.a(xconnect.o)
 .note.GNU-stack
                0x00000000        0x0 libbb/lib.a(xconnect.o)
 .text          0x00000000        0x0 libbb/lib.a(xgetcwd.o)
 .data          0x00000000        0x0 libbb/lib.a(xgetcwd.o)
 .bss           0x00000000        0x0 libbb/lib.a(xgetcwd.o)
 .note.GNU-stack
                0x00000000        0x0 libbb/lib.a(xgetcwd.o)
 .text          0x00000000        0x0 libbb/lib.a(xgethostbyname.o)
 .data          0x00000000        0x0 libbb/lib.a(xgethostbyname.o)
 .bss           0x00000000        0x0 libbb/lib.a(xgethostbyname.o)
 .note.GNU-stack
                0x00000000        0x0 libbb/lib.a(xgethostbyname.o)
 .text          0x00000000        0x0 libbb/lib.a(xreadlink.o)
 .data          0x00000000        0x0 libbb/lib.a(xreadlink.o)
 .bss           0x00000000        0x0 libbb/lib.a(xreadlink.o)
 .note.GNU-stack
                0x00000000        0x0 libbb/lib.a(xreadlink.o)
 .text          0x00000000        0x0 libbb/lib.a(xrealloc_vector.o)
 .data          0x00000000        0x0 libbb/lib.a(xrealloc_vector.o)
 .bss           0x00000000        0x0 libbb/lib.a(xrealloc_vector.o)
 .note.GNU-stack
                0x00000000        0x0 libbb/lib.a(xrealloc_vector.o)
 .text          0x00000000        0x0 libbb/lib.a(xregcomp.o)
 .data          0x00000000        0x0 libbb/lib.a(xregcomp.o)
 .bss           0x00000000        0x0 libbb/lib.a(xregcomp.o)
 .note.GNU-stack
                0x00000000        0x0 libbb/lib.a(xregcomp.o)
 .text          0x00000000        0x0 libbb/lib.a(perror_nomsg.o)
 .data          0x00000000        0x0 libbb/lib.a(perror_nomsg.o)
 .bss           0x00000000        0x0 libbb/lib.a(perror_nomsg.o)
 .note.GNU-stack
                0x00000000        0x0 libbb/lib.a(perror_nomsg.o)
 .text          0x00000000        0x0 libpwdgrp/lib.a(uidgid_get.o)
 .data          0x00000000        0x0 libpwdgrp/lib.a(uidgid_get.o)
 .bss           0x00000000        0x0 libpwdgrp/lib.a(uidgid_get.o)
 .note.GNU-stack
                0x00000000        0x0 libpwdgrp/lib.a(uidgid_get.o)
 .data          0x00000000        0x0 /opt/Cortina/toolchain/toolchain-arm_gcc-4.5.1+l_uClibc-0.9.32_eabi/bin/../lib/gcc/arm-openwrt-linux-uclibcgnueabi/4.5.2/libgcc.a(_udivsi3.o)
 .bss           0x00000000        0x0 /opt/Cortina/toolchain/toolchain-arm_gcc-4.5.1+l_uClibc-0.9.32_eabi/bin/../lib/gcc/arm-openwrt-linux-uclibcgnueabi/4.5.2/libgcc.a(_udivsi3.o)
 .note.GNU-stack
                0x00000000        0x0 /opt/Cortina/toolchain/toolchain-arm_gcc-4.5.1+l_uClibc-0.9.32_eabi/bin/../lib/gcc/arm-openwrt-linux-uclibcgnueabi/4.5.2/libgcc.a(_udivsi3.o)
 .data          0x00000000        0x0 /opt/Cortina/toolchain/toolchain-arm_gcc-4.5.1+l_uClibc-0.9.32_eabi/bin/../lib/gcc/arm-openwrt-linux-uclibcgnueabi/4.5.2/libgcc.a(_divsi3.o)
 .bss           0x00000000        0x0 /opt/Cortina/toolchain/toolchain-arm_gcc-4.5.1+l_uClibc-0.9.32_eabi/bin/../lib/gcc/arm-openwrt-linux-uclibcgnueabi/4.5.2/libgcc.a(_divsi3.o)
 .note.GNU-stack
                0x00000000        0x0 /opt/Cortina/toolchain/toolchain-arm_gcc-4.5.1+l_uClibc-0.9.32_eabi/bin/../lib/gcc/arm-openwrt-linux-uclibcgnueabi/4.5.2/libgcc.a(_divsi3.o)
 .data          0x00000000        0x0 /opt/Cortina/toolchain/toolchain-arm_gcc-4.5.1+l_uClibc-0.9.32_eabi/bin/../lib/gcc/arm-openwrt-linux-uclibcgnueabi/4.5.2/libgcc.a(_lshrdi3.o)
 .bss           0x00000000        0x0 /opt/Cortina/toolchain/toolchain-arm_gcc-4.5.1+l_uClibc-0.9.32_eabi/bin/../lib/gcc/arm-openwrt-linux-uclibcgnueabi/4.5.2/libgcc.a(_lshrdi3.o)
 .note.GNU-stack
                0x00000000        0x0 /opt/Cortina/toolchain/toolchain-arm_gcc-4.5.1+l_uClibc-0.9.32_eabi/bin/../lib/gcc/arm-openwrt-linux-uclibcgnueabi/4.5.2/libgcc.a(_lshrdi3.o)
 .data          0x00000000        0x0 /opt/Cortina/toolchain/toolchain-arm_gcc-4.5.1+l_uClibc-0.9.32_eabi/bin/../lib/gcc/arm-openwrt-linux-uclibcgnueabi/4.5.2/libgcc.a(_ashrdi3.o)
 .bss           0x00000000        0x0 /opt/Cortina/toolchain/toolchain-arm_gcc-4.5.1+l_uClibc-0.9.32_eabi/bin/../lib/gcc/arm-openwrt-linux-uclibcgnueabi/4.5.2/libgcc.a(_ashrdi3.o)
 .note.GNU-stack
                0x00000000        0x0 /opt/Cortina/toolchain/toolchain-arm_gcc-4.5.1+l_uClibc-0.9.32_eabi/bin/../lib/gcc/arm-openwrt-linux-uclibcgnueabi/4.5.2/libgcc.a(_ashrdi3.o)
 .data          0x00000000        0x0 /opt/Cortina/toolchain/toolchain-arm_gcc-4.5.1+l_uClibc-0.9.32_eabi/bin/../lib/gcc/arm-openwrt-linux-uclibcgnueabi/4.5.2/libgcc.a(_arm_addsubdf3.o)
 .bss           0x00000000        0x0 /opt/Cortina/toolchain/toolchain-arm_gcc-4.5.1+l_uClibc-0.9.32_eabi/bin/../lib/gcc/arm-openwrt-linux-uclibcgnueabi/4.5.2/libgcc.a(_arm_addsubdf3.o)
 .note.GNU-stack
                0x00000000        0x0 /opt/Cortina/toolchain/toolchain-arm_gcc-4.5.1+l_uClibc-0.9.32_eabi/bin/../lib/gcc/arm-openwrt-linux-uclibcgnueabi/4.5.2/libgcc.a(_arm_addsubdf3.o)
 .data          0x00000000        0x0 /opt/Cortina/toolchain/toolchain-arm_gcc-4.5.1+l_uClibc-0.9.32_eabi/bin/../lib/gcc/arm-openwrt-linux-uclibcgnueabi/4.5.2/libgcc.a(_arm_muldivdf3.o)
 .bss           0x00000000        0x0 /opt/Cortina/toolchain/toolchain-arm_gcc-4.5.1+l_uClibc-0.9.32_eabi/bin/../lib/gcc/arm-openwrt-linux-uclibcgnueabi/4.5.2/libgcc.a(_arm_muldivdf3.o)
 .note.GNU-stack
                0x00000000        0x0 /opt/Cortina/toolchain/toolchain-arm_gcc-4.5.1+l_uClibc-0.9.32_eabi/bin/../lib/gcc/arm-openwrt-linux-uclibcgnueabi/4.5.2/libgcc.a(_arm_muldivdf3.o)
 .data          0x00000000        0x0 /opt/Cortina/toolchain/toolchain-arm_gcc-4.5.1+l_uClibc-0.9.32_eabi/bin/../lib/gcc/arm-openwrt-linux-uclibcgnueabi/4.5.2/libgcc.a(_arm_cmpdf2.o)
 .bss           0x00000000        0x0 /opt/Cortina/toolchain/toolchain-arm_gcc-4.5.1+l_uClibc-0.9.32_eabi/bin/../lib/gcc/arm-openwrt-linux-uclibcgnueabi/4.5.2/libgcc.a(_arm_cmpdf2.o)
 .note.GNU-stack
                0x00000000        0x0 /opt/Cortina/toolchain/toolchain-arm_gcc-4.5.1+l_uClibc-0.9.32_eabi/bin/../lib/gcc/arm-openwrt-linux-uclibcgnueabi/4.5.2/libgcc.a(_arm_cmpdf2.o)
 .data          0x00000000        0x0 /opt/Cortina/toolchain/toolchain-arm_gcc-4.5.1+l_uClibc-0.9.32_eabi/bin/../lib/gcc/arm-openwrt-linux-uclibcgnueabi/4.5.2/libgcc.a(_arm_fixdfsi.o)
 .bss           0x00000000        0x0 /opt/Cortina/toolchain/toolchain-arm_gcc-4.5.1+l_uClibc-0.9.32_eabi/bin/../lib/gcc/arm-openwrt-linux-uclibcgnueabi/4.5.2/libgcc.a(_arm_fixdfsi.o)
 .note.GNU-stack
                0x00000000        0x0 /opt/Cortina/toolchain/toolchain-arm_gcc-4.5.1+l_uClibc-0.9.32_eabi/bin/../lib/gcc/arm-openwrt-linux-uclibcgnueabi/4.5.2/libgcc.a(_arm_fixdfsi.o)
 .data          0x00000000        0x0 /opt/Cortina/toolchain/toolchain-arm_gcc-4.5.1+l_uClibc-0.9.32_eabi/bin/../lib/gcc/arm-openwrt-linux-uclibcgnueabi/4.5.2/libgcc.a(_arm_fixunsdfsi.o)
 .bss           0x00000000        0x0 /opt/Cortina/toolchain/toolchain-arm_gcc-4.5.1+l_uClibc-0.9.32_eabi/bin/../lib/gcc/arm-openwrt-linux-uclibcgnueabi/4.5.2/libgcc.a(_arm_fixunsdfsi.o)
 .note.GNU-stack
                0x00000000        0x0 /opt/Cortina/toolchain/toolchain-arm_gcc-4.5.1+l_uClibc-0.9.32_eabi/bin/../lib/gcc/arm-openwrt-linux-uclibcgnueabi/4.5.2/libgcc.a(_arm_fixunsdfsi.o)
 .data          0x00000000        0x0 /opt/Cortina/toolchain/toolchain-arm_gcc-4.5.1+l_uClibc-0.9.32_eabi/bin/../lib/gcc/arm-openwrt-linux-uclibcgnueabi/4.5.2/libgcc.a(_arm_addsubsf3.o)
 .bss           0x00000000        0x0 /opt/Cortina/toolchain/toolchain-arm_gcc-4.5.1+l_uClibc-0.9.32_eabi/bin/../lib/gcc/arm-openwrt-linux-uclibcgnueabi/4.5.2/libgcc.a(_arm_addsubsf3.o)
 .note.GNU-stack
                0x00000000        0x0 /opt/Cortina/toolchain/toolchain-arm_gcc-4.5.1+l_uClibc-0.9.32_eabi/bin/../lib/gcc/arm-openwrt-linux-uclibcgnueabi/4.5.2/libgcc.a(_arm_addsubsf3.o)
 .data          0x00000000        0x0 /opt/Cortina/toolchain/toolchain-arm_gcc-4.5.1+l_uClibc-0.9.32_eabi/bin/../lib/gcc/arm-openwrt-linux-uclibcgnueabi/4.5.2/libgcc.a(_arm_muldivsf3.o)
 .bss           0x00000000        0x0 /opt/Cortina/toolchain/toolchain-arm_gcc-4.5.1+l_uClibc-0.9.32_eabi/bin/../lib/gcc/arm-openwrt-linux-uclibcgnueabi/4.5.2/libgcc.a(_arm_muldivsf3.o)
 .note.GNU-stack
                0x00000000        0x0 /opt/Cortina/toolchain/toolchain-arm_gcc-4.5.1+l_uClibc-0.9.32_eabi/bin/../lib/gcc/arm-openwrt-linux-uclibcgnueabi/4.5.2/libgcc.a(_arm_muldivsf3.o)
 .data          0x00000000        0x0 /opt/Cortina/toolchain/toolchain-arm_gcc-4.5.1+l_uClibc-0.9.32_eabi/bin/../lib/gcc/arm-openwrt-linux-uclibcgnueabi/4.5.2/libgcc.a(_aeabi_ldivmod.o)
 .bss           0x00000000        0x0 /opt/Cortina/toolchain/toolchain-arm_gcc-4.5.1+l_uClibc-0.9.32_eabi/bin/../lib/gcc/arm-openwrt-linux-uclibcgnueabi/4.5.2/libgcc.a(_aeabi_ldivmod.o)
 .note.GNU-stack
                0x00000000        0x0 /opt/Cortina/toolchain/toolchain-arm_gcc-4.5.1+l_uClibc-0.9.32_eabi/bin/../lib/gcc/arm-openwrt-linux-uclibcgnueabi/4.5.2/libgcc.a(_aeabi_ldivmod.o)
 .data          0x00000000        0x0 /opt/Cortina/toolchain/toolchain-arm_gcc-4.5.1+l_uClibc-0.9.32_eabi/bin/../lib/gcc/arm-openwrt-linux-uclibcgnueabi/4.5.2/libgcc.a(_aeabi_uldivmod.o)
 .bss           0x00000000        0x0 /opt/Cortina/toolchain/toolchain-arm_gcc-4.5.1+l_uClibc-0.9.32_eabi/bin/../lib/gcc/arm-openwrt-linux-uclibcgnueabi/4.5.2/libgcc.a(_aeabi_uldivmod.o)
 .note.GNU-stack
                0x00000000        0x0 /opt/Cortina/toolchain/toolchain-arm_gcc-4.5.1+l_uClibc-0.9.32_eabi/bin/../lib/gcc/arm-openwrt-linux-uclibcgnueabi/4.5.2/libgcc.a(_aeabi_uldivmod.o)
 .data          0x00000000        0x0 /opt/Cortina/toolchain/toolchain-arm_gcc-4.5.1+l_uClibc-0.9.32_eabi/bin/../lib/gcc/arm-openwrt-linux-uclibcgnueabi/4.5.2/libgcc.a(_dvmd_lnx.o)
 .bss           0x00000000        0x0 /opt/Cortina/toolchain/toolchain-arm_gcc-4.5.1+l_uClibc-0.9.32_eabi/bin/../lib/gcc/arm-openwrt-linux-uclibcgnueabi/4.5.2/libgcc.a(_dvmd_lnx.o)
 .note.GNU-stack
                0x00000000        0x0 /opt/Cortina/toolchain/toolchain-arm_gcc-4.5.1+l_uClibc-0.9.32_eabi/bin/../lib/gcc/arm-openwrt-linux-uclibcgnueabi/4.5.2/libgcc.a(_dvmd_lnx.o)
 .data          0x00000000        0x0 /opt/Cortina/toolchain/toolchain-arm_gcc-4.5.1+l_uClibc-0.9.32_eabi/bin/../lib/gcc/arm-openwrt-linux-uclibcgnueabi/4.5.2/libgcc.a(bpabi.o)
 .bss           0x00000000        0x0 /opt/Cortina/toolchain/toolchain-arm_gcc-4.5.1+l_uClibc-0.9.32_eabi/bin/../lib/gcc/arm-openwrt-linux-uclibcgnueabi/4.5.2/libgcc.a(bpabi.o)
 .note.GNU-stack
                0x00000000        0x0 /opt/Cortina/toolchain/toolchain-arm_gcc-4.5.1+l_uClibc-0.9.32_eabi/bin/../lib/gcc/arm-openwrt-linux-uclibcgnueabi/4.5.2/libgcc.a(bpabi.o)
 .data          0x00000000        0x0 /opt/Cortina/toolchain/toolchain-arm_gcc-4.5.1+l_uClibc-0.9.32_eabi/bin/../lib/gcc/arm-openwrt-linux-uclibcgnueabi/4.5.2/libgcc.a(_divdi3.o)
 .bss           0x00000000        0x0 /opt/Cortina/toolchain/toolchain-arm_gcc-4.5.1+l_uClibc-0.9.32_eabi/bin/../lib/gcc/arm-openwrt-linux-uclibcgnueabi/4.5.2/libgcc.a(_divdi3.o)
 .ARM.extab     0x00000000        0x0 /opt/Cortina/toolchain/toolchain-arm_gcc-4.5.1+l_uClibc-0.9.32_eabi/bin/../lib/gcc/arm-openwrt-linux-uclibcgnueabi/4.5.2/libgcc.a(_divdi3.o)
 .note.GNU-stack
                0x00000000        0x0 /opt/Cortina/toolchain/toolchain-arm_gcc-4.5.1+l_uClibc-0.9.32_eabi/bin/../lib/gcc/arm-openwrt-linux-uclibcgnueabi/4.5.2/libgcc.a(_divdi3.o)
 .data          0x00000000        0x0 /opt/Cortina/toolchain/toolchain-arm_gcc-4.5.1+l_uClibc-0.9.32_eabi/bin/../lib/gcc/arm-openwrt-linux-uclibcgnueabi/4.5.2/libgcc.a(_udivdi3.o)
 .bss           0x00000000        0x0 /opt/Cortina/toolchain/toolchain-arm_gcc-4.5.1+l_uClibc-0.9.32_eabi/bin/../lib/gcc/arm-openwrt-linux-uclibcgnueabi/4.5.2/libgcc.a(_udivdi3.o)
 .ARM.extab     0x00000000        0x0 /opt/Cortina/toolchain/toolchain-arm_gcc-4.5.1+l_uClibc-0.9.32_eabi/bin/../lib/gcc/arm-openwrt-linux-uclibcgnueabi/4.5.2/libgcc.a(_udivdi3.o)
 .note.GNU-stack
                0x00000000        0x0 /opt/Cortina/toolchain/toolchain-arm_gcc-4.5.1+l_uClibc-0.9.32_eabi/bin/../lib/gcc/arm-openwrt-linux-uclibcgnueabi/4.5.2/libgcc.a(_udivdi3.o)
 .text          0x00000000        0x0 /opt/Cortina/toolchain/toolchain-arm_gcc-4.5.1+l_uClibc-0.9.32_eabi/bin/../lib/gcc/arm-openwrt-linux-uclibcgnueabi/4.5.2/../../../../arm-openwrt-linux-uclibcgnueabi/lib/uclibc_nonshared.a(atexit.os)
 .data          0x00000000        0x0 /opt/Cortina/toolchain/toolchain-arm_gcc-4.5.1+l_uClibc-0.9.32_eabi/bin/../lib/gcc/arm-openwrt-linux-uclibcgnueabi/4.5.2/../../../../arm-openwrt-linux-uclibcgnueabi/lib/uclibc_nonshared.a(atexit.os)
 .bss           0x00000000        0x0 /opt/Cortina/toolchain/toolchain-arm_gcc-4.5.1+l_uClibc-0.9.32_eabi/bin/../lib/gcc/arm-openwrt-linux-uclibcgnueabi/4.5.2/../../../../arm-openwrt-linux-uclibcgnueabi/lib/uclibc_nonshared.a(atexit.os)
 .note.GNU-stack
                0x00000000        0x0 /opt/Cortina/toolchain/toolchain-arm_gcc-4.5.1+l_uClibc-0.9.32_eabi/bin/../lib/gcc/arm-openwrt-linux-uclibcgnueabi/4.5.2/../../../../arm-openwrt-linux-uclibcgnueabi/lib/uclibc_nonshared.a(atexit.os)
 .text          0x00000000        0x0 /opt/Cortina/toolchain/toolchain-arm_gcc-4.5.1+l_uClibc-0.9.32_eabi/bin/../lib/gcc/arm-openwrt-linux-uclibcgnueabi/4.5.2/crtend.o
 .data          0x00000000        0x0 /opt/Cortina/toolchain/toolchain-arm_gcc-4.5.1+l_uClibc-0.9.32_eabi/bin/../lib/gcc/arm-openwrt-linux-uclibcgnueabi/4.5.2/crtend.o
 .bss           0x00000000        0x0 /opt/Cortina/toolchain/toolchain-arm_gcc-4.5.1+l_uClibc-0.9.32_eabi/bin/../lib/gcc/arm-openwrt-linux-uclibcgnueabi/4.5.2/crtend.o
 .note.GNU-stack
                0x00000000        0x0 /opt/Cortina/toolchain/toolchain-arm_gcc-4.5.1+l_uClibc-0.9.32_eabi/bin/../lib/gcc/arm-openwrt-linux-uclibcgnueabi/4.5.2/crtend.o
 .text          0x00000000        0x0 /opt/Cortina/toolchain/toolchain-arm_gcc-4.5.1+l_uClibc-0.9.32_eabi/bin/../lib/gcc/arm-openwrt-linux-uclibcgnueabi/4.5.2/../../../../arm-openwrt-linux-uclibcgnueabi/lib/crtn.o
 .data          0x00000000        0x0 /opt/Cortina/toolchain/toolchain-arm_gcc-4.5.1+l_uClibc-0.9.32_eabi/bin/../lib/gcc/arm-openwrt-linux-uclibcgnueabi/4.5.2/../../../../arm-openwrt-linux-uclibcgnueabi/lib/crtn.o
 .bss           0x00000000        0x0 /opt/Cortina/toolchain/toolchain-arm_gcc-4.5.1+l_uClibc-0.9.32_eabi/bin/../lib/gcc/arm-openwrt-linux-uclibcgnueabi/4.5.2/../../../../arm-openwrt-linux-uclibcgnueabi/lib/crtn.o
 .note.GNU-stack
                0x00000000        0x0 /opt/Cortina/toolchain/toolchain-arm_gcc-4.5.1+l_uClibc-0.9.32_eabi/bin/../lib/gcc/arm-openwrt-linux-uclibcgnueabi/4.5.2/../../../../arm-openwrt-linux-uclibcgnueabi/lib/crtn.o

Memory Configuration

Name             Origin             Length             Attributes
*default*        0x00000000         0xffffffff

Linker script and memory map

LOAD /opt/Cortina/toolchain/toolchain-arm_gcc-4.5.1+l_uClibc-0.9.32_eabi/bin/../lib/gcc/arm-openwrt-linux-uclibcgnueabi/4.5.2/../../../../arm-openwrt-linux-uclibcgnueabi/lib/crt1.o
LOAD /opt/Cortina/toolchain/toolchain-arm_gcc-4.5.1+l_uClibc-0.9.32_eabi/bin/../lib/gcc/arm-openwrt-linux-uclibcgnueabi/4.5.2/../../../../arm-openwrt-linux-uclibcgnueabi/lib/crti.o
LOAD /opt/Cortina/toolchain/toolchain-arm_gcc-4.5.1+l_uClibc-0.9.32_eabi/bin/../lib/gcc/arm-openwrt-linux-uclibcgnueabi/4.5.2/crtbegin.o
START GROUP
LOAD applets/built-in.o
LOAD archival/lib.a
LOAD archival/libarchive/lib.a
LOAD console-tools/lib.a
LOAD coreutils/lib.a
LOAD coreutils/libcoreutils/lib.a
LOAD debianutils/lib.a
LOAD e2fsprogs/lib.a
LOAD editors/lib.a
LOAD findutils/lib.a
LOAD init/lib.a
LOAD libbb/lib.a
LOAD libpwdgrp/lib.a
LOAD loginutils/lib.a
LOAD mailutils/lib.a
LOAD miscutils/lib.a
LOAD modutils/lib.a
LOAD networking/lib.a
LOAD networking/libiproute/lib.a
LOAD networking/udhcp/lib.a
LOAD printutils/lib.a
LOAD procps/lib.a
LOAD runit/lib.a
LOAD selinux/lib.a
LOAD shell/lib.a
LOAD sysklogd/lib.a
LOAD util-linux/lib.a
LOAD util-linux/volume_id/lib.a
LOAD archival/built-in.o
LOAD archival/libarchive/built-in.o
LOAD console-tools/built-in.o
LOAD coreutils/built-in.o
LOAD coreutils/libcoreutils/built-in.o
LOAD debianutils/built-in.o
LOAD e2fsprogs/built-in.o
LOAD editors/built-in.o
LOAD findutils/built-in.o
LOAD init/built-in.o
LOAD libbb/built-in.o
LOAD libpwdgrp/built-in.o
LOAD loginutils/built-in.o
LOAD mailutils/built-in.o
LOAD miscutils/built-in.o
LOAD modutils/built-in.o
LOAD networking/built-in.o
LOAD networking/libiproute/built-in.o
LOAD networking/udhcp/built-in.o
LOAD printutils/built-in.o
LOAD procps/built-in.o
LOAD runit/built-in.o
LOAD selinux/built-in.o
LOAD shell/built-in.o
LOAD sysklogd/built-in.o
LOAD util-linux/built-in.o
LOAD util-linux/volume_id/built-in.o
END GROUP
START GROUP
LOAD /opt/Cortina/toolchain/toolchain-arm_gcc-4.5.1+l_uClibc-0.9.32_eabi/bin/../lib/gcc/arm-openwrt-linux-uclibcgnueabi/4.5.2/../../../../arm-openwrt-linux-uclibcgnueabi/lib/libcrypt.so
LOAD /opt/Cortina/toolchain/toolchain-arm_gcc-4.5.1+l_uClibc-0.9.32_eabi/bin/../lib/gcc/arm-openwrt-linux-uclibcgnueabi/4.5.2/../../../../arm-openwrt-linux-uclibcgnueabi/lib/libm.so
END GROUP
LOAD /opt/Cortina/toolchain/toolchain-arm_gcc-4.5.1+l_uClibc-0.9.32_eabi/bin/../lib/gcc/arm-openwrt-linux-uclibcgnueabi/4.5.2/libgcc.a
LOAD /opt/Cortina/toolchain/toolchain-arm_gcc-4.5.1+l_uClibc-0.9.32_eabi/bin/../lib/gcc/arm-openwrt-linux-uclibcgnueabi/4.5.2/libgcc_eh.a
LOAD /opt/Cortina/toolchain/toolchain-arm_gcc-4.5.1+l_uClibc-0.9.32_eabi/bin/../lib/gcc/arm-openwrt-linux-uclibcgnueabi/4.5.2/../../../../arm-openwrt-linux-uclibcgnueabi/lib/libc.so
START GROUP
LOAD /opt/Cortina/toolchain/toolchain-arm_gcc-4.5.1+l_uClibc-0.9.32_eabi/bin/../lib/gcc/arm-openwrt-linux-uclibcgnueabi/4.5.2/../../../../arm-openwrt-linux-uclibcgnueabi/lib/uclibc_nonshared.a
LOAD /opt/Cortina/toolchain/toolchain-arm_gcc-4.5.1+l_uClibc-0.9.32_eabi/bin/../lib/gcc/arm-openwrt-linux-uclibcgnueabi/4.5.2/../../../../arm-openwrt-linux-uclibcgnueabi/lib/libc.so.0
LOAD /opt/Cortina/toolchain/toolchain-arm_gcc-4.5.1+l_uClibc-0.9.32_eabi/bin/../lib/gcc/arm-openwrt-linux-uclibcgnueabi/4.5.2/../../../../arm-openwrt-linux-uclibcgnueabi/lib/ld-uClibc.so.0
END GROUP
LOAD /opt/Cortina/toolchain/toolchain-arm_gcc-4.5.1+l_uClibc-0.9.32_eabi/bin/../lib/gcc/arm-openwrt-linux-uclibcgnueabi/4.5.2/libgcc.a
LOAD /opt/Cortina/toolchain/toolchain-arm_gcc-4.5.1+l_uClibc-0.9.32_eabi/bin/../lib/gcc/arm-openwrt-linux-uclibcgnueabi/4.5.2/libgcc_eh.a
LOAD /opt/Cortina/toolchain/toolchain-arm_gcc-4.5.1+l_uClibc-0.9.32_eabi/bin/../lib/gcc/arm-openwrt-linux-uclibcgnueabi/4.5.2/crtend.o
LOAD /opt/Cortina/toolchain/toolchain-arm_gcc-4.5.1+l_uClibc-0.9.32_eabi/bin/../lib/gcc/arm-openwrt-linux-uclibcgnueabi/4.5.2/../../../../arm-openwrt-linux-uclibcgnueabi/lib/crtn.o
                0x00008000                PROVIDE (__executable_start, 0x8000)
                0x00008114                . = (0x8000 + SIZEOF_HEADERS)

.interp         0x00008114       0x14
 *(SORT(.interp))
 .interp        0x00008114       0x14 /opt/Cortina/toolchain/toolchain-arm_gcc-4.5.1+l_uClibc-0.9.32_eabi/bin/../lib/gcc/arm-openwrt-linux-uclibcgnueabi/4.5.2/../../../../arm-openwrt-linux-uclibcgnueabi/lib/libcrypt.so

.note.gnu.build-id
 *(SORT(.note.gnu.build-id))

.hash           0x00008128      0xa00
 *(SORT(.hash))
 .hash          0x00008128      0xa00 /opt/Cortina/toolchain/toolchain-arm_gcc-4.5.1+l_uClibc-0.9.32_eabi/bin/../lib/gcc/arm-openwrt-linux-uclibcgnueabi/4.5.2/../../../../arm-openwrt-linux-uclibcgnueabi/lib/libcrypt.so

.gnu.hash
 *(SORT(.gnu.hash))

.dynsym         0x00008b28     0x1770
 *(SORT(.dynsym))
 .dynsym        0x00008b28     0x1770 /opt/Cortina/toolchain/toolchain-arm_gcc-4.5.1+l_uClibc-0.9.32_eabi/bin/../lib/gcc/arm-openwrt-linux-uclibcgnueabi/4.5.2/../../../../arm-openwrt-linux-uclibcgnueabi/lib/libcrypt.so

.dynstr         0x0000a298      0xbc3
 *(SORT(.dynstr))
 .dynstr        0x0000a298      0xbc3 /opt/Cortina/toolchain/toolchain-arm_gcc-4.5.1+l_uClibc-0.9.32_eabi/bin/../lib/gcc/arm-openwrt-linux-uclibcgnueabi/4.5.2/../../../../arm-openwrt-linux-uclibcgnueabi/lib/libcrypt.so

.gnu.version    0x0000ae5c        0x0 load address 0x0000ae5b
 *(SORT(.gnu.version))
 .gnu.version   0x00000000        0x0 /opt/Cortina/toolchain/toolchain-arm_gcc-4.5.1+l_uClibc-0.9.32_eabi/bin/../lib/gcc/arm-openwrt-linux-uclibcgnueabi/4.5.2/../../../../arm-openwrt-linux-uclibcgnueabi/lib/libcrypt.so

.gnu.version_d  0x0000ae5c        0x0 load address 0x0000ae5b
 *(SORT(.gnu.version_d))
 .gnu.version_d
                0x00000000        0x0 /opt/Cortina/toolchain/toolchain-arm_gcc-4.5.1+l_uClibc-0.9.32_eabi/bin/../lib/gcc/arm-openwrt-linux-uclibcgnueabi/4.5.2/../../../../arm-openwrt-linux-uclibcgnueabi/lib/libcrypt.so

.gnu.version_r  0x0000ae5c        0x0 load address 0x0000ae5b
 *(SORT(.gnu.version_r))
 .gnu.version_r
                0x00000000        0x0 /opt/Cortina/toolchain/toolchain-arm_gcc-4.5.1+l_uClibc-0.9.32_eabi/bin/../lib/gcc/arm-openwrt-linux-uclibcgnueabi/4.5.2/../../../../arm-openwrt-linux-uclibcgnueabi/lib/libcrypt.so

.rel.dyn        0x0000ae5c       0x58
 *(SORT(.rel.init))
 *(SORT(.rel.text) SORT(.rel.text.*) SORT(.rel.gnu.linkonce.t.*))
 *(SORT(.rel.fini))
 *(SORT(.rel.rodata) SORT(.rel.rodata.*) SORT(.rel.gnu.linkonce.r.*))
 *(SORT(.rel.data.rel.ro*) SORT(.rel.gnu.linkonce.d.rel.ro.*))
 *(SORT(.rel.data) SORT(.rel.data.*) SORT(.rel.gnu.linkonce.d.*))
 *(SORT(.rel.tdata) SORT(.rel.tdata.*) SORT(.rel.gnu.linkonce.td.*))
 *(SORT(.rel.tbss) SORT(.rel.tbss.*) SORT(.rel.gnu.linkonce.tb.*))
 *(SORT(.rel.ctors))
 *(SORT(.rel.dtors))
 *(SORT(.rel.got))
 .rel.got       0x00000000        0x0 /opt/Cortina/toolchain/toolchain-arm_gcc-4.5.1+l_uClibc-0.9.32_eabi/bin/../lib/gcc/arm-openwrt-linux-uclibcgnueabi/4.5.2/../../../../arm-openwrt-linux-uclibcgnueabi/lib/libcrypt.so
 *(SORT(.rel.bss) SORT(.rel.bss.*) SORT(.rel.gnu.linkonce.b.*))
 .rel.bss       0x0000ae5c       0x58 /opt/Cortina/toolchain/toolchain-arm_gcc-4.5.1+l_uClibc-0.9.32_eabi/bin/../lib/gcc/arm-openwrt-linux-uclibcgnueabi/4.5.2/../../../../arm-openwrt-linux-uclibcgnueabi/lib/libcrypt.so
                0x0000aeb4                PROVIDE (__rel_iplt_start, .)
 *(SORT(.rel.iplt))
                0x0000aeb4                PROVIDE (__rel_iplt_end, .)
                0x0000aeb4                PROVIDE (__rela_iplt_start, .)
                0x0000aeb4                PROVIDE (__rela_iplt_end, .)

.rela.dyn       0x0000aeb4        0x0
 *(SORT(.rela.init))
 *(SORT(.rela.text) SORT(.rela.text.*) SORT(.rela.gnu.linkonce.t.*))
 *(SORT(.rela.fini))
 *(SORT(.rela.rodata) SORT(.rela.rodata.*) SORT(.rela.gnu.linkonce.r.*))
 *(SORT(.rela.data) SORT(.rela.data.*) SORT(.rela.gnu.linkonce.d.*))
 *(SORT(.rela.tdata) SORT(.rela.tdata.*) SORT(.rela.gnu.linkonce.td.*))
 *(SORT(.rela.tbss) SORT(.rela.tbss.*) SORT(.rela.gnu.linkonce.tb.*))
 *(SORT(.rela.ctors))
 *(SORT(.rela.dtors))
 *(SORT(.rela.got))
 *(SORT(.rela.bss) SORT(.rela.bss.*) SORT(.rela.gnu.linkonce.b.*))
                0x0000aeb4                PROVIDE (__rel_iplt_start, .)
                0x0000aeb4                PROVIDE (__rel_iplt_end, .)
                0x0000aeb4                PROVIDE (__rela_iplt_start, .)
 *(SORT(.rela.iplt))
                0x0000aeb4                PROVIDE (__rela_iplt_end, .)

.rel.plt        0x0000aeb4      0xb00
 *(SORT(.rel.plt))
 .rel.plt       0x0000aeb4      0xb00 /opt/Cortina/toolchain/toolchain-arm_gcc-4.5.1+l_uClibc-0.9.32_eabi/bin/../lib/gcc/arm-openwrt-linux-uclibcgnueabi/4.5.2/../../../../arm-openwrt-linux-uclibcgnueabi/lib/libcrypt.so

.rela.plt
 *(SORT(.rela.plt))

.init           0x0000b9b4       0x10
 *(SORT(.init))
 .init          0x0000b9b4        0xc /opt/Cortina/toolchain/toolchain-arm_gcc-4.5.1+l_uClibc-0.9.32_eabi/bin/../lib/gcc/arm-openwrt-linux-uclibcgnueabi/4.5.2/../../../../arm-openwrt-linux-uclibcgnueabi/lib/crti.o
                0x0000b9b4                _init
 .init          0x0000b9c0        0x4 /opt/Cortina/toolchain/toolchain-arm_gcc-4.5.1+l_uClibc-0.9.32_eabi/bin/../lib/gcc/arm-openwrt-linux-uclibcgnueabi/4.5.2/../../../../arm-openwrt-linux-uclibcgnueabi/lib/crtn.o

.plt            0x0000b9c4     0x1094
 *(SORT(.plt))
 .plt           0x0000b9c4     0x1094 /opt/Cortina/toolchain/toolchain-arm_gcc-4.5.1+l_uClibc-0.9.32_eabi/bin/../lib/gcc/arm-openwrt-linux-uclibcgnueabi/4.5.2/../../../../arm-openwrt-linux-uclibcgnueabi/lib/libcrypt.so
                0x0000b9d8                longjmp
                0x0000b9e4                stpcpy
                0x0000b9f0                chroot
                0x0000b9fc                strcpy
                0x0000ba08                setrlimit64
                0x0000ba14                unsetenv
                0x0000ba20                log
                0x0000ba2c                mkstemp64
                0x0000ba38                sqrt
                0x0000ba44                waitpid
                0x0000ba50                pause
                0x0000ba5c                ioctl
                0x0000ba68                strtok_r
                0x0000ba74                getgid
                0x0000ba80                popen
                0x0000ba8c                sysconf
                0x0000ba98                printf
                0x0000baa4                vsprintf
                0x0000bab0                random
                0x0000babc                cfgetospeed
                0x0000bac8                recv
                0x0000bad4                connect
                0x0000bae0                ungetc
                0x0000baec                tcgetsid
                0x0000baf8                utimes
                0x0000bb04                shmctl
                0x0000bb10                strerror
                0x0000bb1c                memrchr
                0x0000bb28                geteuid
                0x0000bb34                inet_pton
                0x0000bb40                stat64
                0x0000bb4c                memmove
                0x0000bb58                pclose
                0x0000bb64                getopt_long
                0x0000bb70                snprintf
                0x0000bb7c                pmap_set
                0x0000bb88                mknod
                0x0000bb94                ftello64
                0x0000bba0                getgrgid
                0x0000bbac                clnt_spcreateerror
                0x0000bbb8                times
                0x0000bbc4                statfs64
                0x0000bbd0                authunix_create_default
                0x0000bbdc                __aeabi_d2lz
                0x0000bbe8                getenv
                0x0000bbf4                fchmod
                0x0000bc00                getegid
                0x0000bc0c                setlinebuf
                0x0000bc18                setpriority
                0x0000bc24                getpriority
                0x0000bc30                bsearch
                0x0000bc3c                usleep
                0x0000bc48                execve
                0x0000bc54                semget
                0x0000bc60                getpagesize
                0x0000bc6c                getpid
                0x0000bc78                qsort
                0x0000bc84                fchown
                0x0000bc90                fscanf
                0x0000bc9c                dirname
                0x0000bca8                fcntl64
                0x0000bcb4                getrlimit64
                0x0000bcc0                fchdir
                0x0000bccc                shmat
                0x0000bcd8                memcpy
                0x0000bce4                pmap_getport
                0x0000bcf0                setvbuf
                0x0000bcfc                execl
                0x0000bd08                readlink
                0x0000bd14                puts
                0x0000bd20                dup2
                0x0000bd2c                tcflush
                0x0000bd38                execle
                0x0000bd44                getuid
                0x0000bd50                semctl
                0x0000bd5c                system
                0x0000bd68                feof
                0x0000bd74                hasmntopt
                0x0000bd80                malloc
                0x0000bd8c                isatty
                0x0000bd98                cfgetispeed
                0x0000bda4                siglongjmp
                0x0000bdb0                sleep
                0x0000bdbc                sysinfo
                0x0000bdc8                vsnprintf
                0x0000bdd4                strtoll
                0x0000bde0                recvfrom
                0x0000bdec                xdr_bytes
                0x0000bdf8                tcdrain
                0x0000be04                pivot_root
                0x0000be10                strtoul
                0x0000be1c                mktemp
                0x0000be28                gethostbyaddr
                0x0000be34                settimeofday
                0x0000be40                rmdir
                0x0000be4c                socket
                0x0000be58                select
                0x0000be64                init_module
                0x0000be70                lchown
                0x0000be7c                setgroups
                0x0000be88                delete_module
                0x0000be94                mempcpy
                0x0000bea0                fflush
                0x0000beac                realpath
                0x0000beb8                getrpcbyname
                0x0000bec4                putenv
                0x0000bed0                sigaddset
                0x0000bedc                clearenv
                0x0000bee8                chown
                0x0000bef4                strncasecmp
                0x0000bf00                setpgid
                0x0000bf0c                send
                0x0000bf18                freeaddrinfo
                0x0000bf24                __fgetc_unlocked
                0x0000bf30                abort
                0x0000bf3c                gmtime_r
                0x0000bf48                chmod
                0x0000bf54                getnameinfo
                0x0000bf60                fstat64
                0x0000bf6c                alarm
                0x0000bf78                mlock
                0x0000bf84                strtol
                0x0000bf90                __sigsetjmp
                0x0000bf9c                pipe
                0x0000bfa8                getpgrp
                0x0000bfb4                strnlen
                0x0000bfc0                uname
                0x0000bfcc                accept
                0x0000bfd8                cfsetispeed
                0x0000bfe4                rename
                0x0000bff0                strrchr
                0x0000bffc                nanosleep
                0x0000c008                xdr_enum
                0x0000c014                strtod
                0x0000c020                gai_strerror
                0x0000c02c                write
                0x0000c038                fprintf
                0x0000c044                kill
                0x0000c050                fputs_unlocked
                0x0000c05c                ctime
                0x0000c068                strcat
                0x0000c074                bind
                0x0000c080                getmntent_r
                0x0000c08c                inet_addr
                0x0000c098                vprintf
                0x0000c0a4                umount2
                0x0000c0b0                mkfifo
                0x0000c0bc                if_nametoindex
                0x0000c0c8                reboot
                0x0000c0d4                chdir
                0x0000c0e0                initgroups
                0x0000c0ec                pmap_unset
                0x0000c0f8                shmdt
                0x0000c104                endgrent
                0x0000c110                setsockopt
                0x0000c11c                wait3
                0x0000c128                shmget
                0x0000c134                cfsetospeed
                0x0000c140                cos
                0x0000c14c                memchr
                0x0000c158                swapoff
                0x0000c164                wait
                0x0000c170                umask
                0x0000c17c                dprintf
                0x0000c188                mktime
                0x0000c194                strcasestr
                0x0000c1a0                ferror
                0x0000c1ac                strstr
                0x0000c1b8                unlockpt
                0x0000c1c4                sin
                0x0000c1d0                rand
                0x0000c1dc                flock
                0x0000c1e8                setgid
                0x0000c1f4                atan2
                0x0000c200                signal
                0x0000c20c                read
                0x0000c218                openlog
                0x0000c224                sendmsg
                0x0000c230                clntudp_create
                0x0000c23c                closelog
                0x0000c248                strncmp
                0x0000c254                sethostname
                0x0000c260                __cmsg_nxthdr
                0x0000c26c                setpgrp
                0x0000c278                pow
                0x0000c284                strncpy
                0x0000c290                unlink
                0x0000c29c                sync
                0x0000c2a8                setenv
                0x0000c2b4                freopen64
                0x0000c2c0                strcasecmp
                0x0000c2cc                sendto
                0x0000c2d8                realloc
                0x0000c2e4                __cxa_atexit
                0x0000c2f0                readdir64
                0x0000c2fc                strtok
                0x0000c308                memcmp
                0x0000c314                listen
                0x0000c320                crypt
                0x0000c32c                xdr_opaque
                0x0000c338                fdopen
                0x0000c344                fork
                0x0000c350                sscanf
                0x0000c35c                execv
                0x0000c368                setmntent
                0x0000c374                lstat64
                0x0000c380                execlp
                0x0000c38c                sigaction
                0x0000c398                endmntent
                0x0000c3a4                __res_init
                0x0000c3b0                killpg
                0x0000c3bc                fread
                0x0000c3c8                ttyname_r
                0x0000c3d4                __uClibc_main
                0x0000c3e0                strdup
                0x0000c3ec                inet_aton
                0x0000c3f8                strtoull
                0x0000c404                regcomp
                0x0000c410                symlink
                0x0000c41c                gettimeofday
                0x0000c428                getopt
                0x0000c434                localtime
                0x0000c440                memset
                0x0000c44c                fnmatch
                0x0000c458                cfmakeraw
                0x0000c464                getsid
                0x0000c470                srand
                0x0000c47c                clearerr
                0x0000c488                mallopt
                0x0000c494                fclose
                0x0000c4a0                grantpt
                0x0000c4ac                open64
                0x0000c4b8                xdr_string
                0x0000c4c4                inet_ntoa
                0x0000c4d0                getppid
                0x0000c4dc                tcgetattr
                0x0000c4e8                getservbyport
                0x0000c4f4                regexec
                0x0000c500                time
                0x0000c50c                opendir
                0x0000c518                getgroups
                0x0000c524                poll
                0x0000c530                getgrouplist
                0x0000c53c                syslog
                0x0000c548                seteuid
                0x0000c554                exp
                0x0000c560                xdr_u_int
                0x0000c56c                getopt_long_only
                0x0000c578                getpwent_r
                0x0000c584                mount
                0x0000c590                strcmp
                0x0000c59c                shutdown
                0x0000c5a8                pmap_getmaps
                0x0000c5b4                getpwuid
                0x0000c5c0                __h_errno_location
                0x0000c5cc                dup
                0x0000c5d8                swapon
                0x0000c5e4                getcwd
                0x0000c5f0                __res_state
                0x0000c5fc                gethostbyname
                0x0000c608                strsignal
                0x0000c614                getpwnam
                0x0000c620                getservbyname
                0x0000c62c                sprintf
                0x0000c638                ether_aton_r
                0x0000c644                clnttcp_create
                0x0000c650                asprintf
                0x0000c65c                strcspn
                0x0000c668                getpeername
                0x0000c674                cfsetspeed
                0x0000c680                scanf
                0x0000c68c                regerror
                0x0000c698                umount
                0x0000c6a4                vfork
                0x0000c6b0                sched_getaffinity
                0x0000c6bc                srandom
                0x0000c6c8                strsep
                0x0000c6d4                fsync
                0x0000c6e0                fputc
                0x0000c6ec                clnt_sperror
                0x0000c6f8                sched_setaffinity
                0x0000c704                getsockopt
                0x0000c710                hstrerror
                0x0000c71c                localtime_r
                0x0000c728                getaddrinfo
                0x0000c734                lutimes
                0x0000c740                strftime
                0x0000c74c                __aeabi_llsl
                0x0000c758                sendfile64
                0x0000c764                mkdtemp
                0x0000c770                getmntent
                0x0000c77c                fwrite
                0x0000c788                access
                0x0000c794                bindresvport
                0x0000c7a0                strptime
                0x0000c7ac                tcgetpgrp
                0x0000c7b8                __errno_location
                0x0000c7c4                link
                0x0000c7d0                semop
                0x0000c7dc                exit
                0x0000c7e8                ether_ntoa
                0x0000c7f4                stime
                0x0000c800                klogctl
                0x0000c80c                sigdelset
                0x0000c818                setbuf
                0x0000c824                inet_ntop
                0x0000c830                getgrnam
                0x0000c83c                atoi
                0x0000c848                fileno
                0x0000c854                _setjmp
                0x0000c860                fgets_unlocked
                0x0000c86c                getline
                0x0000c878                _exit
                0x0000c884                strverscmp
                0x0000c890                gmtime
                0x0000c89c                strspn
                0x0000c8a8                munlock
                0x0000c8b4                daemon
                0x0000c8c0                strlen
                0x0000c8cc                lseek64
                0x0000c8d8                xdr_array
                0x0000c8e4                ptsname_r
                0x0000c8f0                regfree
                0x0000c8fc                div
                0x0000c908                strchr
                0x0000c914                fputs
                0x0000c920                execvp
                0x0000c92c                setsid
                0x0000c938                setegid
                0x0000c944                closedir
                0x0000c950                vasprintf
                0x0000c95c                recvmsg
                0x0000c968                strchrnul
                0x0000c974                tzset
                0x0000c980                setuid
                0x0000c98c                gethostid
                0x0000c998                fseeko64
                0x0000c9a4                tcsetattr
                0x0000c9b0                mkdir
                0x0000c9bc                close
                0x0000c9c8                vfprintf
                0x0000c9d4                strpbrk
                0x0000c9e0                tcsetpgrp
                0x0000c9ec                xdr_int
                0x0000c9f8                sigsuspend
                0x0000ca04                raise
                0x0000ca10                free
                0x0000ca1c                sigprocmask
                0x0000ca28                __fputc_unlocked
                0x0000ca34                getsockname
                0x0000ca40                fopen64
                0x0000ca4c                ftruncate64

.iplt
 *(SORT(.iplt))

.text           0x0000ca58    0x7ea34
 *(SORT(.text.unlikely) SORT(.text.*_unlikely))
 *(SORT(.text) SORT(.stub) SORT(.text.*) SORT(.gnu.linkonce.t.*))
 .text          0x0000ca58       0x3c /opt/Cortina/toolchain/toolchain-arm_gcc-4.5.1+l_uClibc-0.9.32_eabi/bin/../lib/gcc/arm-openwrt-linux-uclibcgnueabi/4.5.2/../../../../arm-openwrt-linux-uclibcgnueabi/lib/crt1.o
                0x0000ca58                _start
 .text          0x0000ca94       0x5c /opt/Cortina/toolchain/toolchain-arm_gcc-4.5.1+l_uClibc-0.9.32_eabi/bin/../lib/gcc/arm-openwrt-linux-uclibcgnueabi/4.5.2/crtbegin.o
 .text.applet_name_compare
                0x0000caf0       0x30 libbb/lib.a(appletlib.o)
 .text.find_applet_by_name
                0x0000cb20       0x2c libbb/lib.a(appletlib.o)
                0x0000cb20                find_applet_by_name
 .text.bb_show_usage
                0x0000cb4c       0xf0 libbb/lib.a(appletlib.o)
                0x0000cb4c                bb_show_usage
 .text.lbb_prepare
                0x0000cc3c       0x2c libbb/lib.a(appletlib.o)
                0x0000cc3c                lbb_prepare
 .text.run_applet_no_and_exit
                0x0000cc68      0x110 libbb/lib.a(appletlib.o)
                0x0000cc68                run_applet_no_and_exit
 .text.run_applet_and_exit
                0x0000cd78      0x208 libbb/lib.a(appletlib.o)
                0x0000cd78                run_applet_and_exit
 .text.main     0x0000cf80       0x8c libbb/lib.a(appletlib.o)
                0x0000cf80                main
 .text.bb_basename
                0x0000d00c       0x24 libbb/lib.a(get_last_path_component.o)
                0x0000d00c                bb_basename
 .text.bb_get_last_path_component_nostrip
                0x0000d030       0x3c libbb/lib.a(get_last_path_component.o)
                0x0000d030                bb_get_last_path_component_nostrip
 .text.bb_get_last_path_component_strip
                0x0000d06c       0x50 libbb/lib.a(get_last_path_component.o)
                0x0000d06c                bb_get_last_path_component_strip
 .text.last_char_is
                0x0000d0bc       0x40 libbb/lib.a(last_char_is.o)
                0x0000d0bc                last_char_is
 .text.bb_verror_msg
                0x0000d0fc      0x1c4 libbb/lib.a(verror_msg.o)
                0x0000d0fc                bb_verror_msg
 .text.bb_error_msg_and_die
                0x0000d2c0       0x20 libbb/lib.a(verror_msg.o)
                0x0000d2c0                bb_error_msg_and_die
 .text.bb_error_msg
                0x0000d2e0       0x28 libbb/lib.a(verror_msg.o)
                0x0000d2e0                bb_error_msg
 .text.xfunc_die
                0x0000d308       0x50 libbb/lib.a(xfunc_die.o)
                0x0000d308                xfunc_die
 .text.wh_helper
                0x0000d358       0x54 libbb/lib.a(xfuncs.o)
 .text.ndelay_on
                0x0000d3ac       0x30 libbb/lib.a(xfuncs.o)
                0x0000d3ac                ndelay_on
 .text.ndelay_off
                0x0000d3dc       0x30 libbb/lib.a(xfuncs.o)
                0x0000d3dc                ndelay_off
 .text.close_on_exec_on
                0x0000d40c       0x18 libbb/lib.a(xfuncs.o)
                0x0000d40c                close_on_exec_on
 .text.strncpy_IFNAMSIZ
                0x0000d424       0x14 libbb/lib.a(xfuncs.o)
                0x0000d424                strncpy_IFNAMSIZ
 .text.utoa_to_buf
                0x0000d438       0x98 libbb/lib.a(xfuncs.o)
                0x0000d438                utoa_to_buf
 .text.itoa_to_buf
                0x0000d4d0       0x28 libbb/lib.a(xfuncs.o)
                0x0000d4d0                itoa_to_buf
 .text.utoa     0x0000d4f8       0x2c libbb/lib.a(xfuncs.o)
                0x0000d4f8                utoa
 .text.itoa     0x0000d524       0x2c libbb/lib.a(xfuncs.o)
                0x0000d524                itoa
 .text.bin2hex  0x0000d550       0x54 libbb/lib.a(xfuncs.o)
                0x0000d550                bin2hex
 .text.hex2bin  0x0000d5a4       0xe8 libbb/lib.a(xfuncs.o)
                0x0000d5a4                hex2bin
 .text.bb_putchar_stderr
                0x0000d68c       0x20 libbb/lib.a(xfuncs.o)
                0x0000d68c                bb_putchar_stderr
 .text.full_write1_str
                0x0000d6ac       0x24 libbb/lib.a(xfuncs.o)
                0x0000d6ac                full_write1_str
 .text.full_write2_str
                0x0000d6d0       0x24 libbb/lib.a(xfuncs.o)
                0x0000d6d0                full_write2_str
 .text.get_terminal_width_height
                0x0000d6f4       0xa0 libbb/lib.a(xfuncs.o)
                0x0000d6f4                get_terminal_width_height
 .text.tcsetattr_stdin_TCSANOW
                0x0000d794       0x1c libbb/lib.a(xfuncs.o)
                0x0000d794                tcsetattr_stdin_TCSANOW
 .text.safe_waitpid
                0x0000d7b0       0x48 libbb/lib.a(xfuncs.o)
                0x0000d7b0                safe_waitpid
 .text.wait_any_nohang
                0x0000d7f8       0x10 libbb/lib.a(xfuncs.o)
                0x0000d7f8                wait_any_nohang
 .text.wait4pid
                0x0000d808       0x58 libbb/lib.a(xfuncs.o)
                0x0000d808                wait4pid
 .text.malloc_or_warn
                0x0000d860       0x3c libbb/lib.a(xfuncs_printf.o)
                0x0000d860                malloc_or_warn
 .text.xmalloc  0x0000d89c       0x34 libbb/lib.a(xfuncs_printf.o)
                0x0000d89c                xmalloc
 .text.xrealloc
                0x0000d8d0       0x34 libbb/lib.a(xfuncs_printf.o)
                0x0000d8d0                xrealloc
 .text.xzalloc  0x0000d904       0x28 libbb/lib.a(xfuncs_printf.o)
                0x0000d904                xzalloc
 .text.xstrdup  0x0000d92c       0x30 libbb/lib.a(xfuncs_printf.o)
                0x0000d92c                xstrdup
 .text.xstrndup
                0x0000d95c       0x54 libbb/lib.a(xfuncs_printf.o)
                0x0000d95c                xstrndup
 .text.xfopen   0x0000d9b0       0x28 libbb/lib.a(xfuncs_printf.o)
                0x0000d9b0                xfopen
 .text.xopen3   0x0000d9d8       0x28 libbb/lib.a(xfuncs_printf.o)
                0x0000d9d8                xopen3
 .text.xopen    0x0000da00        0xc libbb/lib.a(xfuncs_printf.o)
                0x0000da00                xopen
 .text.open3_or_warn
                0x0000da0c       0x2c libbb/lib.a(xfuncs_printf.o)
                0x0000da0c                open3_or_warn
 .text.open_or_warn
                0x0000da38        0xc libbb/lib.a(xfuncs_printf.o)
                0x0000da38                open_or_warn
 .text.xopen_nonblocking
                0x0000da44        0x8 libbb/lib.a(xfuncs_printf.o)
                0x0000da44                xopen_nonblocking
 .text.xunlink  0x0000da4c       0x28 libbb/lib.a(xfuncs_printf.o)
                0x0000da4c                xunlink
 .text.xrename  0x0000da74       0x30 libbb/lib.a(xfuncs_printf.o)
                0x0000da74                xrename
 .text.xpipe    0x0000daa4       0x20 libbb/lib.a(xfuncs_printf.o)
                0x0000daa4                xpipe
 .text.xdup2    0x0000dac4       0x24 libbb/lib.a(xfuncs_printf.o)
                0x0000dac4                xdup2
 .text.xmove_fd
                0x0000dae8       0x24 libbb/lib.a(xfuncs_printf.o)
                0x0000dae8                xmove_fd
 .text.xwrite   0x0000db0c       0x28 libbb/lib.a(xfuncs_printf.o)
                0x0000db0c                xwrite
 .text.xwrite_str
                0x0000db34       0x28 libbb/lib.a(xfuncs_printf.o)
                0x0000db34                xwrite_str
 .text.xclose   0x0000db5c       0x20 libbb/lib.a(xfuncs_printf.o)
                0x0000db5c                xclose
 .text.xlseek   0x0000db7c       0x68 libbb/lib.a(xfuncs_printf.o)
                0x0000db7c                xlseek
 .text.xmkstemp
                0x0000dbe4       0x28 libbb/lib.a(xfuncs_printf.o)
                0x0000dbe4                xmkstemp
 .text.die_if_ferror
                0x0000dc0c       0x28 libbb/lib.a(xfuncs_printf.o)
                0x0000dc0c                die_if_ferror
 .text.die_if_ferror_stdout
                0x0000dc34       0x18 libbb/lib.a(xfuncs_printf.o)
                0x0000dc34                die_if_ferror_stdout
 .text.fflush_all
                0x0000dc4c       0x14 libbb/lib.a(xfuncs_printf.o)
                0x0000dc4c                fflush_all
 .text.bb_putchar
                0x0000dc60       0x34 libbb/lib.a(xfuncs_printf.o)
                0x0000dc60                bb_putchar
 .text.xasprintf
                0x0000dc94       0x3c libbb/lib.a(xfuncs_printf.o)
                0x0000dc94                xasprintf
 .text.xsetenv  0x0000dcd0       0x24 libbb/lib.a(xfuncs_printf.o)
                0x0000dcd0                xsetenv
 .text.bb_unsetenv
                0x0000dcf4       0x48 libbb/lib.a(xfuncs_printf.o)
                0x0000dcf4                bb_unsetenv
 .text.bb_unsetenv_and_free
                0x0000dd3c       0x1c libbb/lib.a(xfuncs_printf.o)
                0x0000dd3c                bb_unsetenv_and_free
 .text.xsetgid  0x0000dd58       0x20 libbb/lib.a(xfuncs_printf.o)
                0x0000dd58                xsetgid
 .text.xsetuid  0x0000dd78       0x20 libbb/lib.a(xfuncs_printf.o)
                0x0000dd78                xsetuid
 .text.xsetegid
                0x0000dd98       0x20 libbb/lib.a(xfuncs_printf.o)
                0x0000dd98                xsetegid
 .text.xseteuid
                0x0000ddb8       0x20 libbb/lib.a(xfuncs_printf.o)
                0x0000ddb8                xseteuid
 .text.xopen_as_uid_gid
                0x0000ddd8       0x60 libbb/lib.a(xfuncs_printf.o)
                0x0000ddd8                xopen_as_uid_gid
 .text.xchdir   0x0000de38       0x28 libbb/lib.a(xfuncs_printf.o)
                0x0000de38                xchdir
 .text.xchroot  0x0000de60       0x30 libbb/lib.a(xfuncs_printf.o)
                0x0000de60                xchroot
 .text.warn_opendir
                0x0000de90       0x2c libbb/lib.a(xfuncs_printf.o)
                0x0000de90                warn_opendir
 .text.xopendir
                0x0000debc       0x28 libbb/lib.a(xfuncs_printf.o)
                0x0000debc                xopendir
 .text.xsocket  0x0000dee4       0x70 libbb/lib.a(xfuncs_printf.o)
                0x0000dee4                xsocket
 .text.xbind    0x0000df54       0x20 libbb/lib.a(xfuncs_printf.o)
                0x0000df54                xbind
 .text.xlisten  0x0000df74       0x20 libbb/lib.a(xfuncs_printf.o)
                0x0000df74                xlisten
 .text.xsendto  0x0000df94       0x30 libbb/lib.a(xfuncs_printf.o)
                0x0000df94                xsendto
 .text.xstat    0x0000dfc4       0x28 libbb/lib.a(xfuncs_printf.o)
                0x0000dfc4                xstat
 .text.xfstat   0x0000dfec       0x20 libbb/lib.a(xfuncs_printf.o)
                0x0000dfec                xfstat
 .text.ioctl_or_perror_and_die
                0x0000e00c       0x50 libbb/lib.a(xfuncs_printf.o)
                0x0000e00c                ioctl_or_perror_and_die
 .text.ioctl_or_perror
                0x0000e05c       0x50 libbb/lib.a(xfuncs_printf.o)
                0x0000e05c                ioctl_or_perror
 .text.bb_ioctl_or_warn
                0x0000e0ac       0x24 libbb/lib.a(xfuncs_printf.o)
                0x0000e0ac                bb_ioctl_or_warn
 .text.bb_xioctl
                0x0000e0d0       0x20 libbb/lib.a(xfuncs_printf.o)
                0x0000e0d0                bb_xioctl
 .text.xmalloc_ttyname
                0x0000e0f0       0x30 libbb/lib.a(xfuncs_printf.o)
                0x0000e0f0                xmalloc_ttyname
 .text.generate_uuid
                0x0000e120       0xa8 libbb/lib.a(xfuncs_printf.o)
                0x0000e120                generate_uuid
 .text.xfork    0x0000e1c8       0x20 libbb/lib.a(xfuncs_printf.o)
                0x0000e1c8                xfork
 .text.bb_full_fd_action
                0x0000e1e8      0x13c libbb/lib.a(copyfd.o)
 .text.bb_copyfd_size
                0x0000e324       0x2c libbb/lib.a(copyfd.o)
                0x0000e324                bb_copyfd_size
 .text.bb_copyfd_exact_size
                0x0000e350       0x5c libbb/lib.a(copyfd.o)
                0x0000e350                bb_copyfd_exact_size
 .text.bb_copyfd_eof
                0x0000e3ac        0xc libbb/lib.a(copyfd.o)
                0x0000e3ac                bb_copyfd_eof
 .text.full_write
                0x0000e3b8       0x5c libbb/lib.a(full_write.o)
                0x0000e3b8                full_write
 .text.bb_perror_msg
                0x0000e414       0x44 libbb/lib.a(perror_msg.o)
                0x0000e414                bb_perror_msg
 .text.bb_perror_msg_and_die
                0x0000e458       0x3c libbb/lib.a(perror_msg.o)
                0x0000e458                bb_perror_msg_and_die
 .text.bb_simple_perror_msg
                0x0000e494       0x10 libbb/lib.a(perror_msg.o)
                0x0000e494                bb_simple_perror_msg
 .text.bb_simple_perror_msg_and_die
                0x0000e4a4       0x14 libbb/lib.a(perror_msg.o)
                0x0000e4a4                bb_simple_perror_msg_and_die
 .text.safe_read
                0x0000e4b8       0x48 libbb/lib.a(read.o)
                0x0000e4b8                safe_read
 .text.full_read
                0x0000e500       0x60 libbb/lib.a(read.o)
                0x0000e500                full_read
 .text.read_close
                0x0000e560       0x24 libbb/lib.a(read.o)
                0x0000e560                read_close
 .text.open_read_close
                0x0000e584       0x34 libbb/lib.a(read.o)
                0x0000e584                open_read_close
 .text.safe_write
                0x0000e5b8       0x48 libbb/lib.a(safe_write.o)
                0x0000e5b8                safe_write
 .text.strftime_fmt
                0x0000e600       0x48 libbb/lib.a(time.o)
 .text.parse_datestr
                0x0000e648      0x420 libbb/lib.a(time.o)
                0x0000e648                parse_datestr
 .text.validate_tm_time
                0x0000ea68       0x2c libbb/lib.a(time.o)
                0x0000ea68                validate_tm_time
 .text.strftime_HHMMSS
                0x0000ea94        0xc libbb/lib.a(time.o)
                0x0000ea94                strftime_HHMMSS
 .text.monotonic_us
                0x0000eaa0       0x34 libbb/lib.a(time.o)
                0x0000eaa0                monotonic_us
 .text.monotonic_ms
                0x0000ead4       0x40 libbb/lib.a(time.o)
                0x0000ead4                monotonic_ms
 .text.monotonic_sec
                0x0000eb14       0x14 libbb/lib.a(time.o)
                0x0000eb14                monotonic_sec
 .text.ret_ERANGE
                0x0000eb28       0x20 libbb/lib.a(bb_strtonum.o)
 .text.handle_errors.clone.0
                0x0000eb48       0x50 libbb/lib.a(bb_strtonum.o)
 .text.bb_strtoull
                0x0000eb98       0x64 libbb/lib.a(bb_strtonum.o)
                0x0000eb98                bb_strtoull
 .text.bb_strtoll
                0x0000ebfc       0x70 libbb/lib.a(bb_strtonum.o)
                0x0000ebfc                bb_strtoll
 .text.bb_strtoul
                0x0000ec6c       0x68 libbb/lib.a(bb_strtonum.o)
                0x0000ec6c                bb_strtoul
 .text.bb_strtol
                0x0000ecd4       0x74 libbb/lib.a(bb_strtonum.o)
                0x0000ecd4                bb_strtol
 .text.addgroup_main
                0x0000ed48      0x1e0 loginutils/lib.a(addgroup.o)
                0x0000ed48                addgroup_main
 .text.addgroup_wrapper
                0x0000ef28       0x80 loginutils/lib.a(adduser.o)
 .text.adduser_main
                0x0000efa8      0x410 loginutils/lib.a(adduser.o)
                0x0000efa8                adduser_main
 .text.deluser_main
                0x0000f3b8      0x158 loginutils/lib.a(deluser.o)
                0x0000f3b8                deluser_main
 .text.bcode    0x0000f510       0x2c loginutils/lib.a(getty.o)
 .text.set_tty_attrs
                0x0000f53c       0x30 loginutils/lib.a(getty.o)
 .text.finalize_tty_attrs
                0x0000f56c       0x8c loginutils/lib.a(getty.o)
 .text.alarm_handler
                0x0000f5f8       0x10 loginutils/lib.a(getty.o)
 .text.getty_main
                0x0000f608      0x7dc loginutils/lib.a(getty.o)
                0x0000f608                getty_main
 .text.alarm_handler
                0x0000fde4       0x3c loginutils/lib.a(login.o)
 .text.login_main
                0x0000fe20      0x37c loginutils/lib.a(login.o)
                0x0000fe20                login_main
 .text.passwd_main
                0x0001019c      0x3ac loginutils/lib.a(passwd.o)
                0x0001019c                passwd_main
 .text.delete_cronfile
                0x00010548       0xb4 miscutils/lib.a(crond.o)
 .text.crondlog
                0x000105fc       0xe0 miscutils/lib.a(crond.o)
 .text.ParseField
                0x000106dc      0x234 miscutils/lib.a(crond.o)
 .text.load_crontab
                0x00010910      0x308 miscutils/lib.a(crond.o)
 .text.rescan_crontab_dir
                0x00010c18       0xc4 miscutils/lib.a(crond.o)
 .text.safe_setenv
                0x00010cdc       0x40 miscutils/lib.a(crond.o)
 .text.fork_job
                0x00010d1c      0x1c4 miscutils/lib.a(crond.o)
 .text.crond_main
                0x00010ee0      0x67c miscutils/lib.a(crond.o)
                0x00010ee0                crond_main
 .text.edit_file
                0x0001155c       0xc0 miscutils/lib.a(crontab.o)
 .text.crontab_main
                0x0001161c      0x2b8 miscutils/lib.a(crontab.o)
                0x0001161c                crontab_main
 .text.parse_opts
                0x000118d4       0x34 miscutils/lib.a(hdparm.o)
 .text.parse_opts_0_1
                0x00011908        0xc miscutils/lib.a(hdparm.o)
 .text.parse_opts_0_max
                0x00011914        0xc miscutils/lib.a(hdparm.o)
 .text.parse_opts_0_INTMAX
                0x00011920        0xc miscutils/lib.a(hdparm.o)
 .text.parse_xfermode
                0x0001192c       0xc0 miscutils/lib.a(hdparm.o)
 .text.read_big_block
                0x000119ec       0x3c miscutils/lib.a(hdparm.o)
 .text.xprint_ascii
                0x00011a28       0x94 miscutils/lib.a(hdparm.o)
 .text.mode_loop
                0x00011abc       0x88 miscutils/lib.a(hdparm.o)
 .text.print_flag
                0x00011b44       0x1c miscutils/lib.a(hdparm.o)
 .text.on_off   0x00011b60       0x2c miscutils/lib.a(hdparm.o)
 .text.print_flag_on_off
                0x00011b8c       0x30 miscutils/lib.a(hdparm.o)
 .text.print_value_on_off
                0x00011bbc       0x30 miscutils/lib.a(hdparm.o)
 .text.bus_state_value
                0x00011bec       0x4c miscutils/lib.a(hdparm.o)
 .text.identify
                0x00011c38     0x1224 miscutils/lib.a(hdparm.o)
 .text.identify_from_stdin
                0x00012e5c       0x9c miscutils/lib.a(hdparm.o)
 .text.dump_identity
                0x00012ef8      0x48c miscutils/lib.a(hdparm.o)
 .text.seek_to_zero
                0x00013384       0x24 miscutils/lib.a(hdparm.o)
 .text.flush_buffer_cache
                0x000133a8       0x74 miscutils/lib.a(hdparm.o)
 .text.do_time  0x0001341c      0x1fc miscutils/lib.a(hdparm.o)
 .text.ioctl_alt_func.clone.0
                0x00013618       0x4c miscutils/lib.a(hdparm.o)
 .text.process_dev
                0x00013664      0xe18 miscutils/lib.a(hdparm.o)
 .text.hdparm_main
                0x0001447c      0x458 miscutils/lib.a(hdparm.o)
                0x0001447c                hdparm_main
 .text.clear_line
                0x000148d4       0x2c miscutils/lib.a(less.o)
 .text.print_statusline
                0x00014900       0x38 miscutils/lib.a(less.o)
 .text.read_lines
                0x00014938      0x2dc miscutils/lib.a(less.o)
 .text.move_cursor
                0x00014c14       0x24 miscutils/lib.a(less.o)
 .text.print_hilite
                0x00014c38       0x1c miscutils/lib.a(less.o)
 .text.print_ascii
                0x00014c54      0x18c miscutils/lib.a(less.o)
 .text.status_print
                0x00014de0       0x90 miscutils/lib.a(less.o)
 .text.buffer_print
                0x00014e70       0x48 miscutils/lib.a(less.o)
 .text.buffer_fill_and_print
                0x00014eb8       0x78 miscutils/lib.a(less.o)
 .text.reinitialize
                0x00014f30       0xbc miscutils/lib.a(less.o)
 .text.change_file
                0x00014fec       0x80 miscutils/lib.a(less.o)
 .text.buffer_down
                0x0001506c       0x84 miscutils/lib.a(less.o)
 .text.buffer_up
                0x000150f0       0x34 miscutils/lib.a(less.o)
 .text.buffer_line
                0x00015124       0x44 miscutils/lib.a(less.o)
 .text.set_tty_cooked
                0x00015168       0x2c miscutils/lib.a(less.o)
 .text.less_exit
                0x00015194       0x24 miscutils/lib.a(less.o)
 .text.getch_nowait
                0x000151b8      0x108 miscutils/lib.a(less.o)
 .text.less_getch
                0x000152c0       0x50 miscutils/lib.a(less.o)
 .text.less_gets
                0x00015310       0xd0 miscutils/lib.a(less.o)
 .text.sig_catcher
                0x000153e0        0x8 miscutils/lib.a(less.o)
 .text.examine_file
                0x000153e8       0x90 miscutils/lib.a(less.o)
 .text.less_main
                0x00015478      0x748 miscutils/lib.a(less.o)
                0x00015478                less_main
 .text.exit_unlock
                0x00015bc0       0x20 miscutils/lib.a(lock.o)
 .text.lock_main
                0x00015be0      0x2b4 miscutils/lib.a(lock.o)
                0x00015be0                lock_main
 .text.next_good_eraseblock
                0x00015e94       0xa4 miscutils/lib.a(nandwrite.o)
 .text.dump_bad
                0x00015f38       0x84 miscutils/lib.a(nandwrite.o)
 .text.nandwrite_main
                0x00015fbc      0x43c miscutils/lib.a(nandwrite.o)
                0x00015fbc                nandwrite_main
 .text.serial_open
                0x000163f8       0x38 miscutils/lib.a(setserial.o)
 .text.index_in_strings_case_insensitive
                0x00016430       0x58 miscutils/lib.a(setserial.o)
 .text.get_numeric
                0x00016488       0x18 miscutils/lib.a(setserial.o)
 .text.serial_ctl
                0x000164a0       0xc4 miscutils/lib.a(setserial.o)
 .text.print_flag
                0x00016564       0x30 miscutils/lib.a(setserial.o)
 .text.setserial_main
                0x00016594      0x5a0 miscutils/lib.a(setserial.o)
                0x00016594                setserial_main
 .text.strings_main
                0x00016b34      0x1e4 miscutils/lib.a(strings.o)
                0x00016b34                strings_main
 .text.taskset_main
                0x00016d18      0x260 miscutils/lib.a(taskset.o)
                0x00016d18                taskset_main
 .text.ptok     0x00016f78       0x34 miscutils/lib.a(time.o)
 .text.run_command
                0x00016fac       0xe0 miscutils/lib.a(time.o)
 .text.time_main
                0x0001708c      0x63c miscutils/lib.a(time.o)
                0x0001708c                time_main
 .text.get_num_from_file
                0x000176c8       0x7c miscutils/lib.a(ubi_tools.o)
 .text.ubi_tools_main
                0x00017744      0x464 miscutils/lib.a(ubi_tools.o)
                0x00017744                ubi_tools_main
 .text.watchdog_shutdown
                0x00017ba8       0x3c miscutils/lib.a(watchdog.o)
 .text.watchdog_main
                0x00017be4      0x144 miscutils/lib.a(watchdog.o)
                0x00017be4                watchdog_main
 .text.order_dep_list
                0x00017d28       0x98 modutils/lib.a(depmod.o)
 .text.parse_module
                0x00017dc0      0x114 modutils/lib.a(depmod.o)
 .text.depmod_main
                0x00017ed4      0x1d0 modutils/lib.a(depmod.o)
                0x00017ed4                depmod_main
 .text.insmod_main
                0x000180a4       0x54 modutils/lib.a(insmod.o)
                0x000180a4                insmod_main
 .text.lsmod_main
                0x000180f8      0x10c modutils/lib.a(lsmod.o)
                0x000180f8                lsmod_main
 .text.humanly_readable_name
                0x00018204       0x14 modutils/lib.a(modprobe.o)
 .text.read_config
                0x00018218       0x2c modutils/lib.a(modprobe.o)
 .text.helper_get_module
                0x00018244       0xb8 modutils/lib.a(modprobe.o)
 .text.add_probe
                0x000182fc       0x6c modutils/lib.a(modprobe.o)
 .text.gather_options_str
                0x00018368       0x6c modutils/lib.a(modprobe.o)
 .text.config_file_action
                0x000183d4      0x1fc modutils/lib.a(modprobe.o)
 .text.do_modprobe
                0x000185d0      0x2c8 modutils/lib.a(modprobe.o)
 .text.modprobe_main
                0x00018898      0x420 modutils/lib.a(modprobe.o)
                0x00018898                modprobe_main
 .text.replace  0x00018cb8       0x1c modutils/lib.a(modutils.o)
                0x00018cb8                replace
 .text.string_to_llist
                0x00018cd4       0x64 modutils/lib.a(modutils.o)
                0x00018cd4                string_to_llist
 .text.filename2modname
                0x00018d38       0x78 modutils/lib.a(modutils.o)
                0x00018d38                filename2modname
 .text.parse_cmdline_module_options
                0x00018db0       0xc4 modutils/lib.a(modutils.o)
                0x00018db0                parse_cmdline_module_options
 .text.bb_init_module
                0x00018e74       0x78 modutils/lib.a(modutils.o)
                0x00018e74                bb_init_module
 .text.bb_delete_module
                0x00018eec       0x28 modutils/lib.a(modutils.o)
                0x00018eec                bb_delete_module
 .text.moderror
                0x00018f14       0x70 modutils/lib.a(modutils.o)
                0x00018f14                moderror
 .text.rmmod_main
                0x00018f84       0xf4 modutils/lib.a(rmmod.o)
                0x00018f84                rmmod_main
 .text.arp_show
                0x00019078      0x2e0 networking/lib.a(arp.o)
 .text.arp_main
                0x00019358      0x624 networking/lib.a(arp.o)
                0x00019358                arp_main
 .text.finish   0x0001997c       0xa0 networking/lib.a(arping.o)
 .text.catcher  0x00019a1c      0x188 networking/lib.a(arping.o)
 .text.arping_main
                0x00019ba4      0x788 networking/lib.a(arping.o)
                0x00019ba4                arping_main
 .text.replace_char
                0x0001a32c       0x30 networking/lib.a(ftpd.o)
 .text.pasv_active
                0x0001a35c       0x1c networking/lib.a(ftpd.o)
 .text.verbose_log
                0x0001a378       0x30 networking/lib.a(ftpd.o)
 .text.cmdio_write_ok
                0x0001a3a8       0x40 networking/lib.a(ftpd.o)
 .text.cmdio_write_error
                0x0001a3e8       0x40 networking/lib.a(ftpd.o)
 .text.escape_text
                0x0001a428       0xa4 networking/lib.a(ftpd.o)
 .text.cmdio_write
                0x0001a4cc       0x70 networking/lib.a(ftpd.o)
 .text.handle_cwd
                0x0001a53c       0x44 networking/lib.a(ftpd.o)
 .text.cmdio_write_raw
                0x0001a580       0x3c networking/lib.a(ftpd.o)
 .text.port_or_pasv_was_seen
                0x0001a5bc       0x44 networking/lib.a(ftpd.o)
 .text.port_pasv_cleanup
                0x0001a600       0x38 networking/lib.a(ftpd.o)
 .text.get_remote_transfer_fd
                0x0001a638       0x94 networking/lib.a(ftpd.o)
 .text.handle_dir_common
                0x0001a6cc      0x1b0 networking/lib.a(ftpd.o)
 .text.bind_for_passive_mode
                0x0001a87c       0x98 networking/lib.a(ftpd.o)
 .text.timeout_handler
                0x0001a914       0x94 networking/lib.a(ftpd.o)
 .text.handle_upload_common
                0x0001a9a8      0x19c networking/lib.a(ftpd.o)
 .text.ftpd_main
                0x0001ab44      0xae4 networking/lib.a(ftpd.o)
                0x0001ab44                ftpd_main
 .text.ftp_die  0x0001b628       0x54 networking/lib.a(ftpgetput.o)
 .text.ftpcmd   0x0001b67c       0xcc networking/lib.a(ftpgetput.o)
 .text.xconnect_ftpdata
                0x0001b748       0xb8 networking/lib.a(ftpgetput.o)
 .text.pump_data_and_QUIT
                0x0001b800       0x70 networking/lib.a(ftpgetput.o)
 .text.ftp_receive
                0x0001b870      0x16c networking/lib.a(ftpgetput.o)
 .text.ftp_send
                0x0001b9dc       0x70 networking/lib.a(ftpgetput.o)
 .text.ftpgetput_main
                0x0001ba4c      0x1d8 networking/lib.a(ftpgetput.o)
                0x0001ba4c                ftpgetput_main
 .text.do_sethostname
                0x0001bc24       0x84 networking/lib.a(hostname.o)
 .text.hostname_main
                0x0001bca8      0x170 networking/lib.a(hostname.o)
                0x0001bca8                hostname_main
 .text.scan_ip  0x0001be18       0xd0 networking/lib.a(httpd.o)
 .text.checkPermIP
                0x0001bee8       0x5c networking/lib.a(httpd.o)
 .text.free_llist
                0x0001bf44       0x30 networking/lib.a(httpd.o)
 .text.parse_conf
                0x0001bf74      0x5c0 networking/lib.a(httpd.o)
 .text.sighup_handler
                0x0001c534       0x10 networking/lib.a(httpd.o)
 .text.get_line
                0x0001c544       0xb0 networking/lib.a(httpd.o)
 .text.check_user_passwd
                0x0001c5f4      0x1cc networking/lib.a(httpd.o)
 .text.log_and_exit
                0x0001c7c0       0x40 networking/lib.a(httpd.o)
 .text.cgi_io_loop_and_exit
                0x0001c800      0x278 networking/lib.a(httpd.o)
 .text.setenv1  0x0001ca78       0x24 networking/lib.a(httpd.o)
 .text.send_file_and_exit
                0x0001ca9c      0x3f8 networking/lib.a(httpd.o)
 .text.send_headers
                0x0001ce94      0x34c networking/lib.a(httpd.o)
 .text.send_headers_and_exit
                0x0001d1e0       0x20 networking/lib.a(httpd.o)
 .text.send_cgi_and_exit
                0x0001d200      0x414 networking/lib.a(httpd.o)
 .text.send_REQUEST_TIMEOUT_and_exit
                0x0001d614        0xc networking/lib.a(httpd.o)
 .text.handle_incoming_and_exit
                0x0001d620      0xc14 networking/lib.a(httpd.o)
 .text.httpd_main
                0x0001e234      0x3a0 networking/lib.a(httpd.o)
                0x0001e234                httpd_main
 .text.ifconfig_main
                0x0001e5d4      0x4c8 networking/lib.a(ifconfig.o)
                0x0001e5d4                ifconfig_main
 .text.manual_up_down6
                0x0001ea9c        0x8 networking/lib.a(ifupdown.o)
 .text.manual_up_down
                0x0001eaa4        0x8 networking/lib.a(ifupdown.o)
 .text.check    0x0001eaac        0xc networking/lib.a(ifupdown.o)
 .text.strncmpz
                0x0001eab8       0x24 networking/lib.a(ifupdown.o)
 .text.get_var  0x0001eadc       0x90 networking/lib.a(ifupdown.o)
 .text.find_iface_state
                0x0001eb6c       0x5c networking/lib.a(ifupdown.o)
 .text.addstr   0x0001ebc8       0x5c networking/lib.a(ifupdown.o)
 .text.execute  0x0001ec24      0x308 networking/lib.a(ifupdown.o)
 .text.loopback_down6
                0x0001ef2c       0x18 networking/lib.a(ifupdown.o)
 .text.loopback_up6
                0x0001ef44       0x50 networking/lib.a(ifupdown.o)
 .text.static_down6
                0x0001ef94       0x18 networking/lib.a(ifupdown.o)
 .text.static_up6
                0x0001efac       0x68 networking/lib.a(ifupdown.o)
 .text.v4tunnel_down
                0x0001f014       0x18 networking/lib.a(ifupdown.o)
 .text.v4tunnel_up
                0x0001f02c       0x80 networking/lib.a(ifupdown.o)
 .text.loopback_down
                0x0001f0ac       0x50 networking/lib.a(ifupdown.o)
 .text.loopback_up
                0x0001f0fc       0x50 networking/lib.a(ifupdown.o)
 .text.bootp_up
                0x0001f14c       0x18 networking/lib.a(ifupdown.o)
 .text.static_down
                0x0001f164       0x50 networking/lib.a(ifupdown.o)
 .text.static_up
                0x0001f1b4       0x68 networking/lib.a(ifupdown.o)
 .text.ppp_down
                0x0001f21c       0x18 networking/lib.a(ifupdown.o)
 .text.ppp_up   0x0001f234       0x18 networking/lib.a(ifupdown.o)
 .text.wvdial_down
                0x0001f24c       0x18 networking/lib.a(ifupdown.o)
 .text.wvdial_up
                0x0001f264       0x18 networking/lib.a(ifupdown.o)
 .text.dhcp_up  0x0001f27c       0x90 networking/lib.a(ifupdown.o)
 .text.dhcp_down
                0x0001f30c       0x94 networking/lib.a(ifupdown.o)
 .text.next_word
                0x0001f3a0       0x5c networking/lib.a(ifupdown.o)
 .text.popen2   0x0001f3fc       0xbc networking/lib.a(ifupdown.o)
 .text.read_iface_state
                0x0001f4b8       0x64 networking/lib.a(ifupdown.o)
 .text.setlocalenv
                0x0001f51c       0x88 networking/lib.a(ifupdown.o)
 .text.set_environ
                0x0001f5a4      0x16c networking/lib.a(ifupdown.o)
 .text.doit     0x0001f710       0xb4 networking/lib.a(ifupdown.o)
 .text.execute_all
                0x0001f7c4       0x70 networking/lib.a(ifupdown.o)
 .text.iface_up
                0x0001f834       0xb0 networking/lib.a(ifupdown.o)
 .text.iface_down
                0x0001f8e4       0xb0 networking/lib.a(ifupdown.o)
 .text.read_interfaces
                0x0001f994      0x530 networking/lib.a(ifupdown.o)
 .text.ifupdown_main
                0x0001fec4      0x4ec networking/lib.a(ifupdown.o)
                0x0001fec4                ifupdown_main
 .text.remove_fd_from_set
                0x000203b0       0x40 networking/lib.a(inetd.o)
 .text.init_ring
                0x000203f0       0x30 networking/lib.a(inetd.o)
 .text.discard_dg
                0x00020420       0x24 networking/lib.a(inetd.o)
 .text.maybe_close
                0x00020444       0x14 networking/lib.a(inetd.o)
 .text.free_servtab_strings
                0x00020458       0x64 networking/lib.a(inetd.o)
 .text.bump_nofile
                0x000204bc       0xbc networking/lib.a(inetd.o)
 .text.add_fd_to_set
                0x00020578       0x80 networking/lib.a(inetd.o)
 .text.block_CHLD_HUP_ALRM
                0x000205f8       0x4c networking/lib.a(inetd.o)
 .text.restore_sigmask
                0x00020644       0x1c networking/lib.a(inetd.o)
 .text.rearm_alarm
                0x00020660       0x2c networking/lib.a(inetd.o)
 .text.xzalloc_lsa
                0x0002068c       0x38 networking/lib.a(inetd.o)
 .text.new_servtab
                0x000206c4       0x1c networking/lib.a(inetd.o)
 .text.unregister_rpc
                0x000206e0       0x4c networking/lib.a(inetd.o)
 .text.clean_up_and_exit
                0x0002072c       0x84 networking/lib.a(inetd.o)
 .text.reap_child
                0x000207b0       0xc8 networking/lib.a(inetd.o)
 .text.daytime_dg
                0x00020878       0xb4 networking/lib.a(inetd.o)
 .text.daytime_stream
                0x0002092c       0x3c networking/lib.a(inetd.o)
 .text.machtime
                0x00020968       0x40 networking/lib.a(inetd.o)
 .text.machtime_dg
                0x000209a8       0x88 networking/lib.a(inetd.o)
 .text.machtime_stream
                0x00020a30       0x28 networking/lib.a(inetd.o)
 .text.chargen_dg
                0x00020a58      0x104 networking/lib.a(inetd.o)
 .text.chargen_stream
                0x00020b5c       0x9c networking/lib.a(inetd.o)
 .text.discard_stream
                0x00020bf8       0x30 networking/lib.a(inetd.o)
 .text.echo_stream
                0x00020c28       0x40 networking/lib.a(inetd.o)
 .text.echo_dg  0x00020c68       0x90 networking/lib.a(inetd.o)
 .text.register_rpc
                0x00020cf8       0xd0 networking/lib.a(inetd.o)
 .text.prepare_socket_fd
                0x00020dc8      0x158 networking/lib.a(inetd.o)
 .text.reread_config_file
                0x00020f20      0x9a8 networking/lib.a(inetd.o)
 .text.retry_network_setup
                0x000218c8       0x7c networking/lib.a(inetd.o)
 .text.inetd_main
                0x00021944      0x8f4 networking/lib.a(inetd.o)
                0x00021944                inetd_main
 .text.get_afntype
                0x00022238       0x2c networking/lib.a(interface.o)
 .text.add_interface
                0x00022264       0x94 networking/lib.a(interface.o)
 .text.if_readconf
                0x000222f8       0xd0 networking/lib.a(interface.o)
 .text.if_readlist_proc
                0x000223c8      0x2a0 networking/lib.a(interface.o)
 .text.do_if_fetch
                0x00022668      0x308 networking/lib.a(interface.o)
 .text.print_bytes_scaled
                0x00022970       0xa4 networking/lib.a(interface.o)
 .text.UNSPEC_print
                0x00022a14       0x74 networking/lib.a(interface.o)
 .text.UNSPEC_sprint
                0x00022a88       0x28 networking/lib.a(interface.o)
 .text.INET6_input
                0x00022ab0       0x10 networking/lib.a(interface.o)
 .text.INET6_sprint
                0x00022ac0       0x50 networking/lib.a(interface.o)
 .text.INET_input
                0x00022b10       0x14 networking/lib.a(interface.o)
 .text.INET_sprint
                0x00022b24       0x54 networking/lib.a(interface.o)
 .text.ether_print
                0x00022b78       0x5c networking/lib.a(interface.o)
 .text.get_aftype
                0x00022bd4       0x40 networking/lib.a(interface.o)
                0x00022bd4                get_aftype
 .text.get_hwtype
                0x00022c14       0x40 networking/lib.a(interface.o)
                0x00022c14                get_hwtype
 .text.get_hwntype
                0x00022c54       0x2c networking/lib.a(interface.o)
                0x00022c54                get_hwntype
 .text.ife_print
                0x00022c80      0x5c0 networking/lib.a(interface.o)
 .text.display_interfaces
                0x00023240       0xd4 networking/lib.a(interface.o)
                0x00023240                display_interfaces
 .text.ip_do    0x00023314       0x20 networking/lib.a(ip.o)
 .text.ip_print_help
                0x00023334        0x8 networking/lib.a(ip.o)
 .text.ipaddr_main
                0x0002333c        0xc networking/lib.a(ip.o)
                0x0002333c                ipaddr_main
 .text.iplink_main
                0x00023348        0xc networking/lib.a(ip.o)
                0x00023348                iplink_main
 .text.iproute_main
                0x00023354        0xc networking/lib.a(ip.o)
                0x00023354                iproute_main
 .text.iprule_main
                0x00023360        0xc networking/lib.a(ip.o)
                0x00023360                iprule_main
 .text.iptunnel_main
                0x0002336c        0xc networking/lib.a(ip.o)
                0x0002336c                iptunnel_main
 .text.ip_main  0x00023378       0x50 networking/lib.a(ip.o)
                0x00023378                ip_main
 .text.nbdclient_main
                0x000233c8      0x230 networking/lib.a(nbd-client.o)
                0x000233c8                nbdclient_main
 .text.nc_main  0x000235f8      0x160 networking/lib.a(nc.o)
                0x000235f8                nc_main
 .text.prg_cache_get
                0x00023758       0x54 networking/lib.a(netstat.o)
 .text.dir_act  0x000237ac       0xf0 networking/lib.a(netstat.o)
 .text.add_to_prg_cache_if_socket
                0x0002389c      0x11c networking/lib.a(netstat.o)
 .text.do_info  0x000239b8       0x7c networking/lib.a(netstat.o)
 .text.build_ipv4_addr
                0x00023a34       0x28 networking/lib.a(netstat.o)
 .text.unix_do_one
                0x00023a5c      0x270 networking/lib.a(netstat.o)
 .text.build_ipv6_addr
                0x00023ccc       0x68 networking/lib.a(netstat.o)
 .text.scan_inet_proc_line
                0x00023d34       0xb8 networking/lib.a(netstat.o)
 .text.ip_port_str
                0x00023dec       0x98 networking/lib.a(netstat.o)
 .text.print_inet_line
                0x00023e84      0x104 networking/lib.a(netstat.o)
 .text.raw_do_one
                0x00023f88       0x98 networking/lib.a(netstat.o)
 .text.udp_do_one
                0x00024020       0xc0 networking/lib.a(netstat.o)
 .text.tcp_do_one
                0x000240e0       0x68 networking/lib.a(netstat.o)
 .text.netstat_main
                0x00024148      0x2a8 networking/lib.a(netstat.o)
                0x00024148                netstat_main
 .text.set_default_dns
                0x000243f0       0x68 networking/lib.a(nslookup.o)
 .text.print_host
                0x00024458       0xf0 networking/lib.a(nslookup.o)
 .text.nslookup_main
                0x00024548       0x8c networking/lib.a(nslookup.o)
                0x00024548                nslookup_main
 .text.unpack_tail
                0x000245d4      0x134 networking/lib.a(ping.o)
 .text.print_stats_and_exit
                0x00024708      0x144 networking/lib.a(ping.o)
 .text.sendping_tail.clone.1
                0x0002484c      0x10c networking/lib.a(ping.o)
 .text.sendping4
                0x00024958       0x64 networking/lib.a(ping.o)
 .text.sendping6
                0x000249bc       0x48 networking/lib.a(ping.o)
 .text.common_ping_main
                0x00024a04      0x788 networking/lib.a(ping.o)
 .text.ping_main
                0x0002518c        0x8 networking/lib.a(ping.o)
                0x0002518c                ping_main
 .text.ping6_main
                0x00025194        0x8 networking/lib.a(ping.o)
                0x00025194                ping6_main
 .text.set_flags
                0x0002519c       0x3c networking/lib.a(route.o)
 .text.kw_lookup
                0x000251d8       0x84 networking/lib.a(route.o)
 .text.INET6_displayroutes
                0x0002525c      0x200 networking/lib.a(route.o)
 .text.INET6_setroute
                0x0002545c      0x268 networking/lib.a(route.o)
 .text.INET_setroute
                0x000256c4      0x3d8 networking/lib.a(route.o)
 .text.bb_displayroutes
                0x00025a9c      0x1e8 networking/lib.a(route.o)
                0x00025a9c                bb_displayroutes
 .text.route_main
                0x00025c84      0x150 networking/lib.a(route.o)
                0x00025c84                route_main
 .text.connection_status
                0x00025dd4       0x2c networking/lib.a(tcpudp.o)
 .text.xsetenv_proto
                0x00025e00       0x44 networking/lib.a(tcpudp.o)
 .text.xsetenv_plain
                0x00025e44       0x3c networking/lib.a(tcpudp.o)
 .text.sig_term_handler
                0x00025e80       0x30 networking/lib.a(tcpudp.o)
 .text.sig_child_handler
                0x00025eb0       0xb4 networking/lib.a(tcpudp.o)
 .text.tcpudpsvd_main
                0x00025f64      0x818 networking/lib.a(tcpudp.o)
                0x00025f64                tcpudpsvd_main
 .text.ipsvd_perhost_init
                0x0002677c       0x30 networking/lib.a(tcpudp_perhost.o)
                0x0002677c                ipsvd_perhost_init
 .text.ipsvd_perhost_add
                0x000267ac       0x94 networking/lib.a(tcpudp_perhost.o)
                0x000267ac                ipsvd_perhost_add
 .text.ipsvd_perhost_remove
                0x00026840       0x64 networking/lib.a(tcpudp_perhost.o)
                0x00026840                ipsvd_perhost_remove
 .text.put_iac  0x000268a4       0x20 networking/lib.a(telnet.o)
 .text.iac_flush
                0x000268c4       0x2c networking/lib.a(telnet.o)
 .text.put_iac2
                0x000268f0       0x40 networking/lib.a(telnet.o)
 .text.rawmode  0x00026930       0x2c networking/lib.a(telnet.o)
 .text.cookmode
                0x0002695c       0x2c networking/lib.a(telnet.o)
 .text.setConMode
                0x00026988       0x80 networking/lib.a(telnet.o)
 .text.doexit   0x00026a08       0x14 networking/lib.a(telnet.o)
 .text.con_escape
                0x00026a1c      0x148 networking/lib.a(telnet.o)
 .text.handle_net_output
                0x00026b64       0x88 networking/lib.a(telnet.o)
 .text.telnet_main
                0x00026bec      0x60c networking/lib.a(telnet.o)
                0x00026bec                telnet_main
 .text.make_new_session
                0x000271f8      0x1dc networking/lib.a(telnetd.o)
 .text.free_session
                0x000273d4       0xb4 networking/lib.a(telnetd.o)
 .text.handle_sigchld
                0x00027488       0x64 networking/lib.a(telnetd.o)
 .text.telnetd_main
                0x000274ec      0x7f8 networking/lib.a(telnetd.o)
                0x000274ec                telnetd_main
 .text.tftp_main
                0x00027ce4      0x538 networking/lib.a(tftp.o)
                0x00027ce4                tftp_main
 .text.traceroute_main
                0x0002821c      0xad4 networking/lib.a(traceroute.o)
                0x0002821c                traceroute_main
 .text.xfind_str
                0x00028cf0       0x40 networking/lib.a(vconfig.o)
 .text.vconfig_main
                0x00028d30      0x138 networking/lib.a(vconfig.o)
                0x00028d30                vconfig_main
 .text.sanitize_string
                0x00028e68       0x20 networking/lib.a(wget.o)
 .text.alarm_handler
                0x00028e88       0x2c networking/lib.a(wget.o)
 .text.open_socket
                0x00028eb4       0x58 networking/lib.a(wget.o)
 .text.base64enc
                0x00028f0c       0x4c networking/lib.a(wget.o)
 .text.fgets_and_trim
                0x00028f58       0x6c networking/lib.a(wget.o)
 .text.reset_beg_range_to_zero
                0x00028fc4       0x44 networking/lib.a(wget.o)
 .text.parse_url
                0x00029008      0x1c0 networking/lib.a(wget.o)
 .text.gethdr   0x000291c8       0xe4 networking/lib.a(wget.o)
 .text.progress_meter
                0x000292ac       0xe0 networking/lib.a(wget.o)
 .text.retrieve_file_data
                0x0002938c      0x24c networking/lib.a(wget.o)
 .text.ftpcmd   0x000295d8       0x88 networking/lib.a(wget.o)
 .text.wget_main
                0x00029660      0xba4 networking/lib.a(wget.o)
                0x00029660                wget_main
 .text.pipe_out
                0x0002a204       0x6c networking/lib.a(whois.o)
 .text.whois_main
                0x0002a270       0x98 networking/lib.a(whois.o)
                0x0002a270                whois_main
 .text.ip_parse_common_args
                0x0002a308      0x100 networking/libiproute/lib.a(ip_parse_common_args.o)
                0x0002a308                ip_parse_common_args
 .text.ipaddr_modify
                0x0002a408      0x4fc networking/libiproute/lib.a(ipaddress.o)
 .text.flush_update
                0x0002a904       0x44 networking/libiproute/lib.a(ipaddress.o)
 .text.print_linkinfo
                0x0002a948      0x3a8 networking/libiproute/lib.a(ipaddress.o)
 .text.print_addrinfo
                0x0002acf0      0x51c networking/libiproute/lib.a(ipaddress.o)
 .text.store_nlmsg
                0x0002b20c       0x60 networking/libiproute/lib.a(ipaddress.o)
 .text.ipaddr_list_or_flush
                0x0002b26c      0x568 networking/libiproute/lib.a(ipaddress.o)
                0x0002b26c                ipaddr_list_or_flush
 .text.do_ipaddr
                0x0002b7d4       0x78 networking/libiproute/lib.a(ipaddress.o)
                0x0002b7d4                do_ipaddr
 .text.die_must_be_on_off
                0x0002b84c       0x14 networking/libiproute/lib.a(iplink.o)
 .text.get_ctl_fd
                0x0002b860       0x48 networking/libiproute/lib.a(iplink.o)
 .text.do_add_or_delete
                0x0002b8a8      0x4e0 networking/libiproute/lib.a(iplink.o)
 .text.do_iplink
                0x0002bd88      0x554 networking/libiproute/lib.a(iplink.o)
                0x0002bd88                do_iplink
 .text.iproute_reset_filter
                0x0002c2dc       0x30 networking/libiproute/lib.a(iproute.o)
 .text.flush_update
                0x0002c30c       0x44 networking/libiproute/lib.a(iproute.o)
 .text.print_route
                0x0002c350      0x744 networking/libiproute/lib.a(iproute.o)
 .text.iproute_get
                0x0002ca94      0x3f4 networking/libiproute/lib.a(iproute.o)
 .text.iproute_list_or_flush
                0x0002ce88      0x578 networking/libiproute/lib.a(iproute.o)
 .text.iproute_modify
                0x0002d400      0x4ac networking/libiproute/lib.a(iproute.o)
 .text.do_iproute
                0x0002d8ac       0xf0 networking/libiproute/lib.a(iproute.o)
                0x0002d8ac                do_iproute
 .text.iprule_modify
                0x0002d99c      0x3f0 networking/libiproute/lib.a(iprule.o)
 .text.print_rule
                0x0002dd8c      0x2dc networking/libiproute/lib.a(iprule.o)
 .text.do_iprule
                0x0002e068       0xc0 networking/libiproute/lib.a(iprule.o)
                0x0002e068                do_iprule
 .text.do_get_ioctl
                0x0002e128       0x68 networking/libiproute/lib.a(iptunnel.o)
 .text.parse_args
                0x0002e190      0x6a4 networking/libiproute/lib.a(iptunnel.o)
 .text.do_add_ioctl
                0x0002e834       0x9c networking/libiproute/lib.a(iptunnel.o)
 .text.do_add   0x0002e8d0       0xa4 networking/libiproute/lib.a(iptunnel.o)
 .text.do_del_ioctl
                0x0002e974       0x6c networking/libiproute/lib.a(iptunnel.o)
 .text.print_tunnel
                0x0002e9e0      0x2dc networking/libiproute/lib.a(iptunnel.o)
 .text.do_tunnels_list
                0x0002ecbc      0x294 networking/libiproute/lib.a(iptunnel.o)
 .text.do_iptunnel
                0x0002ef50      0x184 networking/libiproute/lib.a(iptunnel.o)
                0x0002ef50                do_iptunnel
 .text.xrtnl_open
                0x0002f0d4       0x6c networking/libiproute/lib.a(libnetlink.o)
                0x0002f0d4                xrtnl_open
 .text.rtnl_send
                0x0002f140       0x54 networking/libiproute/lib.a(libnetlink.o)
                0x0002f140                rtnl_send
 .text.xrtnl_wilddump_request
                0x0002f194       0x54 networking/libiproute/lib.a(libnetlink.o)
                0x0002f194                xrtnl_wilddump_request
 .text.xrtnl_dump_filter
                0x0002f1e8      0x1f0 networking/libiproute/lib.a(libnetlink.o)
                0x0002f1e8                xrtnl_dump_filter
 .text.rtnl_talk
                0x0002f3d8      0x288 networking/libiproute/lib.a(libnetlink.o)
                0x0002f3d8                rtnl_talk
 .text.addattr32
                0x0002f660       0x68 networking/libiproute/lib.a(libnetlink.o)
                0x0002f660                addattr32
 .text.addattr_l
                0x0002f6c8       0x68 networking/libiproute/lib.a(libnetlink.o)
                0x0002f6c8                addattr_l
 .text.rta_addattr32
                0x0002f730       0x68 networking/libiproute/lib.a(libnetlink.o)
                0x0002f730                rta_addattr32
 .text.parse_rtattr
                0x0002f798       0x6c networking/libiproute/lib.a(libnetlink.o)
                0x0002f798                parse_rtattr
 .text.ll_addr_n2a
                0x0002f804       0xcc networking/libiproute/lib.a(ll_addr.o)
                0x0002f804                ll_addr_n2a
 .text.ll_addr_a2n
                0x0002f8d0       0xe8 networking/libiproute/lib.a(ll_addr.o)
                0x0002f8d0                ll_addr_a2n
 .text.find_by_index
                0x0002f9b8       0x48 networking/libiproute/lib.a(ll_map.o)
 .text.ll_remember_index
                0x0002fa00      0x12c networking/libiproute/lib.a(ll_map.o)
                0x0002fa00                ll_remember_index
 .text.ll_idx_n2a
                0x0002fb2c       0x48 networking/libiproute/lib.a(ll_map.o)
                0x0002fb2c                ll_idx_n2a
 .text.ll_index_to_name
                0x0002fb74        0xc networking/libiproute/lib.a(ll_map.o)
                0x0002fb74                ll_index_to_name
 .text.ll_index_to_flags
                0x0002fb80       0x24 networking/libiproute/lib.a(ll_map.o)
                0x0002fb80                ll_index_to_flags
 .text.xll_name_to_index
                0x0002fba4       0x88 networking/libiproute/lib.a(ll_map.o)
                0x0002fba4                xll_name_to_index
 .text.ll_init_map
                0x0002fc2c       0x34 networking/libiproute/lib.a(ll_map.o)
                0x0002fc2c                ll_init_map
 .text.ll_type_n2a
                0x0002fc60       0x6c networking/libiproute/lib.a(ll_types.o)
                0x0002fc60                ll_type_n2a
 .text.rtnl_tab_initialize
                0x0002fccc       0x94 networking/libiproute/lib.a(rt_names.o)
 .text.rtnl_rttable_initialize
                0x0002fd60       0x80 networking/libiproute/lib.a(rt_names.o)
 .text.rtnl_rtdsfield_initialize
                0x0002fde0       0x50 networking/libiproute/lib.a(rt_names.o)
 .text.rtnl_rtrealm_initialize
                0x0002fe30       0x50 networking/libiproute/lib.a(rt_names.o)
 .text.rtnl_rtscope_initialize
                0x0002fe80       0x84 networking/libiproute/lib.a(rt_names.o)
 .text.rtnl_rtprot_initialize
                0x0002ff04       0x74 networking/libiproute/lib.a(rt_names.o)
 .text.rtnl_a2n
                0x0002ff78       0xa4 networking/libiproute/lib.a(rt_names.o)
 .text.rtnl_rtprot_a2n
                0x0003001c       0x30 networking/libiproute/lib.a(rt_names.o)
                0x0003001c                rtnl_rtprot_a2n
 .text.rtnl_rtscope_n2a
                0x0003004c       0x54 networking/libiproute/lib.a(rt_names.o)
                0x0003004c                rtnl_rtscope_n2a
 .text.rtnl_rtscope_a2n
                0x000300a0       0x30 networking/libiproute/lib.a(rt_names.o)
                0x000300a0                rtnl_rtscope_a2n
 .text.rtnl_rtrealm_a2n
                0x000300d0       0x30 networking/libiproute/lib.a(rt_names.o)
                0x000300d0                rtnl_rtrealm_a2n
 .text.rtnl_rtrealm_n2a
                0x00030100       0x54 networking/libiproute/lib.a(rt_names.o)
                0x00030100                rtnl_rtrealm_n2a
 .text.rtnl_dsfield_n2a
                0x00030154       0x60 networking/libiproute/lib.a(rt_names.o)
                0x00030154                rtnl_dsfield_n2a
 .text.rtnl_dsfield_a2n
                0x000301b4       0x30 networking/libiproute/lib.a(rt_names.o)
                0x000301b4                rtnl_dsfield_a2n
 .text.rtnl_rttable_n2a
                0x000301e4       0x54 networking/libiproute/lib.a(rt_names.o)
                0x000301e4                rtnl_rttable_n2a
 .text.rtnl_rttable_a2n
                0x00030238       0x30 networking/libiproute/lib.a(rt_names.o)
                0x00030238                rtnl_rttable_a2n
 .text.rtnl_rtntype_n2a
                0x00030268       0xf4 networking/libiproute/lib.a(rtm_map.o)
                0x00030268                rtnl_rtntype_n2a
 .text.rtnl_rtntype_a2n
                0x0003035c      0x114 networking/libiproute/lib.a(rtm_map.o)
                0x0003035c                rtnl_rtntype_a2n
 .text.get_rt_realms
                0x00030470       0xa4 networking/libiproute/lib.a(rtm_map.o)
                0x00030470                get_rt_realms
 .text.get_addr_1
                0x00030514      0x178 networking/libiproute/lib.a(utils.o)
                0x00030514                get_addr_1
 .text.get_addr
                0x0003068c       0x4c networking/libiproute/lib.a(utils.o)
                0x0003068c                get_addr
 .text.get_prefix
                0x000306d8      0x1c0 networking/libiproute/lib.a(utils.o)
                0x000306d8                get_prefix
 .text.get_addr32
                0x00030898       0x50 networking/libiproute/lib.a(utils.o)
                0x00030898                get_addr32
 .text.incomplete_command
                0x000308e8       0x10 networking/libiproute/lib.a(utils.o)
                0x000308e8                incomplete_command
 .text.invarg   0x000308f8       0x1c networking/libiproute/lib.a(utils.o)
                0x000308f8                invarg
 .text.get_u16  0x00030914       0x64 networking/libiproute/lib.a(utils.o)
                0x00030914                get_u16
 .text.get_u32  0x00030978       0x48 networking/libiproute/lib.a(utils.o)
                0x00030978                get_u32
 .text.get_unsigned
                0x000309c0       0x48 networking/libiproute/lib.a(utils.o)
                0x000309c0                get_unsigned
 .text.duparg   0x00030a08       0x1c networking/libiproute/lib.a(utils.o)
                0x00030a08                duparg
 .text.duparg2  0x00030a24       0x1c networking/libiproute/lib.a(utils.o)
                0x00030a24                duparg2
 .text.inet_addr_match
                0x00030a40       0x8c networking/libiproute/lib.a(utils.o)
                0x00030a40                inet_addr_match
 .text.rt_addr_n2a
                0x00030acc       0x28 networking/libiproute/lib.a(utils.o)
                0x00030acc                rt_addr_n2a
 .text.alloc_dhcp_option
                0x00030af4       0x58 networking/udhcp/lib.a(dhcpc.o)
 .text.init_packet
                0x00030b4c       0xa0 networking/udhcp/lib.a(dhcpc.o)
 .text.add_client_options
                0x00030bec      0x13c networking/udhcp/lib.a(dhcpc.o)
 .text.raw_bcast_from_client_config_ifindex
                0x00030d28       0x44 networking/udhcp/lib.a(dhcpc.o)
 .text.send_discover
                0x00030d6c       0x5c networking/udhcp/lib.a(dhcpc.o)
 .text.send_select
                0x00030dc8       0x78 networking/udhcp/lib.a(dhcpc.o)
 .text.bcast_or_ucast
                0x00030e40       0x34 networking/udhcp/lib.a(dhcpc.o)
 .text.send_renew
                0x00030e74       0x58 networking/udhcp/lib.a(dhcpc.o)
 .text.send_release
                0x00030ecc       0x58 networking/udhcp/lib.a(dhcpc.o)
 .text.udhcp_recv_raw_packet
                0x00030f24      0x228 networking/udhcp/lib.a(dhcpc.o)
 .text.client_background
                0x0003114c       0x38 networking/udhcp/lib.a(dhcpc.o)
 .text.sprint_nip
                0x00031184       0x40 networking/udhcp/lib.a(dhcpc.o)
 .text.change_listen_mode
                0x000311c4       0xf8 networking/udhcp/lib.a(dhcpc.o)
 .text.xmalloc_optname_optval.clone.0
                0x000312bc      0x440 networking/udhcp/lib.a(dhcpc.o)
 .text.udhcp_run_script
                0x000316fc      0x38c networking/udhcp/lib.a(dhcpc.o)
 .text.perform_release
                0x00031a88       0x9c networking/udhcp/lib.a(dhcpc.o)
 .text.udhcpc_main
                0x00031b24      0xa3c networking/udhcp/lib.a(dhcpc.o)
                0x00031b24                udhcpc_main
 .text.select_lease_time
                0x00032560       0x78 networking/udhcp/lib.a(dhcpd.o)
 .text.init_packet
                0x000325d8      0x104 networking/udhcp/lib.a(dhcpd.o)
 .text.add_server_options
                0x000326dc       0x88 networking/udhcp/lib.a(dhcpd.o)
 .text.send_packet
                0x00032764       0xbc networking/udhcp/lib.a(dhcpd.o)
 .text.send_offer
                0x00032820      0x19c networking/udhcp/lib.a(dhcpd.o)
 .text.send_ACK
                0x000329bc       0xbc networking/udhcp/lib.a(dhcpd.o)
 .text.send_NAK
                0x00032a78       0x30 networking/udhcp/lib.a(dhcpd.o)
 .text.send_inform
                0x00032aa8       0x38 networking/udhcp/lib.a(dhcpd.o)
 .text.udhcpd_main
                0x00032ae0      0x5e4 networking/udhcp/lib.a(dhcpd.o)
                0x00032ae0                udhcpd_main
 .text.get_dhcp_packet_type
                0x000330c4       0x34 networking/udhcp/lib.a(dhcprelay.o)
 .text.sendto_ip4
                0x000330f8       0x4c networking/udhcp/lib.a(dhcprelay.o)
 .text.dhcprelay_main
                0x00033144      0x438 networking/udhcp/lib.a(dhcprelay.o)
                0x00033144                dhcprelay_main
 .text.dname_dec
                0x0003357c      0x174 networking/udhcp/lib.a(domain_codec.o)
                0x0003357c                dname_dec
 .text.dname_enc
                0x000336f0      0x23c networking/udhcp/lib.a(domain_codec.o)
                0x000336f0                dname_enc
 .text.dumpleases_main
                0x0003392c      0x254 networking/udhcp/lib.a(dumpleases.o)
                0x0003392c                dumpleases_main
 .text.read_staticlease
                0x00033b80       0x88 networking/udhcp/lib.a(files.o)
 .text.read_u32
                0x00033c08       0x38 networking/udhcp/lib.a(files.o)
 .text.read_str
                0x00033c40       0x2c networking/udhcp/lib.a(files.o)
 .text.read_config
                0x00033c6c      0x13c networking/udhcp/lib.a(files.o)
                0x00033c6c                read_config
 .text.write_leases
                0x00033da8      0x1d4 networking/udhcp/lib.a(files.o)
                0x00033da8                write_leases
 .text.read_leases
                0x00033f7c      0x13c networking/udhcp/lib.a(files.o)
                0x00033f7c                read_leases
 .text.add_lease
                0x000340b8      0x1d0 networking/udhcp/lib.a(leases.o)
                0x000340b8                add_lease
 .text.nobody_responds_to_arp
                0x00034288       0x6c networking/udhcp/lib.a(leases.o)
 .text.is_expired_lease
                0x000342f4       0x3c networking/udhcp/lib.a(leases.o)
                0x000342f4                is_expired_lease
 .text.find_lease_by_mac
                0x00034330       0x68 networking/udhcp/lib.a(leases.o)
                0x00034330                find_lease_by_mac
 .text.find_lease_by_nip
                0x00034398       0x6c networking/udhcp/lib.a(leases.o)
                0x00034398                find_lease_by_nip
 .text.find_free_or_expired_nip
                0x00034404      0x19c networking/udhcp/lib.a(leases.o)
                0x00034404                find_free_or_expired_nip
 .text.udhcp_init_header
                0x000345a0       0x8c networking/udhcp/lib.a(packet.o)
                0x000345a0                udhcp_init_header
 .text.udhcp_recv_kernel_packet
                0x0003462c       0x7c networking/udhcp/lib.a(packet.o)
                0x0003462c                udhcp_recv_kernel_packet
 .text.udhcp_send_raw_packet
                0x000346a8      0x218 networking/udhcp/lib.a(packet.o)
                0x000346a8                udhcp_send_raw_packet
 .text.udhcp_send_kernel_packet
                0x000348c0      0x150 networking/udhcp/lib.a(packet.o)
                0x000348c0                udhcp_send_kernel_packet
 .text.signal_handler
                0x00034a10       0x38 networking/udhcp/lib.a(signalpipe.o)
 .text.udhcp_sp_setup
                0x00034a48       0x44 networking/udhcp/lib.a(signalpipe.o)
                0x00034a48                udhcp_sp_setup
 .text.udhcp_sp_fd_set
                0x00034a8c       0x88 networking/udhcp/lib.a(signalpipe.o)
                0x00034a8c                udhcp_sp_fd_set
 .text.udhcp_sp_read
                0x00034b14       0x4c networking/udhcp/lib.a(signalpipe.o)
                0x00034b14                udhcp_sp_read
 .text.udhcp_read_interface
                0x00034b60      0x120 networking/udhcp/lib.a(socket.o)
                0x00034b60                udhcp_read_interface
 .text.udhcp_listen_socket
                0x00034c80       0xc0 networking/udhcp/lib.a(socket.o)
                0x00034c80                udhcp_listen_socket
 .text.add_static_lease
                0x00034d40       0x50 networking/udhcp/lib.a(static_leases.o)
                0x00034d40                add_static_lease
 .text.get_static_nip_by_mac
                0x00034d90       0x44 networking/udhcp/lib.a(static_leases.o)
                0x00034d90                get_static_nip_by_mac
 .text.is_nip_reserved
                0x00034dd4       0x28 networking/udhcp/lib.a(static_leases.o)
                0x00034dd4                is_nip_reserved
 .text.arpping  0x00034dfc      0x200 networking/udhcp/lib.a(arpping.o)
                0x00034dfc                arpping
 .text.udhcp_option_idx
                0x00034ffc       0x74 networking/udhcp/lib.a(common.o)
                0x00034ffc                udhcp_option_idx
 .text.udhcp_get_option
                0x00035070       0xd0 networking/udhcp/lib.a(common.o)
                0x00035070                udhcp_get_option
 .text.udhcp_end_option
                0x00035140       0x34 networking/udhcp/lib.a(common.o)
                0x00035140                udhcp_end_option
 .text.udhcp_add_binary_option
                0x00035174       0x64 networking/udhcp/lib.a(common.o)
                0x00035174                udhcp_add_binary_option
 .text.udhcp_add_simple_option
                0x000351d8       0x80 networking/udhcp/lib.a(common.o)
                0x000351d8                udhcp_add_simple_option
 .text.udhcp_find_option
                0x00035258       0x28 networking/udhcp/lib.a(common.o)
                0x00035258                udhcp_find_option
 .text.attach_option
                0x00035280      0x1b4 networking/udhcp/lib.a(common.o)
 .text.udhcp_str2nip
                0x00035434       0x4c networking/udhcp/lib.a(common.o)
                0x00035434                udhcp_str2nip
 .text.udhcp_str2optset
                0x00035480      0x2d4 networking/udhcp/lib.a(common.o)
                0x00035480                udhcp_str2optset
 .text.sprint_nip6
                0x00035754       0x6c networking/udhcp/lib.a(common.o)
                0x00035754                sprint_nip6
 .text.scale    0x000357c0       0x28 procps/lib.a(free.o)
 .text.free_main
                0x000357e8      0x1a8 procps/lib.a(free.o)
                0x000357e8                free_main
 .text.percent_value
                0x00035990       0x90 procps/lib.a(iostat.o)
 .text.get_localtime
                0x00035a20       0x24 procps/lib.a(iostat.o)
 .text.iostat_main
                0x00035a44      0x9ac procps/lib.a(iostat.o)
                0x00035a44                iostat_main
 .text.kill_main
                0x000363f0      0x47c procps/lib.a(kill.o)
                0x000363f0                kill_main
 .text.lsof_main
                0x0003686c       0xdc procps/lib.a(lsof.o)
                0x0003686c                lsof_main
 .text.percent_value
                0x00036948       0x90 procps/lib.a(mpstat.o)
 .text.is_cpu_in_bitmap
                0x000369d8       0x24 procps/lib.a(mpstat.o)
 .text.get_per_cpu_interval
                0x000369fc      0x104 procps/lib.a(mpstat.o)
 .text.get_localtime
                0x00036b00       0x24 procps/lib.a(mpstat.o)
 .text.print_header
                0x00036b24       0x78 procps/lib.a(mpstat.o)
 .text.alarm_handler
                0x00036b9c       0x30 procps/lib.a(mpstat.o)
 .text.get_uptime
                0x00036bcc       0x9c procps/lib.a(mpstat.o)
 .text.get_cpu_statistics
                0x00036c68      0x1d4 procps/lib.a(mpstat.o)
 .text.get_irqs_from_stat
                0x00036e3c       0x88 procps/lib.a(mpstat.o)
 .text.get_irqs_from_interrupts
                0x00036ec4      0x26c procps/lib.a(mpstat.o)
 .text.write_irqcpu_stats
                0x00037130      0x34c procps/lib.a(mpstat.o)
 .text.write_stats_core
                0x0003747c      0x684 procps/lib.a(mpstat.o)
 .text.write_stats
                0x00037b00       0x7c procps/lib.a(mpstat.o)
 .text.get_irqcpu_nr.clone.0
                0x00037b7c       0x98 procps/lib.a(mpstat.o)
 .text.mpstat_main
                0x00037c14      0x5d8 procps/lib.a(mpstat.o)
                0x00037c14                mpstat_main
 .text.act      0x000381ec       0x74 procps/lib.a(pgrep.o)
 .text.pgrep_main
                0x00038260      0x2dc procps/lib.a(pgrep.o)
                0x00038260                pgrep_main
 .text.pidof_main
                0x0003853c       0x90 procps/lib.a(pidof.o)
                0x0003853c                pidof_main
 .text.print_smaprec
                0x000385cc       0x74 procps/lib.a(pmap.o)
 .text.procps_get_maps
                0x00038640       0xd4 procps/lib.a(pmap.o)
 .text.pmap_main
                0x00038714       0x60 procps/lib.a(pmap.o)
                0x00038714                pmap_main
 .text.line_compare
                0x00038774       0x10 procps/lib.a(powertop.o)
 .text.reset_term
                0x00038784       0x20 procps/lib.a(powertop.o)
 .text.clear_lines
                0x000387a4       0x5c procps/lib.a(powertop.o)
 .text.save_line
                0x00038800       0xa4 procps/lib.a(powertop.o)
 .text.process_irq_counts
                0x000388a4      0x288 procps/lib.a(powertop.o)
 .text.process_timer_stats
                0x00038b2c      0x210 procps/lib.a(powertop.o)
 .text.read_cstate_counts
                0x00038d3c      0x168 procps/lib.a(powertop.o)
 .text.sig_handler
                0x00038ea4       0x10 procps/lib.a(powertop.o)
 .text.write_str_to_file.clone.0
                0x00038eb4       0x40 procps/lib.a(powertop.o)
 .text.powertop_main
                0x00038ef4      0x70c procps/lib.a(powertop.o)
                0x00038ef4                powertop_main
 .text.ps_main  0x00039600      0x34c procps/lib.a(ps.o)
                0x00039600                ps_main
 .text.find_proc
                0x0003994c       0x34 procps/lib.a(pstree.o)
 .text.new_proc
                0x00039980       0x50 procps/lib.a(pstree.o)
 .text.add_proc
                0x000399d0       0xe4 procps/lib.a(pstree.o)
 .text.tree_equal
                0x00039ab4       0x8c procps/lib.a(pstree.o)
 .text.out_char
                0x00039b40       0x58 procps/lib.a(pstree.o)
 .text.out_string
                0x00039b98       0x24 procps/lib.a(pstree.o)
 .text.out_newline
                0x00039bbc       0x4c procps/lib.a(pstree.o)
 .text.dump_tree
                0x00039c08      0x2f8 procps/lib.a(pstree.o)
 .text.dump_by_user
                0x00039f00       0xb0 procps/lib.a(pstree.o)
 .text.pstree_main
                0x00039fb0      0x180 procps/lib.a(pstree.o)
                0x00039fb0                pstree_main
 .text.pwdx_main
                0x0003a130      0x108 procps/lib.a(pwdx.o)
                0x0003a130                pwdx_main
 .text.renice_main
                0x0003a238      0x190 procps/lib.a(renice.o)
                0x0003a238                renice_main
 .text.sysctl_dots_to_slashes
                0x0003a3c8       0x84 procps/lib.a(sysctl.o)
 .text.sysctl_act_recursive
                0x0003a44c      0x300 procps/lib.a(sysctl.o)
 .text.sysctl_main
                0x0003a74c      0x110 procps/lib.a(sysctl.o)
                0x0003a74c                sysctl_main
 .text.pid_sort
                0x0003a85c       0x10 procps/lib.a(top.o)
 .text.mem_sort
                0x0003a86c       0x24 procps/lib.a(top.o)
 .text.pcpu_sort
                0x0003a890       0x10 procps/lib.a(top.o)
 .text.time_sort
                0x0003a8a0       0x24 procps/lib.a(top.o)
 .text.mult_lvl_cmp
                0x0003a8c4       0x58 procps/lib.a(top.o)
 .text.topmem_sort
                0x0003a91c       0x48 procps/lib.a(top.o)
 .text.reset_term
                0x0003a964       0x28 procps/lib.a(top.o)
 .text.fmt_100percent_8
                0x0003a98c       0xbc procps/lib.a(top.o)
 .text.read_cpu_jiffy
                0x0003aa48      0x134 procps/lib.a(top.o)
 .text.get_jiffy_counts
                0x0003ab7c      0x128 procps/lib.a(top.o)
 .text.do_stats
                0x0003aca4      0x100 procps/lib.a(top.o)
 .text.display_process_list
                0x0003ada4      0x69c procps/lib.a(top.o)
 .text.display_topmem_header
                0x0003b440      0x1c8 procps/lib.a(top.o)
 .text.ulltoa6_and_space
                0x0003b608       0x20 procps/lib.a(top.o)
 .text.display_topmem_process_list
                0x0003b628      0x1d0 procps/lib.a(top.o)
 .text.clearmems
                0x0003b7f8       0x28 procps/lib.a(top.o)
 .text.handle_input
                0x0003b820      0x2a0 procps/lib.a(top.o)
 .text.sig_catcher
                0x0003bac0       0x14 procps/lib.a(top.o)
 .text.top_main
                0x0003bad4      0x484 procps/lib.a(top.o)
                0x0003bad4                top_main
 .text.uptime_main
                0x0003bf58      0x148 procps/lib.a(uptime.o)
                0x0003bf58                uptime_main
 .text.warn2    0x0003c0a0       0x24 runit/lib.a(svlogd.o)
 .text.warnx    0x0003c0c4       0x24 runit/lib.a(svlogd.o)
 .text.sig_hangup_handler
                0x0003c0e8       0x3c runit/lib.a(svlogd.o)
 .text.sig_alarm_handler
                0x0003c124       0x3c runit/lib.a(svlogd.o)
 .text.sig_term_handler
                0x0003c160       0x3c runit/lib.a(svlogd.o)
 .text.pause_nomem
                0x0003c19c       0x20 runit/lib.a(svlogd.o)
 .text.pause2cannot
                0x0003c1bc       0x2c runit/lib.a(svlogd.o)
 .text.rmoldest
                0x0003c1e8      0x18c runit/lib.a(svlogd.o)
 .text.fmt_time_bernstein_25
                0x0003c374       0xbc runit/lib.a(svlogd.o)
 .text.logdir_close
                0x0003c430       0xec runit/lib.a(svlogd.o)
 .text.processorstart
                0x0003c51c      0x1f4 runit/lib.a(svlogd.o)
 .text.pause1cannot.clone.3
                0x0003c710       0x28 runit/lib.a(svlogd.o)
 .text.processorstop
                0x0003c738      0x23c runit/lib.a(svlogd.o)
 .text.rotate   0x0003c974      0x2b4 runit/lib.a(svlogd.o)
 .text.buffer_pwrite
                0x0003cc28      0x284 runit/lib.a(svlogd.o)
 .text.sig_child_handler
                0x0003ceac       0xa0 runit/lib.a(svlogd.o)
 .text.logdir_open
                0x0003cf4c      0x5a4 runit/lib.a(svlogd.o)
 .text.logdirs_reopen
                0x0003d4f0       0x80 runit/lib.a(svlogd.o)
 .text.buffer_pread
                0x0003d570      0x29c runit/lib.a(svlogd.o)
 .text.pmatch.clone.4
                0x0003d80c       0xe0 runit/lib.a(svlogd.o)
 .text.svlogd_main
                0x0003d8ec      0x718 runit/lib.a(svlogd.o)
                0x0003d8ec                svlogd_main
 .text.isdigit_str9
                0x0003e004       0x30 shell/lib.a(ash.o)
 .text.var_end  0x0003e034       0x28 shell/lib.a(ash.o)
 .text.stunalloc
                0x0003e05c       0x28 shell/lib.a(ash.o)
 .text.setstackmark
                0x0003e084       0x34 shell/lib.a(ash.o)
 .text.prefix   0x0003e0b8       0x34 shell/lib.a(ash.o)
 .text.is_number
                0x0003e0ec       0x34 shell/lib.a(ash.o)
 .text.varcmp   0x0003e120       0x40 shell/lib.a(ash.o)
 .text.hashvar  0x0003e160       0x4c shell/lib.a(ash.o)
 .text.vpcmp    0x0003e1ac        0xc shell/lib.a(ash.o)
 .text.findvar  0x0003e1b8       0x40 shell/lib.a(ash.o)
 .text.lookupvar
                0x0003e1f8       0x44 shell/lib.a(ash.o)
 .text.bltinlookup
                0x0003e23c       0x54 shell/lib.a(ash.o)
 .text.set_curjob
                0x0003e290       0x70 shell/lib.a(ash.o)
 .text.jobno    0x0003e300       0x28 shell/lib.a(ash.o)
 .text.getstatus
                0x0003e328       0x88 shell/lib.a(ash.o)
 .text.need_to_remember
                0x0003e3b0       0x40 shell/lib.a(ash.o)
 .text.is_hidden_fd
                0x0003e3f0       0x7c shell/lib.a(ash.o)
 .text.esclen   0x0003e46c       0x28 shell/lib.a(ash.o)
 .text.falsecmd
                0x0003e494        0x8 shell/lib.a(ash.o)
 .text.truecmd  0x0003e49c        0x8 shell/lib.a(ash.o)
 .text.bltincmd
                0x0003e4a4       0x10 shell/lib.a(ash.o)
 .text.pungetc  0x0003e4b4       0x28 shell/lib.a(ash.o)
 .text.raise_exception
                0x0003e4dc       0x2c shell/lib.a(ash.o)
 .text.calcsize
                0x0003e508      0x130 shell/lib.a(ash.o)
 .text.sizenodelist
                0x0003e638       0x3c shell/lib.a(ash.o)
 .text.pushfile
                0x0003e674       0x30 shell/lib.a(ash.o)
 .text.goodname
                0x0003e6a4       0x1c shell/lib.a(ash.o)
 .text.isassignment
                0x0003e6c0       0x30 shell/lib.a(ash.o)
 .text.freealias
                0x0003e6f0       0x48 shell/lib.a(ash.o)
 .text.freefunc
                0x0003e738       0x28 shell/lib.a(ash.o)
 .text.freeparam
                0x0003e760       0x3c shell/lib.a(ash.o)
 .text.setparam
                0x0003e79c       0x8c shell/lib.a(ash.o)
 .text.scanright
                0x0003e828      0x104 shell/lib.a(ash.o)
 .text.scanleft
                0x0003e92c       0x7c shell/lib.a(ash.o)
 .text.__lookupalias
                0x0003e9a8       0x74 shell/lib.a(ash.o)
 .text.lookupalias
                0x0003ea1c       0x30 shell/lib.a(ash.o)
 .text.msort    0x0003ea4c       0xc0 shell/lib.a(ash.o)
 .text.pstrcmp  0x0003eb0c       0x18 shell/lib.a(ash.o)
 .text.ignoresig
                0x0003eb24       0x3c shell/lib.a(ash.o)
 .text.setsignal
                0x0003eb60      0x1a0 shell/lib.a(ash.o)
 .text.nodeckstrdup
                0x0003ed00       0x40 shell/lib.a(ash.o)
 .text.copynode
                0x0003ed40      0x160 shell/lib.a(ash.o)
 .text.copynodelist
                0x0003eea0       0x54 shell/lib.a(ash.o)
 .text.cmdlookup
                0x0003eef4       0xd4 shell/lib.a(ash.o)
 .text.errmsg   0x0003efc8       0x24 shell/lib.a(ash.o)
 .text.tokname  0x0003efec       0x3c shell/lib.a(ash.o)
 .text.findkwd  0x0003f028       0x2c shell/lib.a(ash.o)
 .text.find_builtin
                0x0003f054       0x2c shell/lib.a(ash.o)
 .text.ulimitcmd
                0x0003f080       0x14 shell/lib.a(ash.o)
 .text.printfcmd
                0x0003f094       0x10 shell/lib.a(ash.o)
 .text.historycmd
                0x0003f0a4       0x20 shell/lib.a(ash.o)
 .text.tryexec  0x0003f0c4       0xb8 shell/lib.a(ash.o)
 .text.echocmd  0x0003f17c       0x10 shell/lib.a(ash.o)
 .text.testcmd  0x0003f18c       0x10 shell/lib.a(ash.o)
 .text.raise_interrupt
                0x0003f19c       0x74 shell/lib.a(ash.o)
 .text.int_on   0x0003f210       0x3c shell/lib.a(ash.o)
 .text.recordregion
                0x0003f24c       0x78 shell/lib.a(ash.o)
 .text.fmtstr   0x0003f2c4       0x4c shell/lib.a(ash.o)
 .text.sprint_status
                0x0003f310       0xd8 shell/lib.a(ash.o)
 .text.removerecordregions
                0x0003f3e8      0x118 shell/lib.a(ash.o)
 .text.freejob  0x0003f500       0x7c shell/lib.a(ash.o)
 .text.makejob  0x0003f57c      0x1b8 shell/lib.a(ash.o)
 .text.unalias  0x0003f734       0x50 shell/lib.a(ash.o)
 .text.popstring
                0x0003f784       0xcc shell/lib.a(ash.o)
 .text.popfile  0x0003f850       0x68 shell/lib.a(ash.o)
 .text.popallfiles
                0x0003f8b8       0x30 shell/lib.a(ash.o)
 .text.outstr   0x0003f8e8       0x28 shell/lib.a(ash.o)
 .text.out1str  0x0003f910       0x10 shell/lib.a(ash.o)
 .text.flush_stdout_stderr
                0x0003f920       0x28 shell/lib.a(ash.o)
 .text.out2str  0x0003f948       0x1c shell/lib.a(ash.o)
 .text.stoppedjobs
                0x0003f964       0x64 shell/lib.a(ash.o)
 .text.preadbuffer
                0x0003f9c8      0x29c shell/lib.a(ash.o)
 .text.pgetc    0x0003fc64       0x34 shell/lib.a(ash.o)
 .text.pgetc_without_PEOA
                0x0003fc98       0x4c shell/lib.a(ash.o)
 .text.dowait   0x0003fce4      0x1a8 shell/lib.a(ash.o)
 .text.blocking_wait_with_raise_on_sig
                0x0003fe8c       0x3c shell/lib.a(ash.o)
 .text.popstackmark
                0x0003fec8       0x8c shell/lib.a(ash.o)
 .text.setinputstring
                0x0003ff54       0x58 shell/lib.a(ash.o)
 .text.pushstring
                0x0003ffac       0x9c shell/lib.a(ash.o)
 .text.delete_cmd_entry
                0x00040048       0x54 shell/lib.a(ash.o)
 .text.out1fmt  0x0004009c       0x48 shell/lib.a(ash.o)
 .text.timescmd
                0x000400e4       0xb4 shell/lib.a(ash.o)
 .text.helpcmd  0x00040198       0x80 shell/lib.a(ash.o)
 .text.clearcmdentry
                0x00040218       0x98 shell/lib.a(ash.o)
 .text.changepath
                0x000402b0      0x11c shell/lib.a(ash.o)
 .text.signal_handler
                0x000403cc       0x54 shell/lib.a(ash.o)
 .text.force_int_on
                0x00040420       0x2c shell/lib.a(ash.o)
 .text.evalbltin.clone.1
                0x0004044c       0xf0 shell/lib.a(ash.o)
 .text.outcslow.clone.3
                0x0004053c       0x54 shell/lib.a(ash.o)
 .text.showjob  0x00040590      0x1f4 shell/lib.a(ash.o)
 .text.showjobs
                0x00040784       0x6c shell/lib.a(ash.o)
 .text.ash_vmsg
                0x000407f0       0xcc shell/lib.a(ash.o)
 .text.ash_vmsg_and_raise
                0x000408bc       0x20 shell/lib.a(ash.o)
 .text.ash_msg_and_raise_error
                0x000408dc       0x1c shell/lib.a(ash.o)
 .text.varunset
                0x000408f8       0x68 shell/lib.a(ash.o)
 .text.setvareq
                0x00040960      0x108 shell/lib.a(ash.o)
 .text.listsetvar
                0x00040a68       0x50 shell/lib.a(ash.o)
 .text.setvar   0x00040ab8       0xe4 shell/lib.a(ash.o)
 .text.setvar2  0x00040b9c        0x8 shell/lib.a(ash.o)
 .text.unsetvar
                0x00040ba4       0xac shell/lib.a(ash.o)
 .text.setpwd   0x00040c50       0xe8 shell/lib.a(ash.o)
 .text.localcmd
                0x00040d38      0x12c shell/lib.a(ash.o)
 .text.setvarsafe
                0x00040e64       0xa4 shell/lib.a(ash.o)
 .text.number   0x00040f08       0x30 shell/lib.a(ash.o)
 .text.returncmd
                0x00040f38       0x44 shell/lib.a(ash.o)
 .text.exitcmd  0x00040f7c       0x44 shell/lib.a(ash.o)
 .text.getoptsreset
                0x00040fc0       0x24 shell/lib.a(ash.o)
 .text.shiftcmd
                0x00040fe4       0xb0 shell/lib.a(ash.o)
 .text.xtcsetpgrp
                0x00041094       0x20 shell/lib.a(ash.o)
 .text.waitforjob
                0x000410b4       0x9c shell/lib.a(ash.o)
 .text.forkchild
                0x00041150      0x2e4 shell/lib.a(ash.o)
 .text.copyfd   0x00041434       0x5c shell/lib.a(ash.o)
 .text.popredir
                0x00041490       0xf0 shell/lib.a(ash.o)
 .text.clearredir
                0x00041580       0x40 shell/lib.a(ash.o)
 .text.ash_arith
                0x000415c0       0x70 shell/lib.a(ash.o)
 .text.stalloc  0x00041630       0xac shell/lib.a(ash.o)
 .text.ststrdup
                0x000416dc       0x2c shell/lib.a(ash.o)
 .text.stzalloc
                0x00041708       0x20 shell/lib.a(ash.o)
 .text.addfname
                0x00041728       0x3c shell/lib.a(ash.o)
 .text.expmeta  0x00041764      0x27c shell/lib.a(ash.o)
 .text.makename
                0x000419e0       0x3c shell/lib.a(ash.o)
 .text.growstackblock
                0x00041a1c      0x110 shell/lib.a(ash.o)
 .text.makestrspace
                0x00041b2c       0x44 shell/lib.a(ash.o)
 .text.memtodest
                0x00041b70       0x9c shell/lib.a(ash.o)
 .text.stack_nputstr
                0x00041c0c       0x30 shell/lib.a(ash.o)
 .text.stack_putstr
                0x00041c3c       0x24 shell/lib.a(ash.o)
 .text.cvtnum   0x00041c60       0x4c shell/lib.a(ash.o)
 .text.cmdputs  0x00041cac      0x200 shell/lib.a(ash.o)
 .text.cmdtxt   0x00041eac      0x328 shell/lib.a(ash.o)
 .text.cmdlist  0x000421d4       0x54 shell/lib.a(ash.o)
 .text.single_quote
                0x00042228       0xc8 shell/lib.a(ash.o)
 .text.printalias
                0x000422f0       0x28 shell/lib.a(ash.o)
 .text.aliascmd
                0x00042318      0x164 shell/lib.a(ash.o)
 .text.rmescapes
                0x0004247c      0x150 shell/lib.a(ash.o)
 .text.preglob  0x000425cc       0x14 shell/lib.a(ash.o)
 .text.growstackstr
                0x000425e0       0x5c shell/lib.a(ash.o)
 .text._STPUTC  0x0004263c       0x30 shell/lib.a(ash.o)
 .text.varvalue
                0x0004266c      0x380 shell/lib.a(ash.o)
 .text.listvars
                0x000429ec       0xa4 shell/lib.a(ash.o)
 .text.showvars
                0x00042a90       0xc8 shell/lib.a(ash.o)
 .text.path_advance
                0x00042b58      0x11c shell/lib.a(ash.o)
 .text.forkshell
                0x00042c74      0x170 shell/lib.a(ash.o)
 .text.raise_error_syntax
                0x00042de4       0x14 shell/lib.a(ash.o)
 .text.fixredir
                0x00042df8       0x84 shell/lib.a(ash.o)
 .text.raise_error_unexpected_syntax
                0x00042e7c       0x6c shell/lib.a(ash.o)
 .text.nextopt  0x00042ee8      0x120 shell/lib.a(ash.o)
 .text.cdopt    0x00043008       0x3c shell/lib.a(ash.o)
 .text.pwdcmd   0x00043044       0x58 shell/lib.a(ash.o)
 .text.unsetcmd
                0x0004309c       0x8c shell/lib.a(ash.o)
 .text.unaliascmd
                0x00043128       0xfc shell/lib.a(ash.o)
 .text.exportcmd
                0x00043224       0xe0 shell/lib.a(ash.o)
 .text.getjob   0x00043304      0x194 shell/lib.a(ash.o)
 .text.waitcmd  0x00043498      0x12c shell/lib.a(ash.o)
 .text.killcmd  0x000435c4      0x114 shell/lib.a(ash.o)
 .text.jobscmd  0x000436d8       0x9c shell/lib.a(ash.o)
 .text.fg_bgcmd
                0x00043774      0x188 shell/lib.a(ash.o)
 .text.letcmd   0x000438fc       0x44 shell/lib.a(ash.o)
 .text.breakcmd
                0x00043940       0x90 shell/lib.a(ash.o)
 .text.umaskcmd
                0x000439d0      0x1c8 shell/lib.a(ash.o)
 .text.setinputfile
                0x00043b98       0xf0 shell/lib.a(ash.o)
 .text.readcmd  0x00043c88      0x110 shell/lib.a(ash.o)
 .text.cdcmd    0x00043d98      0x3b0 shell/lib.a(ash.o)
 .text.getoptscmd
                0x00044148      0x314 shell/lib.a(ash.o)
 .text.ash_msg_and_raise
                0x0004445c       0x18 shell/lib.a(ash.o)
 .text.shellexec
                0x00044474      0x118 shell/lib.a(ash.o)
 .text.ash_msg  0x0004458c       0x24 shell/lib.a(ash.o)
 .text.setjobctl
                0x000445b0      0x1a4 shell/lib.a(ash.o)
 .text.optschanged
                0x00044754       0xa4 shell/lib.a(ash.o)
 .text.execcmd  0x000447f8       0x5c shell/lib.a(ash.o)
 .text.options  0x00044854      0x2d0 shell/lib.a(ash.o)
 .text.setcmd   0x00044b24       0x78 shell/lib.a(ash.o)
 .text.trapcmd  0x00044b9c      0x154 shell/lib.a(ash.o)
 .text.readtoken1
                0x00044cf0     0x10dc shell/lib.a(ash.o)
 .text.parseheredoc
                0x00045dcc       0xa0 shell/lib.a(ash.o)
 .text.list     0x00045e6c      0x1a4 shell/lib.a(ash.o)
 .text.parsecmd
                0x00046010       0x6c shell/lib.a(ash.o)
 .text.evalstring
                0x0004607c       0x74 shell/lib.a(ash.o)
 .text.evaltree
                0x000460f0      0x44c shell/lib.a(ash.o)
 .text.argstr   0x0004653c      0x610 shell/lib.a(ash.o)
 .text.expandarg
                0x00046b4c      0x464 shell/lib.a(ash.o)
 .text.expredir
                0x00046fb0       0xf0 shell/lib.a(ash.o)
 .text.redirect
                0x000470a0      0x58c shell/lib.a(ash.o)
 .text.redirectsafe
                0x0004762c       0xb8 shell/lib.a(ash.o)
 .text.evalsubshell
                0x000476e4       0xc8 shell/lib.a(ash.o)
 .text.expandstr
                0x000477ac       0x84 shell/lib.a(ash.o)
 .text.setprompt_if
                0x00047830       0xc4 shell/lib.a(ash.o)
 .text.xxreadtoken
                0x000478f4      0x1e0 shell/lib.a(ash.o)
 .text.readtoken
                0x00047ad4       0xf0 shell/lib.a(ash.o)
 .text.parsefname
                0x00047bc4      0x164 shell/lib.a(ash.o)
 .text.peektoken
                0x00047d28       0x30 shell/lib.a(ash.o)
 .text.subevalvar
                0x00047d58      0x604 shell/lib.a(ash.o)
 .text.evalvar  0x0004835c      0x2e8 shell/lib.a(ash.o)
 .text.evalcase
                0x00048644      0x160 shell/lib.a(ash.o)
 .text.evalloop
                0x000487a4      0x110 shell/lib.a(ash.o)
 .text.evalfor  0x000488b4      0x144 shell/lib.a(ash.o)
 .text.evalfun  0x000489f8      0x22c shell/lib.a(ash.o)
 .text.evalcmd  0x00048c24       0x94 shell/lib.a(ash.o)
 .text.exitshell
                0x00048cb8       0x90 shell/lib.a(ash.o)
 .text.cmdloop  0x00048d48      0x10c shell/lib.a(ash.o)
 .text.find_command
                0x00048e54      0x3fc shell/lib.a(ash.o)
 .text.describe_command
                0x00049250      0x1e4 shell/lib.a(ash.o)
 .text.typecmd  0x00049434       0x64 shell/lib.a(ash.o)
 .text.commandcmd
                0x00049498       0x6c shell/lib.a(ash.o)
 .text.hashcmd  0x00049504      0x190 shell/lib.a(ash.o)
 .text.evalpipe
                0x00049694      0x1ac shell/lib.a(ash.o)
 .text.evalcommand
                0x00049840      0x5e0 shell/lib.a(ash.o)
 .text.dotcmd   0x00049e20      0x174 shell/lib.a(ash.o)
 .text.read_profile
                0x00049f94       0x34 shell/lib.a(ash.o)
 .text.parse_command
                0x00049fc8      0x758 shell/lib.a(ash.o)
 .text.pipeline
                0x0004a720       0xe4 shell/lib.a(ash.o)
 .text.ash_main
                0x0004a804      0x620 shell/lib.a(ash.o)
                0x0004a804                ash_main
 .text.arith_apply
                0x0004ae24      0x48c shell/lib.a(math.o)
 .text.evaluate_string
                0x0004b2b0      0x328 shell/lib.a(math.o)
 .text.arith_lookup_val
                0x0004b5d8       0xac shell/lib.a(math.o)
 .text.arith    0x0004b684       0x10 shell/lib.a(math.o)
                0x0004b684                arith
 .text.printlim.clone.0
                0x0004b694       0x64 shell/lib.a(shell_common.o)
 .text.is_well_formed_var_name
                0x0004b6f8       0x64 shell/lib.a(shell_common.o)
                0x0004b6f8                is_well_formed_var_name
 .text.shell_builtin_read
                0x0004b75c      0x520 shell/lib.a(shell_common.o)
                0x0004b75c                shell_builtin_read
 .text.shell_builtin_ulimit
                0x0004bc7c      0x20c shell/lib.a(shell_common.o)
                0x0004bc7c                shell_builtin_ulimit
 .text.klogd_main
                0x0004be88      0x26c sysklogd/lib.a(klogd.o)
                0x0004be88                klogd_main
 .text.sem_up   0x0004c0f4       0x2c sysklogd/lib.a(logread.o)
 .text.interrupted
                0x0004c120        0x8 sysklogd/lib.a(logread.o)
 .text.logread_main
                0x0004c128      0x1b0 sysklogd/lib.a(logread.o)
                0x0004c128                logread_main
 .text.find_by_val
                0x0004c2d8       0x30 sysklogd/lib.a(syslogd_and_logger.o)
 .text.decode   0x0004c308       0x54 sysklogd/lib.a(syslogd_and_logger.o)
 .text.find_by_name
                0x0004c35c       0x40 sysklogd/lib.a(syslogd_and_logger.o)
 .text.create_socket
                0x0004c39c       0xb4 sysklogd/lib.a(syslogd_and_logger.o)
 .text.log_locally
                0x0004c450      0x208 sysklogd/lib.a(syslogd_and_logger.o)
 .text.timestamp_and_log
                0x0004c658      0x2ec sysklogd/lib.a(syslogd_and_logger.o)
 .text.timestamp_and_log_internal
                0x0004c944       0x24 sysklogd/lib.a(syslogd_and_logger.o)
 .text.syslogd_main
                0x0004c968      0x900 sysklogd/lib.a(syslogd_and_logger.o)
                0x0004c968                syslogd_main
 .text.logger_main
                0x0004d268      0x1f0 sysklogd/lib.a(syslogd_and_logger.o)
                0x0004d268                logger_main
 .text.blkid_main
                0x0004d458       0x38 util-linux/lib.a(blkid.o)
                0x0004d458                blkid_main
 .text.blockdev_main
                0x0004d490      0x14c util-linux/lib.a(blockdev.o)
                0x0004d490                blockdev_main
 .text.dmesg_main
                0x0004d5dc      0x15c util-linux/lib.a(dmesg.o)
                0x0004d5dc                dmesg_main
 .text.gnu_dev_major
                0x0004d738       0x14 util-linux/lib.a(fdisk.o)
 .text.str_units
                0x0004d74c       0x60 util-linux/lib.a(fdisk.o)
 .text.valid_part_table_flag
                0x0004d7ac       0x28 util-linux/lib.a(fdisk.o)
 .text.set_all_unchanged
                0x0004d7d4       0x2c util-linux/lib.a(fdisk.o)
 .text.hidden   0x0004d800        0x8 util-linux/lib.a(fdisk.o)
 .text.fdisk_swap16
                0x0004d808       0x14 util-linux/lib.a(fdisk.o)
 .text.fdisk_swap32
                0x0004d81c       0x1c util-linux/lib.a(fdisk.o)
 .text.setfreelist
                0x0004d838       0x18 util-linux/lib.a(fdisk.o)
 .text.add2freelist
                0x0004d850       0x38 util-linux/lib.a(fdisk.o)
 .text.sgi_get_start_sector
                0x0004d888       0x40 util-linux/lib.a(fdisk.o)
 .text.sgi_get_num_sectors
                0x0004d8c8       0x40 util-linux/lib.a(fdisk.o)
 .text.sgi_get_sysid
                0x0004d908       0x40 util-linux/lib.a(fdisk.o)
 .text.sgi_get_bootpartition
                0x0004d948       0x3c util-linux/lib.a(fdisk.o)
 .text.sgi_get_swappartition
                0x0004d984       0x40 util-linux/lib.a(fdisk.o)
 .text.sgi_get_lastblock
                0x0004d9c4       0x24 util-linux/lib.a(fdisk.o)
 .text.compare_start
                0x0004d9e8       0x6c util-linux/lib.a(fdisk.o)
 .text.set_sun_partition
                0x0004da54       0x98 util-linux/lib.a(fdisk.o)
 .text.toggle_sunflags
                0x0004daec       0x3c util-linux/lib.a(fdisk.o)
 .text.fetch_sun
                0x0004db28      0x154 util-linux/lib.a(fdisk.o)
 .text.verify_sun_cmp
                0x0004dc7c       0x44 util-linux/lib.a(fdisk.o)
 .text.get_sys_types
                0x0004dcc0       0x40 util-linux/lib.a(fdisk.o)
 .text.partition_type
                0x0004dd00       0x3c util-linux/lib.a(fdisk.o)
 .text.is_cleared_partition
                0x0004dd3c       0x28 util-linux/lib.a(fdisk.o)
 .text.set_hsc_start_end
                0x0004dd64      0x124 util-linux/lib.a(fdisk.o)
 .text.update_units
                0x0004de88       0x40 util-linux/lib.a(fdisk.o)
 .text.linear2chs
                0x0004dec8       0x74 util-linux/lib.a(fdisk.o)
 .text.list_disk_geometry
                0x0004df3c      0x11c util-linux/lib.a(fdisk.o)
 .text.warn_cylinders
                0x0004e058       0x44 util-linux/lib.a(fdisk.o)
 .text.change_units
                0x0004e09c       0x44 util-linux/lib.a(fdisk.o)
 .text.unknown_command
                0x0004e0e0       0x1c util-linux/lib.a(fdisk.o)
 .text.list_types
                0x0004e0fc       0xd4 util-linux/lib.a(fdisk.o)
 .text.print_buffer
                0x0004e1d0       0x88 util-linux/lib.a(fdisk.o)
 .text.check_sun_label
                0x0004e258       0xfc util-linux/lib.a(fdisk.o)
 .text.warn_geometry
                0x0004e354       0x98 util-linux/lib.a(fdisk.o)
 .text.close_dev_fd
                0x0004e3ec       0x24 util-linux/lib.a(fdisk.o)
 .text.get_start_sect
                0x0004e410       0x20 util-linux/lib.a(fdisk.o)
 .text.get_partition_start_from_dev_start
                0x0004e430       0x1c util-linux/lib.a(fdisk.o)
 .text.wrong_p_order
                0x0004e44c       0x98 util-linux/lib.a(fdisk.o)
 .text.get_nr_sects
                0x0004e4e4       0x20 util-linux/lib.a(fdisk.o)
 .text.fill_bounds
                0x0004e504       0xb8 util-linux/lib.a(fdisk.o)
 .text.check_consistency
                0x0004e5bc      0x1e4 util-linux/lib.a(fdisk.o)
 .text.x_list_table
                0x0004e7a0      0x13c util-linux/lib.a(fdisk.o)
 .text.set_nr_sects
                0x0004e8dc       0x24 util-linux/lib.a(fdisk.o)
 .text.set_start_sect
                0x0004e900       0x24 util-linux/lib.a(fdisk.o)
 .text.set_partition
                0x0004e924       0x94 util-linux/lib.a(fdisk.o)
 .text.fdisk_fatal
                0x0004e9b8       0x34 util-linux/lib.a(fdisk.o)
 .text.seek_sector
                0x0004e9ec       0x68 util-linux/lib.a(fdisk.o)
 .text.xbsd_readlabel
                0x0004ea54      0x11c util-linux/lib.a(fdisk.o)
 .text.sgi_check_bootfile
                0x0004eb70       0x88 util-linux/lib.a(fdisk.o)
 .text.partname
                0x0004ebf8       0xe4 util-linux/lib.a(fdisk.o)
 .text.xbsd_print_disklabel
                0x0004ecdc      0x45c util-linux/lib.a(fdisk.o)
 .text.list_table
                0x0004f138      0x7a8 util-linux/lib.a(fdisk.o)
 .text.menu     0x0004f8e0      0x1a8 util-linux/lib.a(fdisk.o)
 .text.clear_partition
                0x0004fa88       0x1c util-linux/lib.a(fdisk.o)
 .text.read_line
                0x0004faa4       0x7c util-linux/lib.a(fdisk.o)
 .text.read_nonempty
                0x0004fb20       0x34 util-linux/lib.a(fdisk.o)
 .text.xbsd_get_part_index
                0x0004fb54       0x68 util-linux/lib.a(fdisk.o)
 .text.xbsd_check_new_partition
                0x0004fbbc       0xb4 util-linux/lib.a(fdisk.o)
 .text.read_maybe_empty
                0x0004fc70       0x44 util-linux/lib.a(fdisk.o)
 .text.read_int
                0x0004fcb4      0x294 util-linux/lib.a(fdisk.o)
 .text.xbsd_new_part
                0x0004ff48      0x224 util-linux/lib.a(fdisk.o)
 .text.get_partition
                0x0005016c       0xc4 util-linux/lib.a(fdisk.o)
 .text.get_existing_partition
                0x00050230       0xa8 util-linux/lib.a(fdisk.o)
 .text.edit_int
                0x000502d8       0x68 util-linux/lib.a(fdisk.o)
 .text.write_sector
                0x00050340       0x30 util-linux/lib.a(fdisk.o)
 .text.xbsd_get_bootstrap
                0x00050370       0x74 util-linux/lib.a(fdisk.o)
 .text.sync_disks
                0x000503e4       0x1c util-linux/lib.a(fdisk.o)
 .text.xbsd_write_bootstrap
                0x00050400      0x1ec util-linux/lib.a(fdisk.o)
 .text.read_hex
                0x000505ec       0x5c util-linux/lib.a(fdisk.o)
 .text.reread_partition_table
                0x00050648       0x58 util-linux/lib.a(fdisk.o)
 .text.verify_sgi
                0x000506a0      0x338 util-linux/lib.a(fdisk.o)
 .text.sgi_gaps
                0x000509d8        0x8 util-linux/lib.a(fdisk.o)
 .text.sgi_set_partition
                0x000509e0       0xac util-linux/lib.a(fdisk.o)
 .text.delete_partition
                0x00050a8c      0x298 util-linux/lib.a(fdisk.o)
 .text.sgi_set_entire
                0x00050d24       0x5c util-linux/lib.a(fdisk.o)
 .text.sgi_set_volhdr
                0x00050d80       0x74 util-linux/lib.a(fdisk.o)
 .text.add_partition
                0x00050df4      0x594 util-linux/lib.a(fdisk.o)
 .text.add_logical
                0x00051388       0x84 util-linux/lib.a(fdisk.o)
 .text.verify   0x0005140c      0x65c util-linux/lib.a(fdisk.o)
 .text.sun_autoconfigure_scsi
                0x00051a68      0x1e8 util-linux/lib.a(fdisk.o)
 .text.get_nonexisting_partition.clone.0
                0x00051c50       0x98 util-linux/lib.a(fdisk.o)
 .text.get_geometry
                0x00051ce8      0x350 util-linux/lib.a(fdisk.o)
 .text.bsd_select
                0x00052038      0x7e4 util-linux/lib.a(fdisk.o)
 .text.two_s_complement_32bit_sum.clone.2
                0x0005281c       0x48 util-linux/lib.a(fdisk.o)
 .text.write_table
                0x00052864      0x268 util-linux/lib.a(fdisk.o)
 .text.get_boot
                0x00052acc      0x600 util-linux/lib.a(fdisk.o)
 .text.open_list_and_close
                0x000530cc      0x204 util-linux/lib.a(fdisk.o)
 .text.list_devs_in_proc_partititons
                0x000532d0      0x10c util-linux/lib.a(fdisk.o)
 .text.create_doslabel
                0x000533dc       0x78 util-linux/lib.a(fdisk.o)
 .text.new_partition
                0x00053454      0x7f4 util-linux/lib.a(fdisk.o)
 .text.fdisk_main
                0x00053c48     0x1cf0 util-linux/lib.a(fdisk.o)
                0x00053c48                fdisk_main
 .text.fstrim_main
                0x00055938      0x144 util-linux/lib.a(fstrim.o)
                0x00055938                fstrim_main
 .text.normalize
                0x00055a7c      0x110 util-linux/lib.a(getopt.o)
 .text.generate_output
                0x00055b8c      0x1c8 util-linux/lib.a(getopt.o)
 .text.getopt_main
                0x00055d54      0x324 util-linux/lib.a(getopt.o)
                0x00055d54                getopt_main
 .text.hexdump_main
                0x00056078      0x338 util-linux/lib.a(hexdump.o)
                0x00056078                hexdump_main
 .text.read_rtc
                0x000563b0       0x38 util-linux/lib.a(hwclock.o)
 .text.hwclock_main
                0x000563e8      0x210 util-linux/lib.a(hwclock.o)
                0x000563e8                hwclock_main
 .text.fileAction
                0x000565f8      0x238 util-linux/lib.a(lspci.o)
 .text.lspci_main
                0x00056830       0x48 util-linux/lib.a(lspci.o)
                0x00056830                lspci_main
 .text.fileAction
                0x00056878      0x164 util-linux/lib.a(lsusb.o)
 .text.lsusb_main
                0x000569dc       0x38 util-linux/lib.a(lsusb.o)
                0x000569dc                lsusb_main
 .text.div_roundup
                0x00056a14       0x24 util-linux/lib.a(mkfs_ext2.o)
 .text.has_super
                0x00056a38       0x28 util-linux/lib.a(mkfs_ext2.o)
 .text.allocate
                0x00056a60       0x74 util-linux/lib.a(mkfs_ext2.o)
 .text.PUT      0x00056ad4       0x44 util-linux/lib.a(mkfs_ext2.o)
 .text.mkfs_ext2_main
                0x00056b18      0xab0 util-linux/lib.a(mkfs_ext2.o)
                0x00056b18                mkfs_ext2_main
 .text.minix_bit
                0x000575c8       0x14 util-linux/lib.a(mkfs_minix.o)
 .text.minix_setbit
                0x000575dc       0x18 util-linux/lib.a(mkfs_minix.o)
 .text.minix_clrbit
                0x000575f4       0x18 util-linux/lib.a(mkfs_minix.o)
 .text.next     0x0005760c       0x88 util-linux/lib.a(mkfs_minix.o)
 .text.get_free_block
                0x00057694       0xd0 util-linux/lib.a(mkfs_minix.o)
 .text.alarm_intr
                0x00057764       0x70 util-linux/lib.a(mkfs_minix.o)
 .text.write_block
                0x000577d4       0x38 util-linux/lib.a(mkfs_minix.o)
 .text.mkfs_minix_main
                0x0005780c      0xba8 util-linux/lib.a(mkfs_minix.o)
                0x0005780c                mkfs_minix_main
 .text.mkfs_reiser_main
                0x000583b4      0x538 util-linux/lib.a(mkfs_reiser.o)
                0x000583b4                mkfs_reiser_main
 .text.mkfs_vfat_main
                0x000588ec      0x734 util-linux/lib.a(mkfs_vfat.o)
                0x000588ec                mkfs_vfat_main
 .text.mkswap_main
                0x00059020      0x17c util-linux/lib.a(mkswap.o)
                0x00059020                mkswap_main
 .text.gotsig   0x0005919c       0x2c util-linux/lib.a(more.o)
 .text.more_main
                0x000591c8      0x3b4 util-linux/lib.a(more.o)
                0x000591c8                more_main
 .text.verbose_mount
                0x0005957c       0x84 util-linux/lib.a(mount.o)
 .text.error_msg_rpc
                0x00059600       0x60 util-linux/lib.a(mount.o)
 .text.parse_mount_options
                0x00059660      0x11c util-linux/lib.a(mount.o)
 .text.append_mount_options
                0x0005977c       0xf0 util-linux/lib.a(mount.o)
 .text.mount_it_now
                0x0005986c      0x1d8 util-linux/lib.a(mount.o)
 .text.nfs_strerror
                0x00059a44       0x54 util-linux/lib.a(mount.o)
 .text.daemonize
                0x00059a98       0x90 util-linux/lib.a(mount.o)
 .text.xdr_fhstatus
                0x00059b28       0x3c util-linux/lib.a(mount.o)
 .text.xdr_mountres3
                0x00059b64       0x74 util-linux/lib.a(mount.o)
 .text.xdr_dirpath
                0x00059bd8       0x14 util-linux/lib.a(mount.o)
 .text.nfsmount
                0x00059bec      0xed8 util-linux/lib.a(mount.o)
 .text.singlemount
                0x0005aac4      0x514 util-linux/lib.a(mount.o)
 .text.mount_main
                0x0005afd8      0x55c util-linux/lib.a(mount.o)
                0x0005afd8                mount_main
 .text.pivot_root_main
                0x0005b534       0x28 util-linux/lib.a(pivot_root.o)
                0x0005b534                pivot_root_main
 .text.socket_timeout
                0x0005b55c       0x10 util-linux/lib.a(rdate.o)
 .text.rdate_main
                0x0005b56c      0x138 util-linux/lib.a(rdate.o)
                0x0005b56c                rdate_main
 .text.swap_enable_disable
                0x0005b6a4       0x7c util-linux/lib.a(swaponoff.o)
 .text.swap_on_off_main
                0x0005b720      0x1d0 util-linux/lib.a(swaponoff.o)
                0x0005b720                swap_on_off_main
 .text.delete_contents
                0x0005b8f0       0xe0 util-linux/lib.a(switch_root.o)
 .text.switch_root_main
                0x0005b9d0      0x1ac util-linux/lib.a(switch_root.o)
                0x0005b9d0                switch_root_main
 .text.umount_main
                0x0005bb7c      0x30c util-linux/lib.a(umount.o)
                0x0005bb7c                umount_main
 .text.uuidcache_init
                0x0005be88       0x50 util-linux/volume_id/lib.a(get_devname.o)
 .text.display_uuid_cache
                0x0005bed8       0x6c util-linux/volume_id/lib.a(get_devname.o)
                0x0005bed8                display_uuid_cache
 .text.add_to_uuid_cache
                0x0005bf44      0x118 util-linux/volume_id/lib.a(get_devname.o)
                0x0005bf44                add_to_uuid_cache
 .text.uuidcache_check_device
                0x0005c05c       0x40 util-linux/volume_id/lib.a(get_devname.o)
 .text.get_devname_from_label
                0x0005c09c       0x5c util-linux/volume_id/lib.a(get_devname.o)
                0x0005c09c                get_devname_from_label
 .text.get_devname_from_uuid
                0x0005c0f8       0x50 util-linux/volume_id/lib.a(get_devname.o)
                0x0005c0f8                get_devname_from_uuid
 .text.resolve_mount_spec
                0x0005c148       0x80 util-linux/volume_id/lib.a(get_devname.o)
                0x0005c148                resolve_mount_spec
 .text.volume_id_probe_all
                0x0005c1c8       0xd4 util-linux/volume_id/lib.a(volume_id.o)
                0x0005c1c8                volume_id_probe_all
 .text.volume_id_open_node
                0x0005c29c       0x1c util-linux/volume_id/lib.a(volume_id.o)
                0x0005c29c                volume_id_open_node
 .text.free_volume_id
                0x0005c2b8       0x2c util-linux/volume_id/lib.a(volume_id.o)
                0x0005c2b8                free_volume_id
 .text.volume_id_probe_xfs
                0x0005c2e4       0x70 util-linux/volume_id/lib.a(xfs.o)
                0x0005c2e4                volume_id_probe_xfs
 .text.volume_id_probe_btrfs
                0x0005c354       0x94 util-linux/volume_id/lib.a(btrfs.o)
                0x0005c354                volume_id_probe_btrfs
 .text.volume_id_probe_exfat
                0x0005c3e8      0x170 util-linux/volume_id/lib.a(exfat.o)
                0x0005c3e8                volume_id_probe_exfat
 .text.volume_id_probe_ext
                0x0005c558       0x6c util-linux/volume_id/lib.a(ext.o)
                0x0005c558                volume_id_probe_ext
 .text.volume_id_probe_f2fs
                0x0005c5c4       0xb0 util-linux/volume_id/lib.a(f2fs.o)
                0x0005c5c4                volume_id_probe_f2fs
 .text.get_attr_volume_id
                0x0005c674       0x70 util-linux/volume_id/lib.a(fat.o)
 .text.volume_id_probe_vfat
                0x0005c6e4      0x434 util-linux/volume_id/lib.a(fat.o)
                0x0005c6e4                volume_id_probe_vfat
 .text.hfs_set_uuid
                0x0005cb18       0xa8 util-linux/volume_id/lib.a(hfs.o)
 .text.volume_id_probe_hfs_hfsplus
                0x0005cbc0      0x3a0 util-linux/volume_id/lib.a(hfs.o)
                0x0005cbc0                volume_id_probe_hfs_hfsplus
 .text.volume_id_probe_iso9660
                0x0005cf60      0x17c util-linux/volume_id/lib.a(iso9660.o)
                0x0005cf60                volume_id_probe_iso9660
 .text.volume_id_probe_linux_raid
                0x0005d0dc       0xd8 util-linux/volume_id/lib.a(linux_raid.o)
                0x0005d0dc                volume_id_probe_linux_raid
 .text.volume_id_probe_linux_swap
                0x0005d1b4      0x12c util-linux/volume_id/lib.a(linux_swap.o)
                0x0005d1b4                volume_id_probe_linux_swap
 .text.volume_id_probe_nilfs
                0x0005d2e0       0x74 util-linux/volume_id/lib.a(nilfs.o)
                0x0005d2e0                volume_id_probe_nilfs
 .text.volume_id_probe_ntfs
                0x0005d354      0x1b8 util-linux/volume_id/lib.a(ntfs.o)
                0x0005d354                volume_id_probe_ntfs
 .text.volume_id_probe_reiserfs
                0x0005d50c      0x12c util-linux/volume_id/lib.a(reiserfs.o)
                0x0005d50c                volume_id_probe_reiserfs
 .text.volume_id_probe_udf
                0x0005d638      0x300 util-linux/volume_id/lib.a(udf.o)
                0x0005d638                volume_id_probe_udf
 .text.volume_id_set_unicode16
                0x0005d938       0xcc util-linux/volume_id/lib.a(util.o)
                0x0005d938                volume_id_set_unicode16
 .text.volume_id_set_label_string
                0x0005da04       0x68 util-linux/volume_id/lib.a(util.o)
                0x0005da04                volume_id_set_label_string
 .text.volume_id_set_label_unicode16
                0x0005da6c       0x2c util-linux/volume_id/lib.a(util.o)
                0x0005da6c                volume_id_set_label_unicode16
 .text.volume_id_set_uuid
                0x0005da98      0x188 util-linux/volume_id/lib.a(util.o)
                0x0005da98                volume_id_set_uuid
 .text.volume_id_free_buffer
                0x0005dc20       0x44 util-linux/volume_id/lib.a(util.o)
                0x0005dc20                volume_id_free_buffer
 .text.volume_id_get_buffer
                0x0005dc64      0x140 util-linux/volume_id/lib.a(util.o)
                0x0005dc64                volume_id_get_buffer
 .text.make_new_name_generic
                0x0005dda4       0x44 archival/lib.a(bbunzip.o)
 .text.unpack_bunzip2
                0x0005dde8       0x18 archival/lib.a(bbunzip.o)
 .text.make_new_name_gunzip
                0x0005de00       0x88 archival/lib.a(bbunzip.o)
 .text.unpack_gunzip
                0x0005de88       0x18 archival/lib.a(bbunzip.o)
 .text.open_to_or_warn
                0x0005dea0       0x38 archival/lib.a(bbunzip.o)
 .text.append_ext
                0x0005ded8       0x24 archival/lib.a(bbunzip.o)
                0x0005ded8                append_ext
 .text.bbunpack
                0x0005defc      0x2cc archival/lib.a(bbunzip.o)
                0x0005defc                bbunpack
 .text.gunzip_main
                0x0005e1c8       0x6c archival/lib.a(bbunzip.o)
                0x0005e1c8                gunzip_main
 .text.bunzip2_main
                0x0005e234       0x70 archival/lib.a(bbunzip.o)
                0x0005e234                bunzip2_main
 .text.bi_reverse
                0x0005e2a4       0x2c archival/lib.a(gzip.o)
 .text.init_block
                0x0005e2d0       0xcc archival/lib.a(gzip.o)
 .text.pqdownheap
                0x0005e39c       0xf4 archival/lib.a(gzip.o)
 .text.gen_codes
                0x0005e490       0xa4 archival/lib.a(gzip.o)
 .text.build_tree
                0x0005e534      0x488 archival/lib.a(gzip.o)
 .text.scan_tree
                0x0005e9bc      0x14c archival/lib.a(gzip.o)
 .text.ct_tally
                0x0005eb08      0x1d8 archival/lib.a(gzip.o)
 .text.file_read
                0x0005ece0       0x6c archival/lib.a(gzip.o)
 .text.fill_window
                0x0005ed4c      0x128 archival/lib.a(gzip.o)
 .text.flush_outbuf
                0x0005ee74       0x38 archival/lib.a(gzip.o)
 .text.put_16bit
                0x0005eeac       0x8c archival/lib.a(gzip.o)
 .text.send_bits
                0x0005ef38       0x78 archival/lib.a(gzip.o)
 .text.send_tree
                0x0005efb0      0x198 archival/lib.a(gzip.o)
 .text.compress_block
                0x0005f148      0x160 archival/lib.a(gzip.o)
 .text.put_32bit
                0x0005f2a8       0x20 archival/lib.a(gzip.o)
 .text.bi_windup
                0x0005f2c8       0x64 archival/lib.a(gzip.o)
 .text.flush_block
                0x0005f32c      0x2e4 archival/lib.a(gzip.o)
 .text.pack_gzip
                0x0005f610      0x950 archival/lib.a(gzip.o)
 .text.gzip_main
                0x0005ff60       0xf0 archival/lib.a(gzip.o)
                0x0005ff60                gzip_main
 .text.gnu_dev_major
                0x00060050       0x14 archival/lib.a(tar.o)
 .text.gnu_dev_minor
                0x00060064       0x18 archival/lib.a(tar.o)
 .text.append_file_list_to_list
                0x0006007c       0x7c archival/lib.a(tar.o)
 .text.vfork_compressor
                0x000600f8      0x108 archival/lib.a(tar.o)
 .text.writeTarFile
                0x00060200      0x11c archival/lib.a(tar.o)
 .text.putOctal
                0x0006031c       0x60 archival/lib.a(tar.o)
 .text.chksum_and_xwrite
                0x0006037c       0x74 archival/lib.a(tar.o)
 .text.writeLongname
                0x000603f0       0xe4 archival/lib.a(tar.o)
 .text.writeTarHeader
                0x000604d4      0x37c archival/lib.a(tar.o)
 .text.writeFileToTarball
                0x00060850      0x294 archival/lib.a(tar.o)
 .text.tar_main
                0x00060ae4      0x2ec archival/lib.a(tar.o)
                0x00060ae4                tar_main
 .text.data_extract_all
                0x00060dd0      0x39c archival/libarchive/lib.a(data_extract_all.o)
                0x00060dd0                data_extract_all
 .text.data_extract_to_stdout
                0x0006116c       0x24 archival/libarchive/lib.a(data_extract_to_stdout.o)
                0x0006116c                data_extract_to_stdout
 .text.data_skip
                0x00061190       0x2c archival/libarchive/lib.a(data_skip.o)
                0x00061190                data_skip
 .text.get_bits
                0x000611bc       0xcc archival/libarchive/lib.a(decompress_bunzip2.o)
 .text.get_next_block
                0x00061288      0x7f4 archival/libarchive/lib.a(decompress_bunzip2.o)
 .text.read_bunzip
                0x00061a7c      0x158 archival/libarchive/lib.a(decompress_bunzip2.o)
                0x00061a7c                read_bunzip
 .text.start_bunzip
                0x00061bd4       0xfc archival/libarchive/lib.a(decompress_bunzip2.o)
                0x00061bd4                start_bunzip
 .text.dealloc_bunzip
                0x00061cd0       0x20 archival/libarchive/lib.a(decompress_bunzip2.o)
                0x00061cd0                dealloc_bunzip
 .text.unpack_bz2_stream
                0x00061cf0      0x164 archival/libarchive/lib.a(decompress_bunzip2.o)
                0x00061cf0                unpack_bz2_stream
 .text.inflate_codes_setup
                0x00061e54       0x44 archival/libarchive/lib.a(decompress_gunzip.o)
 .text.huft_free
                0x00061e98       0x28 archival/libarchive/lib.a(decompress_gunzip.o)
 .text.huft_free_all
                0x00061ec0       0x2c archival/libarchive/lib.a(decompress_gunzip.o)
 .text.buffer_read_le_u32
                0x00061eec       0x34 archival/libarchive/lib.a(decompress_gunzip.o)
 .text.huft_build
                0x00061f20      0x534 archival/libarchive/lib.a(decompress_gunzip.o)
 .text.abort_unzip
                0x00062454       0x18 archival/libarchive/lib.a(decompress_gunzip.o)
 .text.fill_bitbuffer
                0x0006246c      0x108 archival/libarchive/lib.a(decompress_gunzip.o)
 .text.inflate_block
                0x00062574      0x638 archival/libarchive/lib.a(decompress_gunzip.o)
 .text.inflate_codes
                0x00062bac      0x34c archival/libarchive/lib.a(decompress_gunzip.o)
 .text.calculate_gunzip_crc
                0x00062ef8       0x3c archival/libarchive/lib.a(decompress_gunzip.o)
 .text.inflate_unzip_internal
                0x00062f34      0x2b0 archival/libarchive/lib.a(decompress_gunzip.o)
 .text.top_up   0x000631e4       0x8c archival/libarchive/lib.a(decompress_gunzip.o)
 .text.unpack_gz_stream
                0x00063270      0x29c archival/libarchive/lib.a(decompress_gunzip.o)
                0x00063270                unpack_gz_stream
 .text.filter_accept_reject_list
                0x0006350c       0x4c archival/libarchive/lib.a(filter_accept_reject_list.o)
                0x0006350c                filter_accept_reject_list
 .text.find_list_entry
                0x00063558       0x40 archival/libarchive/lib.a(find_list_entry.o)
                0x00063558                find_list_entry
 .text.find_list_entry2
                0x00063598       0xbc archival/libarchive/lib.a(find_list_entry.o)
                0x00063598                find_list_entry2
 .text.getOctal
                0x00063654       0x98 archival/libarchive/lib.a(get_header_tar.o)
 .text.strip_unsafe_prefix
                0x000636ec       0x9c archival/libarchive/lib.a(get_header_tar.o)
                0x000636ec                strip_unsafe_prefix
 .text.get_header_tar
                0x00063788      0x718 archival/libarchive/lib.a(get_header_tar.o)
                0x00063788                get_header_tar
 .text.header_list
                0x00063ea0       0x14 archival/libarchive/lib.a(header_list.o)
                0x00063ea0                header_list
 .text.header_verbose_list
                0x00063eb4       0xb0 archival/libarchive/lib.a(header_verbose_list.o)
                0x00063eb4                header_verbose_list
 .text.init_handle
                0x00063f64       0x58 archival/libarchive/lib.a(init_handle.o)
                0x00063f64                init_handle
 .text.init_transformer_aux_data
                0x00063fbc       0x18 archival/libarchive/lib.a(open_transformer.o)
                0x00063fbc                init_transformer_aux_data
 .text.check_signature16
                0x00063fd4       0x5c archival/libarchive/lib.a(open_transformer.o)
                0x00063fd4                check_signature16
 .text.check_errors_in_children
                0x00064030       0x4c archival/libarchive/lib.a(open_transformer.o)
                0x00064030                check_errors_in_children
 .text.open_transformer
                0x0006407c       0x78 archival/libarchive/lib.a(open_transformer.o)
                0x0006407c                open_transformer
 .text.setup_unzip_on_fd
                0x000640f4       0x84 archival/libarchive/lib.a(open_transformer.o)
                0x000640f4                setup_unzip_on_fd
 .text.open_zipped
                0x00064178       0x58 archival/libarchive/lib.a(open_transformer.o)
                0x00064178                open_zipped
 .text.xmalloc_open_zipped_read_close
                0x000641d0       0x4c archival/libarchive/lib.a(open_transformer.o)
                0x000641d0                xmalloc_open_zipped_read_close
 .text.seek_by_jump
                0x0006421c       0x78 archival/libarchive/lib.a(seek_by_jump.o)
                0x0006421c                seek_by_jump
 .text.seek_by_read
                0x00064294       0x18 archival/libarchive/lib.a(seek_by_read.o)
                0x00064294                seek_by_read
 .text.data_align
                0x000642ac       0x80 archival/libarchive/lib.a(data_align.o)
                0x000642ac                data_align
 .text.filter_accept_all
                0x0006432c       0x14 archival/libarchive/lib.a(filter_accept_all.o)
                0x0006432c                filter_accept_all
 .text.header_skip
                0x00064340        0x4 archival/libarchive/lib.a(header_skip.o)
                0x00064340                header_skip
 .text.clear_main
                0x00064344       0x20 console-tools/lib.a(clear.o)
                0x00064344                clear_main
 .text.reset_main
                0x00064364       0x38 console-tools/lib.a(reset.o)
                0x00064364                reset_main
 .text.onintr   0x0006439c       0x20 console-tools/lib.a(resize.o)
 .text.resize_main
                0x000643bc       0xf0 console-tools/lib.a(resize.o)
                0x000643bc                resize_main
 .text.basename_main
                0x000644ac       0xb8 coreutils/lib.a(basename.o)
                0x000644ac                basename_main
 .text.bb_cat   0x00064564       0x7c coreutils/lib.a(cat.o)
                0x00064564                bb_cat
 .text.cat_main
                0x000645e0       0x30 coreutils/lib.a(cat.o)
                0x000645e0                cat_main
 .text.chgrp_main
                0x00064610       0x5c coreutils/lib.a(chgrp.o)
                0x00064610                chgrp_main
 .text.fileAction
                0x0006466c       0x90 coreutils/lib.a(chmod.o)
 .text.chmod_main
                0x000646fc       0xec coreutils/lib.a(chmod.o)
                0x000646fc                chmod_main
 .text.fileAction
                0x000647e8       0x58 coreutils/lib.a(chown.o)
 .text.chown_main
                0x00064840       0xcc coreutils/lib.a(chown.o)
                0x00064840                chown_main
 .text.chroot_main
                0x0006490c       0x44 coreutils/lib.a(chroot.o)
                0x0006490c                chroot_main
 .text.cp_main  0x00064950      0x148 coreutils/lib.a(cp.o)
                0x00064950                cp_main
 .text.cmpfunc  0x00064a98       0x10 coreutils/lib.a(cut.o)
 .text.cut_main
                0x00064aa8      0x4e4 coreutils/lib.a(cut.o)
                0x00064aa8                cut_main
 .text.maybe_set_utc
                0x00064f8c       0x1c coreutils/lib.a(date.o)
 .text.date_main
                0x00064fa8      0x2dc coreutils/lib.a(date.o)
                0x00064fa8                date_main
 .text.dd_output_status
                0x00065284       0x60 coreutils/lib.a(dd.o)
 .text.dd_main  0x000652e4      0x3f8 coreutils/lib.a(dd.o)
                0x000652e4                dd_main
 .text.df_main  0x000656dc      0x378 coreutils/lib.a(df.o)
                0x000656dc                df_main
 .text.dirname_main
                0x00065a54       0x20 coreutils/lib.a(dirname.o)
                0x00065a54                dirname_main
 .text.print    0x00065a74       0x38 coreutils/lib.a(du.o)
 .text.du       0x00065aac      0x214 coreutils/lib.a(du.o)
 .text.du_main  0x00065cc0      0x13c coreutils/lib.a(du.o)
                0x00065cc0                du_main
 .text.echo_main
                0x00065dfc      0x19c coreutils/lib.a(echo.o)
                0x00065dfc                echo_main
 .text.env_main
                0x00065f98      0x118 coreutils/lib.a(env.o)
                0x00065f98                env_main
 .text.null     0x000660b0       0x4c coreutils/lib.a(expr.o)
 .text.tostring
                0x000660fc       0x3c coreutils/lib.a(expr.o)
 .text.int_value
                0x00066138       0x24 coreutils/lib.a(expr.o)
 .text.str_value
                0x0006615c       0x34 coreutils/lib.a(expr.o)
 .text.docolon  0x00066190      0x114 coreutils/lib.a(expr.o)
 .text.toarith  0x000662a4       0x70 coreutils/lib.a(expr.o)
 .text.arithmetic_common
                0x00066314       0xdc coreutils/lib.a(expr.o)
 .text.freev    0x000663f0       0x28 coreutils/lib.a(expr.o)
 .text.nextarg  0x00066418       0x44 coreutils/lib.a(expr.o)
 .text.eval     0x0006645c       0x74 coreutils/lib.a(expr.o)
 .text.eval6    0x000664d0      0x2ac coreutils/lib.a(expr.o)
 .text.eval5    0x0006677c       0x70 coreutils/lib.a(expr.o)
 .text.eval4    0x000667ec       0xac coreutils/lib.a(expr.o)
 .text.eval3    0x00066898       0x98 coreutils/lib.a(expr.o)
 .text.eval2    0x00066930      0x1d4 coreutils/lib.a(expr.o)
 .text.eval1    0x00066b04       0x98 coreutils/lib.a(expr.o)
 .text.expr_main
                0x00066b9c       0x94 coreutils/lib.a(expr.o)
                0x00066b9c                expr_main
 .text.false_main
                0x00066c30        0x8 coreutils/lib.a(false.o)
                0x00066c30                false_main
 .text.head_main
                0x00066c38      0x400 coreutils/lib.a(head.o)
                0x00066c38                head_main
 .text.hostid_main
                0x00067038       0x30 coreutils/lib.a(hostid.o)
                0x00067038                hostid_main
 .text.get_groups
                0x00067068       0x80 coreutils/lib.a(id.o)
 .text.print_common
                0x000670e8       0xa0 coreutils/lib.a(id.o)
 .text.print_user
                0x00067188       0x24 coreutils/lib.a(id.o)
 .text.print_group
                0x000671ac       0x24 coreutils/lib.a(id.o)
 .text.id_main  0x000671d0      0x288 coreutils/lib.a(id.o)
                0x000671d0                id_main
 .text.ln_main  0x00067458      0x26c coreutils/lib.a(ln.o)
                0x00067458                ln_main
 .text.fgcolor  0x000676c4       0x34 coreutils/lib.a(ls.o)
 .text.bold     0x000676f8       0x34 coreutils/lib.a(ls.o)
 .text.append_char
                0x0006772c       0x60 coreutils/lib.a(ls.o)
 .text.count_dirs
                0x0006778c       0x88 coreutils/lib.a(ls.o)
 .text.dnalloc  0x00067814       0x1c coreutils/lib.a(ls.o)
 .text.splitdnarray
                0x00067830       0xa0 coreutils/lib.a(ls.o)
 .text.my_stat  0x000678d0      0x18c coreutils/lib.a(ls.o)
 .text.print_name
                0x00067a5c      0x118 coreutils/lib.a(ls.o)
 .text.display_single
                0x00067b74      0x430 coreutils/lib.a(ls.o)
 .text.dnsort   0x00067fa4       0x1c coreutils/lib.a(ls.o)
 .text.sort_and_display_files
                0x00067fc0      0x1fc coreutils/lib.a(ls.o)
 .text.sortcmp  0x000681bc      0x130 coreutils/lib.a(ls.o)
 .text.scan_and_display_dirs_recur
                0x000682ec      0x1ec coreutils/lib.a(ls.o)
 .text.ls_main  0x000684d8      0x3a0 coreutils/lib.a(ls.o)
                0x000684d8                ls_main
 .text.hash_file
                0x00068878      0x11c coreutils/lib.a(md5_sha1_sum.o)
 .text.md5_sha1_sum_main
                0x00068994      0x1f8 coreutils/lib.a(md5_sha1_sum.o)
                0x00068994                md5_sha1_sum_main
 .text.mkdir_main
                0x00068b8c       0xd4 coreutils/lib.a(mkdir.o)
                0x00068b8c                mkdir_main
 .text.mkfifo_main
                0x00068c60       0x70 coreutils/lib.a(mkfifo.o)
                0x00068c60                mkfifo_main
 .text.mknod_main
                0x00068cd0       0xf4 coreutils/lib.a(mknod.o)
                0x00068cd0                mknod_main
 .text.mv_main  0x00068dc4      0x260 coreutils/lib.a(mv.o)
                0x00068dc4                mv_main
 .text.nice_main
                0x00069024       0xd0 coreutils/lib.a(nice.o)
                0x00069024                nice_main
 .text.nohup_main
                0x000690f4       0xfc coreutils/lib.a(nohup.o)
                0x000690f4                nohup_main
 .text.get_width_prec
                0x000691f0       0x48 coreutils/lib.a(printf.o)
 .text.multiconvert
                0x00069238       0x78 coreutils/lib.a(printf.o)
 .text.print_direc
                0x000692b0      0x264 coreutils/lib.a(printf.o)
 .text.conv_strtoll
                0x00069514       0x20 coreutils/lib.a(printf.o)
 .text.conv_strtoull
                0x00069534       0x50 coreutils/lib.a(printf.o)
 .text.conv_strtod
                0x00069584       0x4c coreutils/lib.a(printf.o)
 .text.printf_main
                0x000695d0      0x418 coreutils/lib.a(printf.o)
                0x000695d0                printf_main
 .text.pwd_main
                0x000699e8       0x30 coreutils/lib.a(pwd.o)
                0x000699e8                pwd_main
 .text.readlink_main
                0x00069a18       0xa0 coreutils/lib.a(readlink.o)
                0x00069a18                readlink_main
 .text.rm_main  0x00069ab8       0xe8 coreutils/lib.a(rm.o)
                0x00069ab8                rm_main
 .text.rmdir_main
                0x00069ba0       0xec coreutils/lib.a(rmdir.o)
                0x00069ba0                rmdir_main
 .text.seq_main
                0x00069c8c      0x2ac coreutils/lib.a(seq.o)
                0x00069c8c                seq_main
 .text.sleep_main
                0x00069f38      0x208 coreutils/lib.a(sleep.o)
                0x00069f38                sleep_main
 .text.compare_keys
                0x0006a140       0x84 coreutils/lib.a(sort.o)
 .text.sort_main
                0x0006a1c4      0x1d0 coreutils/lib.a(sort.o)
                0x0006a1c4                sort_main
 .text.get_ptr_to_tcflag
                0x0006a394       0x1c coreutils/lib.a(stty.o)
 .text.set_mode
                0x0006a3b0      0x408 coreutils/lib.a(stty.o)
 .text.find_mode
                0x0006a7b8       0x30 coreutils/lib.a(stty.o)
 .text.find_control
                0x0006a7e8       0x30 coreutils/lib.a(stty.o)
 .text.find_param
                0x0006a818       0x34 coreutils/lib.a(stty.o)
 .text.set_control_char_or_die
                0x0006a84c       0xcc coreutils/lib.a(stty.o)
 .text.perror_on_device
                0x0006a918       0x1c coreutils/lib.a(stty.o)
 .text.wrapf    0x0006a934       0xd0 coreutils/lib.a(stty.o)
 .text.display_window_size
                0x0006aa04       0x88 coreutils/lib.a(stty.o)
 .text.newline  0x0006aa8c       0x20 coreutils/lib.a(stty.o)
 .text.set_window_size
                0x0006aaac       0x94 coreutils/lib.a(stty.o)
 .text.display_speed
                0x0006ab40       0x78 coreutils/lib.a(stty.o)
 .text.recover_mode
                0x0006abb8       0xd0 coreutils/lib.a(stty.o)
 .text.set_speed_or_die
                0x0006ac88       0x4c coreutils/lib.a(stty.o)
 .text.perror_on_device_and_die
                0x0006acd4       0x14 coreutils/lib.a(stty.o)
 .text.display_recoverable
                0x0006ace8       0x54 coreutils/lib.a(stty.o)
 .text.do_display
                0x0006ad3c      0x1b0 coreutils/lib.a(stty.o)
 .text.stty_main
                0x0006aeec      0x51c coreutils/lib.a(stty.o)
                0x0006aeec                stty_main
 .text.sync_main
                0x0006b408       0x14 coreutils/lib.a(sync.o)
                0x0006b408                sync_main
 .text.eat_num  0x0006b41c       0x40 coreutils/lib.a(tail.o)
 .text.tail_read
                0x0006b45c       0x38 coreutils/lib.a(tail.o)
 .text.tail_xprint_header
                0x0006b494       0x28 coreutils/lib.a(tail.o)
 .text.tail_main
                0x0006b4bc      0x754 coreutils/lib.a(tail.o)
                0x0006b4bc                tail_main
 .text.tee_main
                0x0006bc10      0x18c coreutils/lib.a(tee.o)
                0x0006bc10                tee_main
 .text.check_operator
                0x0006bd9c       0x58 coreutils/lib.a(test.o)
 .text.syntax   0x0006bdf4       0x54 coreutils/lib.a(test.o)
 .text.getn     0x0006be48       0x88 coreutils/lib.a(test.o)
 .text.binop    0x0006bed0      0x228 coreutils/lib.a(test.o)
 .text.nexpr    0x0006c0f8      0x41c coreutils/lib.a(test.o)
 .text.aexpr    0x0006c514       0x84 coreutils/lib.a(test.o)
 .text.oexpr    0x0006c598       0x84 coreutils/lib.a(test.o)
 .text.test_main
                0x0006c61c      0x144 coreutils/lib.a(test.o)
                0x0006c61c                test_main
 .text.touch_main
                0x0006c760      0x1c0 coreutils/lib.a(touch.o)
                0x0006c760                touch_main
 .text.complement
                0x0006c920       0x6c coreutils/lib.a(tr.o)
 .text.expand   0x0006c98c       0xd4 coreutils/lib.a(tr.o)
 .text.tr_main  0x0006ca60      0x220 coreutils/lib.a(tr.o)
                0x0006ca60                tr_main
 .text.true_main
                0x0006cc80        0x8 coreutils/lib.a(true.o)
                0x0006cc80                true_main
 .text.tty_main
                0x0006cc88       0x58 coreutils/lib.a(tty.o)
                0x0006cc88                tty_main
 .text.uname_main
                0x0006cce0      0x108 coreutils/lib.a(uname.o)
                0x0006cce0                uname_main
 .text.uniq_main
                0x0006cde8      0x1ec coreutils/lib.a(uniq.o)
                0x0006cde8                uniq_main
 .text.usleep_main
                0x0006cfd4       0x24 coreutils/lib.a(usleep.o)
                0x0006cfd4                usleep_main
 .text.base64_main
                0x0006cff8      0x100 coreutils/lib.a(uudecode.o)
                0x0006cff8                base64_main
 .text.wc_main  0x0006d0f8      0x2a4 coreutils/lib.a(wc.o)
                0x0006d0f8                wc_main
 .text.yes_main
                0x0006d39c       0xb4 coreutils/lib.a(yes.o)
                0x0006d39c                yes_main
 .text.cp_mv_stat2
                0x0006d450       0x6c coreutils/libcoreutils/lib.a(cp_mv_stat.o)
                0x0006d450                cp_mv_stat2
 .text.cp_mv_stat
                0x0006d4bc        0xc coreutils/libcoreutils/lib.a(cp_mv_stat.o)
                0x0006d4bc                cp_mv_stat
 .text.getopt_mk_fifo_nod
                0x0006d4c8       0x58 coreutils/libcoreutils/lib.a(getopt_mk_fifo_nod.o)
                0x0006d4c8                getopt_mk_fifo_nod
 .text.mktemp_main
                0x0006d520      0x118 debianutils/lib.a(mktemp.o)
                0x0006d520                mktemp_main
 .text.bb_alphasort
                0x0006d638       0x2c debianutils/lib.a(run_parts.o)
 .text.act      0x0006d664       0xdc debianutils/lib.a(run_parts.o)
 .text.run_parts_main
                0x0006d740      0x1c0 debianutils/lib.a(run_parts.o)
                0x0006d740                run_parts_main
 .text.check    0x0006d900      0x1b4 debianutils/lib.a(start_stop_daemon.o)
 .text.start_stop_daemon_main
                0x0006dab4      0x468 debianutils/lib.a(start_stop_daemon.o)
                0x0006dab4                start_stop_daemon_main
 .text.which_main
                0x0006df1c       0xfc debianutils/lib.a(which.o)
                0x0006df1c                which_main
 .text.hashidx  0x0006e018       0x28 editors/lib.a(awk.o)
 .text.skip_spaces
                0x0006e040       0x4c editors/lib.a(awk.o)
 .text.nextword
                0x0006e08c       0x20 editors/lib.a(awk.o)
 .text.rollback_token
                0x0006e0ac       0x18 editors/lib.a(awk.o)
 .text.nextarg  0x0006e0c4       0x38 editors/lib.a(awk.o)
 .text.hash_init
                0x0006e0fc       0x30 editors/lib.a(awk.o)
 .text.iamarray
                0x0006e12c       0x40 editors/lib.a(awk.o)
 .text.new_node
                0x0006e16c       0x30 editors/lib.a(awk.o)
 .text.nvalloc  0x0006e19c       0xf4 editors/lib.a(awk.o)
 .text.qrealloc
                0x0006e290       0x30 editors/lib.a(awk.o)
 .text.clrvar   0x0006e2c0       0x44 editors/lib.a(awk.o)
 .text.fsrealloc
                0x0006e304       0xb4 editors/lib.a(awk.o)
 .text.clear_array
                0x0006e3b8       0x6c editors/lib.a(awk.o)
 .text.zero_out_var
                0x0006e424       0x18 editors/lib.a(awk.o)
 .text.chain_node
                0x0006e43c       0x8c editors/lib.a(awk.o)
 .text.mk_re_node
                0x0006e4c8       0x44 editors/lib.a(awk.o)
 .text.mk_splitter
                0x0006e50c       0x6c editors/lib.a(awk.o)
 .text.my_strtod
                0x0006e578       0x18 editors/lib.a(awk.o)
 .text.getvar_i
                0x0006e590       0xb0 editors/lib.a(awk.o)
 .text.is_numeric
                0x0006e640       0x28 editors/lib.a(awk.o)
 .text.istrue   0x0006e668       0x54 editors/lib.a(awk.o)
 .text.getvar_i_int
                0x0006e6bc       0x4c editors/lib.a(awk.o)
 .text.hash_search
                0x0006e708       0x54 editors/lib.a(awk.o)
 .text.hash_find
                0x0006e75c      0x120 editors/lib.a(awk.o)
 .text.hash_remove
                0x0006e87c       0x8c editors/lib.a(awk.o)
 .text.nextchar
                0x0006e908       0x54 editors/lib.a(awk.o)
 .text.unescape_string_in_place
                0x0006e95c       0x2c editors/lib.a(awk.o)
 .text.do_mktime
                0x0006e988       0xa4 editors/lib.a(awk.o)
 .text.syntax_error
                0x0006ea2c       0x28 editors/lib.a(awk.o)
 .text.fmt_num  0x0006ea54      0x118 editors/lib.a(awk.o)
 .text.getvar_s
                0x0006eb6c       0x94 editors/lib.a(awk.o)
 .text.awk_split
                0x0006ec00      0x29c editors/lib.a(awk.o)
 .text.split_f0
                0x0006ee9c       0xd0 editors/lib.a(awk.o)
 .text.handle_special
                0x0006ef6c      0x1b4 editors/lib.a(awk.o)
 .text.setvar_p
                0x0006f120       0x28 editors/lib.a(awk.o)
 .text.setvar_s
                0x0006f148       0x30 editors/lib.a(awk.o)
 .text.setvar_u
                0x0006f178       0x1c editors/lib.a(awk.o)
 .text.is_assignment
                0x0006f194       0xa8 editors/lib.a(awk.o)
 .text.setari_u
                0x0006f23c       0x34 editors/lib.a(awk.o)
 .text.setvar_i
                0x0006f270       0x3c editors/lib.a(awk.o)
 .text.incvar   0x0006f2ac       0x30 editors/lib.a(awk.o)
 .text.awk_getline
                0x0006f2dc      0x2f4 editors/lib.a(awk.o)
 .text.copyvar  0x0006f5d0       0x68 editors/lib.a(awk.o)
 .text.next_input_file
                0x0006f638      0x11c editors/lib.a(awk.o)
 .text.next_token
                0x0006f754      0x430 editors/lib.a(awk.o)
 .text.parse_expr
                0x0006fb84      0x34c editors/lib.a(awk.o)
 .text.condition
                0x0006fed0       0x18 editors/lib.a(awk.o)
 .text.chain_expr
                0x0006fee8       0x40 editors/lib.a(awk.o)
 .text.chain_group
                0x0006ff28      0x2c8 editors/lib.a(awk.o)
 .text.parse_program
                0x000701f0      0x170 editors/lib.a(awk.o)
 .text.chain_loop
                0x00070360       0x8c editors/lib.a(awk.o)
 .text.nvfree   0x000703ec       0xfc editors/lib.a(awk.o)
 .text.awk_exit
                0x000704e8       0x9c editors/lib.a(awk.o)
 .text.evaluate
                0x00070584     0x107c editors/lib.a(awk.o)
 .text.as_regex
                0x00071600       0xac editors/lib.a(awk.o)
 .text.awk_sub  0x000716ac      0x278 editors/lib.a(awk.o)
 .text.exec_builtin
                0x00071924      0x604 editors/lib.a(awk.o)
 .text.awk_printf
                0x00071f28      0x1f4 editors/lib.a(awk.o)
 .text.ptest    0x0007211c       0x20 editors/lib.a(awk.o)
 .text.awk_main
                0x0007213c      0x4bc editors/lib.a(awk.o)
                0x0007213c                awk_main
 .text.cmp_main
                0x000725f8      0x260 editors/lib.a(cmp.o)
                0x000725f8                cmp_main
 .text.line_compar
                0x00072858       0x20 editors/lib.a(diff.o)
 .text.print_status
                0x00072878       0x74 editors/lib.a(diff.o)
 .text.add_to_dirlist
                0x000728ec       0x64 editors/lib.a(diff.o)
 .text.skip_dir
                0x00072950       0xc4 editors/lib.a(diff.o)
 .text.seek_ft  0x00072a14       0x3c editors/lib.a(diff.o)
 .text.read_token
                0x00072a50      0x118 editors/lib.a(diff.o)
 .text.create_J
                0x00072b68      0x86c editors/lib.a(diff.o)
 .text.fetch    0x000733d4      0x1a4 editors/lib.a(diff.o)
 .text.diffreg  0x00073578      0x610 editors/lib.a(diff.o)
 .text.diff_main
                0x00073b88      0x5f0 editors/lib.a(diff.o)
                0x00073b88                diff_main
 .text.parse_escapes
                0x00074178       0x7c editors/lib.a(sed.o)
 .text.index_of_next_unescaped_regexp_delim
                0x000741f4       0xbc editors/lib.a(sed.o)
 .text.copy_parsing_escapes
                0x000742b0       0x68 editors/lib.a(sed.o)
 .text.get_address
                0x00074318       0xe8 editors/lib.a(sed.o)
 .text.parse_regex_delim
                0x00074400       0x80 editors/lib.a(sed.o)
 .text.parse_file_cmd
                0x00074480       0xa0 editors/lib.a(sed.o)
 .text.add_cmd  0x00074520      0x5a0 editors/lib.a(sed.o)
 .text.add_cmd_block
                0x00074ac0       0x4c editors/lib.a(sed.o)
 .text.pipe_putc
                0x00074b0c       0x58 editors/lib.a(sed.o)
 .text.append   0x00074b64       0x1c editors/lib.a(sed.o)
 .text.puts_maybe_newline
                0x00074b80       0xf0 editors/lib.a(sed.o)
 .text.flush_append
                0x00074c70       0x4c editors/lib.a(sed.o)
 .text.get_next_line
                0x00074cbc      0x134 editors/lib.a(sed.o)
 .text.cleanup_outname
                0x00074df0       0x20 editors/lib.a(sed.o)
 .text.process_files
                0x00074e10      0xac4 editors/lib.a(sed.o)
 .text.sed_main
                0x000758d4      0x2e8 editors/lib.a(sed.o)
                0x000758d4                sed_main
 .text.next_tabstop
                0x00075bbc       0x2c editors/lib.a(vi.o)
 .text.dot_left
                0x00075be8       0x30 editors/lib.a(vi.o)
 .text.dot_right
                0x00075c18       0x30 editors/lib.a(vi.o)
 .text.dot_skip_over_ws
                0x00075c48       0x50 editors/lib.a(vi.o)
 .text.find_pair
                0x00075c98       0xc4 editors/lib.a(vi.o)
 .text.end_cmd_q
                0x00075d5c       0x20 editors/lib.a(vi.o)
 .text.what_reg
                0x00075d7c       0x40 editors/lib.a(vi.o)
 .text.show_help
                0x00075dbc       0x18 editors/lib.a(vi.o)
 .text.text_yank
                0x00075dd4       0x48 editors/lib.a(vi.o)
 .text.rawmode  0x00075e1c       0x94 editors/lib.a(vi.o)
 .text.cookmode
                0x00075eb0       0x24 editors/lib.a(vi.o)
 .text.query_screen_dimensions
                0x00075ed4       0x48 editors/lib.a(vi.o)
 .text.screen_erase
                0x00075f1c       0x28 editors/lib.a(vi.o)
 .text.new_screen
                0x00075f44       0x70 editors/lib.a(vi.o)
 .text.file_size
                0x00075fb4       0x34 editors/lib.a(vi.o)
 .text.text_hole_delete
                0x00075fe8       0xa8 editors/lib.a(vi.o)
 .text.yank_delete
                0x00076090       0xa0 editors/lib.a(vi.o)
 .text.text_hole_make
                0x00076130       0xf4 editors/lib.a(vi.o)
 .text.stupid_insert
                0x00076224       0x20 editors/lib.a(vi.o)
 .text.status_line_bold
                0x00076244       0x64 editors/lib.a(vi.o)
 .text.status_line_bold_errno
                0x000762a8       0x34 editors/lib.a(vi.o)
 .text.file_insert
                0x000762dc      0x198 editors/lib.a(vi.o)
 .text.not_implemented
                0x00076474      0x104 editors/lib.a(vi.o)
 .text.status_line
                0x00076578       0x3c editors/lib.a(vi.o)
 .text.string_insert
                0x000765b4       0x7c editors/lib.a(vi.o)
 .text.skip_thing
                0x00076630      0x164 editors/lib.a(vi.o)
 .text.setops   0x00076794       0x78 editors/lib.a(vi.o)
 .text.mycmp    0x0007680c       0x30 editors/lib.a(vi.o)
 .text.file_write
                0x0007683c       0x8c editors/lib.a(vi.o)
 .text.begin_line
                0x000768c8       0x48 editors/lib.a(vi.o)
 .text.prev_line
                0x00076910       0x34 editors/lib.a(vi.o)
 .text.dot_prev
                0x00076944       0x24 editors/lib.a(vi.o)
 .text.move_to_col
                0x00076968       0x74 editors/lib.a(vi.o)
 .text.dot_begin
                0x000769dc       0x24 editors/lib.a(vi.o)
 .text.end_line
                0x00076a00       0x48 editors/lib.a(vi.o)
 .text.next_line
                0x00076a48       0x38 editors/lib.a(vi.o)
 .text.find_line
                0x00076a80       0x34 editors/lib.a(vi.o)
 .text.char_search
                0x00076ab4       0xe0 editors/lib.a(vi.o)
 .text.dot_next
                0x00076b94       0x24 editors/lib.a(vi.o)
 .text.count_lines
                0x00076bb8       0x74 editors/lib.a(vi.o)
 .text.get_one_address
                0x00076c2c      0x160 editors/lib.a(vi.o)
 .text.end_screen
                0x00076d8c       0x3c editors/lib.a(vi.o)
 .text.dot_scroll
                0x00076dc8       0x84 editors/lib.a(vi.o)
 .text.sync_cursor
                0x00076e4c      0x19c editors/lib.a(vi.o)
 .text.dot_end  0x00076fe8       0x24 editors/lib.a(vi.o)
 .text.mysleep  0x0007700c       0x38 editors/lib.a(vi.o)
 .text.catch_sig
                0x00077044       0x30 editors/lib.a(vi.o)
 .text.write1   0x00077074       0x1c editors/lib.a(vi.o)
 .text.standout_start
                0x00077090        0xc editors/lib.a(vi.o)
 .text.standout_end
                0x0007709c        0xc editors/lib.a(vi.o)
 .text.place_cursor
                0x000770a8       0x60 editors/lib.a(vi.o)
 .text.refresh  0x00077108      0x344 editors/lib.a(vi.o)
 .text.clear_to_eos
                0x0007744c        0xc editors/lib.a(vi.o)
 .text.go_bottom_and_clear_to_eol
                0x00077458       0x30 editors/lib.a(vi.o)
 .text.readit   0x00077488       0x48 editors/lib.a(vi.o)
 .text.get_one_char
                0x000774d0       0x90 editors/lib.a(vi.o)
 .text.suspend_sig
                0x00077560       0x5c editors/lib.a(vi.o)
 .text.get_input_line
                0x000775bc       0xf8 editors/lib.a(vi.o)
 .text.Hit_Return
                0x000776b4       0x38 editors/lib.a(vi.o)
 .text.show_status_line
                0x000776ec      0x1e0 editors/lib.a(vi.o)
 .text.redraw   0x000778cc       0x40 editors/lib.a(vi.o)
 .text.cont_sig
                0x0007790c       0x5c editors/lib.a(vi.o)
 .text.winch_sig
                0x00077968       0x54 editors/lib.a(vi.o)
 .text.Indicate_Error
                0x000779bc       0x50 editors/lib.a(vi.o)
 .text.char_insert
                0x00077a0c      0x1e0 editors/lib.a(vi.o)
 .text.init_text_buffer
                0x00077bec       0xb4 editors/lib.a(vi.o)
 .text.bound_dot
                0x00077ca0       0x50 editors/lib.a(vi.o)
 .text.colon    0x00077cf0      0xd5c editors/lib.a(vi.o)
 .text.do_cmd   0x00078a4c     0x170c editors/lib.a(vi.o)
 .text.edit_file
                0x0007a158      0x354 editors/lib.a(vi.o)
 .text.find_range
                0x0007a4ac      0x27c editors/lib.a(vi.o)
 .text.vi_main  0x0007a728      0x178 editors/lib.a(vi.o)
                0x0007a728                vi_main
 .text.exec_actions
                0x0007a8a0       0x74 findutils/lib.a(find.o)
 .text.func_type
                0x0007a914       0x1c findutils/lib.a(find.o)
 .text.func_perm
                0x0007a930       0x54 findutils/lib.a(find.o)
 .text.func_user
                0x0007a984       0x18 findutils/lib.a(find.o)
 .text.func_group
                0x0007a99c       0x18 findutils/lib.a(find.o)
 .text.func_paren
                0x0007a9b4       0x18 findutils/lib.a(find.o)
 .text.func_size
                0x0007a9cc       0x60 findutils/lib.a(find.o)
 .text.func_prune
                0x0007aa2c        0x8 findutils/lib.a(find.o)
 .text.plus_minus_num
                0x0007aa34       0x14 findutils/lib.a(find.o)
 .text.alloc_action
                0x0007aa48       0x68 findutils/lib.a(find.o)
 .text.parse_params
                0x0007aab0      0x614 findutils/lib.a(find.o)
 .text.func_regex
                0x0007b0c4       0x60 findutils/lib.a(find.o)
 .text.func_path
                0x0007b124       0x30 findutils/lib.a(find.o)
 .text.func_name
                0x0007b154       0x74 findutils/lib.a(find.o)
 .text.func_exec
                0x0007b1c8      0x140 findutils/lib.a(find.o)
 .text.func_print0
                0x0007b308       0x24 findutils/lib.a(find.o)
 .text.func_print
                0x0007b32c       0x14 findutils/lib.a(find.o)
 .text.fileAction
                0x0007b340      0x108 findutils/lib.a(find.o)
 .text.find_main
                0x0007b448      0x1e0 findutils/lib.a(find.o)
                0x0007b448                find_main
 .text.add_grep_list_data
                0x0007b628       0x1c findutils/lib.a(grep.o)
 .text.print_line
                0x0007b644       0xcc findutils/lib.a(grep.o)
 .text.grep_file
                0x0007b710      0x620 findutils/lib.a(grep.o)
 .text.file_action_grep
                0x0007bd30       0x70 findutils/lib.a(grep.o)
 .text.grep_main
                0x0007bda0      0x3d4 findutils/lib.a(grep.o)
                0x0007bda0                grep_main
 .text.store_param
                0x0007c174       0x4c findutils/lib.a(xargs.o)
 .text.process0_stdin
                0x0007c1c0       0xa4 findutils/lib.a(xargs.o)
 .text.process_stdin
                0x0007c264      0x1b8 findutils/lib.a(xargs.o)
 .text.xargs_main
                0x0007c41c      0x398 findutils/lib.a(xargs.o)
                0x0007c41c                xargs_main
 .text.halt_main
                0x0007c7b4       0xc0 init/lib.a(halt.o)
                0x0007c7b4                halt_main
 .text.mark_terminated
                0x0007c874       0x48 init/lib.a(init.o)
 .text.set_sane_term
                0x0007c8bc       0xa4 init/lib.a(init.o)
 .text.new_init_action
                0x0007c960       0xbc init/lib.a(init.o)
 .text.reset_sighandlers_and_unblock_sigs
                0x0007ca1c       0x24 init/lib.a(init.o)
 .text.pause_and_low_level_reboot
                0x0007ca40       0x3c init/lib.a(init.o)
 .text.message  0x0007ca7c       0xc8 init/lib.a(init.o)
 .text.parse_inittab
                0x0007cb44      0x1c0 init/lib.a(init.o)
 .text.open_stdio_to_tty
                0x0007cd04       0x88 init/lib.a(init.o)
 .text.init_exec
                0x0007cd8c      0x150 init/lib.a(init.o)
 .text.run      0x0007cedc      0x114 init/lib.a(init.o)
 .text.run_actions
                0x0007cff0       0xa4 init/lib.a(init.o)
 .text.check_delayed_sigs
                0x0007d094       0xc4 init/lib.a(init.o)
 .text.stop_handler
                0x0007d158       0x70 init/lib.a(init.o)
 .text.run_shutdown_and_kill_processes
                0x0007d1c8       0x78 init/lib.a(init.o)
 .text.restart_handler
                0x0007d240       0x68 init/lib.a(init.o)
 .text.halt_reboot_pwoff
                0x0007d2a8       0x70 init/lib.a(init.o)
 .text.init_main
                0x0007d318      0x37c init/lib.a(init.o)
                0x0007d318                init_main
 .text.mesg_main
                0x0007d694       0xbc init/lib.a(mesg.o)
                0x0007d694                mesg_main
 .text.bb_ask_confirmation
                0x0007d750       0x78 libbb/lib.a(ask_confirmation.o)
                0x0007d750                bb_ask_confirmation
 .text.askpass_timeout
                0x0007d7c8        0x4 libbb/lib.a(bb_askpass.o)
 .text.bb_ask   0x0007d7cc      0x198 libbb/lib.a(bb_askpass.o)
                0x0007d7cc                bb_ask
 .text.bb_ask_stdin
                0x0007d964       0x10 libbb/lib.a(bb_askpass.o)
                0x0007d964                bb_ask_stdin
 .text.bb_bswap_64
                0x0007d974       0x34 libbb/lib.a(bb_bswap_64.o)
                0x0007d974                bb_bswap_64
 .text.bb_do_delay
                0x0007d9a8       0x38 libbb/lib.a(bb_do_delay.o)
                0x0007d9a8                bb_do_delay
 .text.xgetpwnam
                0x0007d9e0       0x28 libbb/lib.a(bb_pwd.o)
                0x0007d9e0                xgetpwnam
 .text.xgetgrnam
                0x0007da08       0x28 libbb/lib.a(bb_pwd.o)
                0x0007da08                xgetgrnam
 .text.xgetpwuid
                0x0007da30       0x28 libbb/lib.a(bb_pwd.o)
                0x0007da30                xgetpwuid
 .text.xuid2uname
                0x0007da58       0x14 libbb/lib.a(bb_pwd.o)
                0x0007da58                xuid2uname
 .text.uid2uname
                0x0007da6c       0x18 libbb/lib.a(bb_pwd.o)
                0x0007da6c                uid2uname
 .text.gid2group
                0x0007da84       0x18 libbb/lib.a(bb_pwd.o)
                0x0007da84                gid2group
 .text.uid2uname_utoa
                0x0007da9c       0x20 libbb/lib.a(bb_pwd.o)
                0x0007da9c                uid2uname_utoa
 .text.gid2group_utoa
                0x0007dabc       0x20 libbb/lib.a(bb_pwd.o)
                0x0007dabc                gid2group_utoa
 .text.xuname2uid
                0x0007dadc       0x14 libbb/lib.a(bb_pwd.o)
                0x0007dadc                xuname2uid
 .text.xgroup2gid
                0x0007daf0       0x14 libbb/lib.a(bb_pwd.o)
                0x0007daf0                xgroup2gid
 .text.get_ug_id
                0x0007db04       0x40 libbb/lib.a(bb_pwd.o)
                0x0007db04                get_ug_id
 .text.bb_pstrcmp
                0x0007db44       0x18 libbb/lib.a(bb_qsort.o)
                0x0007db44                bb_pstrcmp
 .text.qsort_string_vector
                0x0007db5c       0x1c libbb/lib.a(bb_qsort.o)
                0x0007db5c                qsort_string_vector
 .text.change_identity
                0x0007db78       0x40 libbb/lib.a(change_identity.o)
                0x0007db78                change_identity
 .text.index_in_strings
                0x0007dbb8       0x58 libbb/lib.a(compare_string_array.o)
                0x0007dbb8                index_in_strings
 .text.index_in_substrings
                0x0007dc10       0x90 libbb/lib.a(compare_string_array.o)
                0x0007dc10                index_in_substrings
 .text.nth_string
                0x0007dca0       0x38 libbb/lib.a(compare_string_array.o)
                0x0007dca0                nth_string
 .text.concat_path_file
                0x0007dcd8       0x64 libbb/lib.a(concat_path_file.o)
                0x0007dcd8                concat_path_file
 .text.concat_subpath_file
                0x0007dd3c       0x4c libbb/lib.a(concat_subpath_file.o)
                0x0007dd3c                concat_subpath_file
 .text.ask_and_unlink
                0x0007dd88       0x88 libbb/lib.a(copy_file.o)
 .text.copy_file
                0x0007de10      0x634 libbb/lib.a(copy_file.o)
                0x0007de10                copy_file
 .text.ask_and_check_password_extended
                0x0007e444       0x78 libbb/lib.a(correct_password.o)
                0x0007e444                ask_and_check_password_extended
 .text.ask_and_check_password
                0x0007e4bc       0x10 libbb/lib.a(correct_password.o)
                0x0007e4bc                ask_and_check_password
 .text.crc32_filltable
                0x0007e4cc       0x8c libbb/lib.a(crc32.o)
                0x0007e4cc                crc32_filltable
 .text.crc32_block_endian0
                0x0007e558       0x28 libbb/lib.a(crc32.o)
                0x0007e558                crc32_block_endian0
 .text.device_open
                0x0007e580       0x5c libbb/lib.a(device_open.o)
                0x0007e580                device_open
 .text.rewrite  0x0007e5dc      0x50c libbb/lib.a(dump.o)
 .text.next     0x0007eae8      0x18c libbb/lib.a(dump.o)
 .text.bb_dump_size.clone.0
                0x0007ec74      0x13c libbb/lib.a(dump.o)
 .text.alloc_dumper
                0x0007edb0       0x2c libbb/lib.a(dump.o)
                0x0007edb0                alloc_dumper
 .text.bb_dump_dump
                0x0007eddc      0x73c libbb/lib.a(dump.o)
                0x0007eddc                bb_dump_dump
 .text.bb_dump_add
                0x0007f518      0x208 libbb/lib.a(dump.o)
                0x0007f518                bb_dump_add
 .text.endofname
                0x0007f720       0x68 libbb/lib.a(endofname.o)
                0x0007f720                endofname
 .text.execable_file
                0x0007f788       0x58 libbb/lib.a(execable.o)
                0x0007f788                execable_file
 .text.find_execable
                0x0007f7e0       0x78 libbb/lib.a(execable.o)
                0x0007f7e0                find_execable
 .text.exists_execable
                0x0007f858       0x58 libbb/lib.a(execable.o)
                0x0007f858                exists_execable
 .text.BB_EXECVP
                0x0007f8b0       0x38 libbb/lib.a(execable.o)
                0x0007f8b0                BB_EXECVP
 .text.BB_EXECVP_or_die
                0x0007f8e8       0x4c libbb/lib.a(execable.o)
                0x0007f8e8                BB_EXECVP_or_die
 .text.fclose_if_not_stdin
                0x0007f934       0x50 libbb/lib.a(fclose_nonstdin.o)
                0x0007f934                fclose_if_not_stdin
 .text.fflush_stdout_and_exit
                0x0007f984       0x50 libbb/lib.a(fflush_stdout_and_exit.o)
                0x0007f984                fflush_stdout_and_exit
 .text.xmalloc_fgets_internal
                0x0007f9d4      0x10c libbb/lib.a(fgets_str.o)
 .text.xmalloc_fgets_str
                0x0007fae0       0x24 libbb/lib.a(fgets_str.o)
                0x0007fae0                xmalloc_fgets_str
 .text.xmalloc_fgets_str_len
                0x0007fb04       0x28 libbb/lib.a(fgets_str.o)
                0x0007fb04                xmalloc_fgets_str_len
 .text.find_mount_point
                0x0007fb2c      0x138 libbb/lib.a(find_mount_point.o)
                0x0007fb2c                find_mount_point
 .text.find_pid_by_name
                0x0007fc64      0x10c libbb/lib.a(find_pid_by_name.o)
                0x0007fc64                find_pid_by_name
 .text.pidlist_reverse
                0x0007fd70       0x64 libbb/lib.a(find_pid_by_name.o)
                0x0007fd70                pidlist_reverse
 .text.find_block_device_in_dir
                0x0007fdd4      0x114 libbb/lib.a(find_root_device.o)
 .text.find_block_device
                0x0007fee8       0x60 libbb/lib.a(find_root_device.o)
                0x0007fee8                find_block_device
 .text.starts_with_cpu
                0x0007ff48       0x2c libbb/lib.a(get_cpu_count.o)
                0x0007ff48                starts_with_cpu
 .text.get_cpu_count
                0x0007ff74       0xa4 libbb/lib.a(get_cpu_count.o)
                0x0007ff74                get_cpu_count
 .text.bb_get_chunk_from_file
                0x00080018       0xbc libbb/lib.a(get_line_from_file.o)
                0x00080018                bb_get_chunk_from_file
 .text.xmalloc_fgets
                0x000800d4       0x14 libbb/lib.a(get_line_from_file.o)
                0x000800d4                xmalloc_fgets
 .text.xmalloc_fgetline
                0x000800e8       0x38 libbb/lib.a(get_line_from_file.o)
                0x000800e8                xmalloc_fgetline
 .text.get_shell_name
                0x00080120       0x64 libbb/lib.a(get_shell_name.o)
                0x00080120                get_shell_name
 .text.get_volume_size_in_bytes
                0x00080184      0x130 libbb/lib.a(get_volsize.o)
                0x00080184                get_volume_size_in_bytes
 .text.getopt32
                0x000802b4      0x668 libbb/lib.a(getopt32.o)
                0x000802b4                getopt32
 .text.xgetpty  0x0008091c       0x68 libbb/lib.a(getpty.o)
                0x0008091c                xgetpty
 .text.md5_process_block64
                0x00080984      0x340 libbb/lib.a(hash_md5_sha.o)
 .text.sha3_process_block72
                0x00080cc4      0x340 libbb/lib.a(hash_md5_sha.o)
 .text.common64_end
                0x00081004       0x88 libbb/lib.a(hash_md5_sha.o)
 .text.md5_begin
                0x0008108c       0x58 libbb/lib.a(hash_md5_sha.o)
                0x0008108c                md5_begin
 .text.md5_hash
                0x000810e4       0x78 libbb/lib.a(hash_md5_sha.o)
                0x000810e4                md5_hash
 .text.md5_end  0x0008115c       0x2c libbb/lib.a(hash_md5_sha.o)
                0x0008115c                md5_end
 .text.sha3_begin
                0x00081188       0x18 libbb/lib.a(hash_md5_sha.o)
                0x00081188                sha3_begin
 .text.sha3_hash
                0x000811a0       0x80 libbb/lib.a(hash_md5_sha.o)
                0x000811a0                sha3_hash
 .text.sha3_end
                0x00081220       0x48 libbb/lib.a(hash_md5_sha.o)
                0x00081220                sha3_end
 .text.bb_herror_msg
                0x00081268       0x38 libbb/lib.a(herror_msg.o)
                0x00081268                bb_herror_msg
 .text.bb_herror_msg_and_die
                0x000812a0       0x30 libbb/lib.a(herror_msg.o)
                0x000812a0                bb_herror_msg_and_die
 .text.make_human_readable_str
                0x000812d0      0x170 libbb/lib.a(human_readable.o)
                0x000812d0                make_human_readable_str
 .text.smart_ulltoa5
                0x00081440      0x204 libbb/lib.a(human_readable.o)
                0x00081440                smart_ulltoa5
 .text.in_ether
                0x00081644       0xb4 libbb/lib.a(in_ether.o)
                0x00081644                in_ether
 .text.inet_cksum
                0x000816f8       0x44 libbb/lib.a(inet_cksum.o)
                0x000816f8                inet_cksum
 .text.INET_resolve
                0x0008173c       0xc4 libbb/lib.a(inet_common.o)
                0x0008173c                INET_resolve
 .text.INET_rresolve
                0x00081800      0x160 libbb/lib.a(inet_common.o)
                0x00081800                INET_rresolve
 .text.INET6_resolve
                0x00081960       0x94 libbb/lib.a(inet_common.o)
                0x00081960                INET6_resolve
 .text.INET6_rresolve
                0x000819f4       0xec libbb/lib.a(inet_common.o)
                0x000819f4                INET6_rresolve
 .text.bb_info_msg
                0x00081ae0       0x98 libbb/lib.a(info_msg.o)
                0x00081ae0                bb_info_msg
 .text.is_in_ino_dev_hashtable
                0x00081b78       0x8c libbb/lib.a(inode_hash.o)
                0x00081b78                is_in_ino_dev_hashtable
 .text.add_to_ino_dev_hashtable
                0x00081c04       0xb0 libbb/lib.a(inode_hash.o)
                0x00081c04                add_to_ino_dev_hashtable
 .text.reset_ino_dev_hashtable
                0x00081cb4       0x70 libbb/lib.a(inode_hash.o)
                0x00081cb4                reset_ino_dev_hashtable
 .text.is_directory
                0x00081d24       0x50 libbb/lib.a(isdirectory.o)
                0x00081d24                is_directory
 .text.get_linux_version_code
                0x00081d74       0x60 libbb/lib.a(kernel_version.o)
                0x00081d74                get_linux_version_code
 .text.remove_chunk
                0x00081dd4       0x38 libbb/lib.a(lineedit.o)
 .text.build_match_prefix
                0x00081e0c      0x354 libbb/lib.a(lineedit.o)
 .text.save_command_ps_at_cur_history
                0x00082160       0x58 libbb/lib.a(lineedit.o)
 .text.free_tab_completion_data
                0x000821b8       0x54 libbb/lib.a(lineedit.o)
 .text.deinit_S
                0x0008220c       0x44 libbb/lib.a(lineedit.o)
 .text.put_prompt
                0x00082250       0x60 libbb/lib.a(lineedit.o)
 .text.parse_and_put_prompt
                0x000822b0      0x398 libbb/lib.a(lineedit.o)
 .text.is_special_char
                0x00082648       0x1c libbb/lib.a(lineedit.o)
 .text.quote_special_chars
                0x00082664       0x5c libbb/lib.a(lineedit.o)
 .text.complete_cmd_dir_file
                0x000826c0      0x304 libbb/lib.a(lineedit.o)
 .text.beep     0x000829c4       0x14 libbb/lib.a(lineedit.o)
 .text.get_previous_history
                0x000829d8       0x58 libbb/lib.a(lineedit.o)
 .text.get_next_history
                0x00082a30       0x58 libbb/lib.a(lineedit.o)
 .text.put_cur_glyph_and_inc_cursor
                0x00082a88       0x78 libbb/lib.a(lineedit.o)
 .text.input_forward
                0x00082b00       0x20 libbb/lib.a(lineedit.o)
 .text.put_till_end_and_adv_cursor
                0x00082b20       0x30 libbb/lib.a(lineedit.o)
 .text.goto_new_line
                0x00082b50       0x2c libbb/lib.a(lineedit.o)
 .text.input_backward
                0x00082b7c       0xd8 libbb/lib.a(lineedit.o)
 .text.input_delete
                0x00082c54       0x6c libbb/lib.a(lineedit.o)
 .text.input_backspace
                0x00082cc0       0x34 libbb/lib.a(lineedit.o)
 .text.redraw   0x00082cf4       0x40 libbb/lib.a(lineedit.o)
 .text.input_tab
                0x00082d34      0x3ec libbb/lib.a(lineedit.o)
 .text.win_changed
                0x00083120       0x7c libbb/lib.a(lineedit.o)
 .text.new_line_input_t
                0x0008319c       0x28 libbb/lib.a(lineedit.o)
                0x0008319c                new_line_input_t
 .text.show_history
                0x000831c4       0x48 libbb/lib.a(lineedit.o)
                0x000831c4                show_history
 .text.read_line_input
                0x0008320c      0x7b0 libbb/lib.a(lineedit.o)
                0x0008320c                read_line_input
 .text.llist_add_to
                0x000839bc       0x2c libbb/lib.a(llist.o)
                0x000839bc                llist_add_to
 .text.llist_add_to_end
                0x000839e8       0x38 libbb/lib.a(llist.o)
                0x000839e8                llist_add_to_end
 .text.llist_pop
                0x00083a20       0x2c libbb/lib.a(llist.o)
                0x00083a20                llist_pop
 .text.llist_unlink
                0x00083a4c       0x34 libbb/lib.a(llist.o)
                0x00083a4c                llist_unlink
 .text.llist_free
                0x00083a80       0x3c libbb/lib.a(llist.o)
                0x00083a80                llist_free
 .text.llist_rev
                0x00083abc       0x28 libbb/lib.a(llist.o)
                0x00083abc                llist_rev
 .text.llist_find_str
                0x00083ae4       0x3c libbb/lib.a(llist.o)
                0x00083ae4                llist_find_str
 .text.print_login_issue
                0x00083b20      0x1c4 libbb/lib.a(login.o)
                0x00083b20                print_login_issue
 .text.print_login_prompt
                0x00083ce4       0x40 libbb/lib.a(login.o)
                0x00083ce4                print_login_prompt
 .text.sanitize_env_if_suid
                0x00083d24       0x5c libbb/lib.a(login.o)
                0x00083d24                sanitize_env_if_suid
 .text.del_loop
                0x00083d80       0x40 libbb/lib.a(loop.o)
                0x00083d80                del_loop
 .text.set_loop
                0x00083dc0      0x288 libbb/lib.a(loop.o)
                0x00083dc0                set_loop
 .text.bb_make_directory
                0x00084048      0x1bc libbb/lib.a(make_directory.o)
                0x00084048                bb_make_directory
 .text.bb_makedev
                0x00084204       0x54 libbb/lib.a(makedev.o)
                0x00084204                bb_makedev
 .text.match_fstype
                0x00084258       0x94 libbb/lib.a(match_fstype.o)
                0x00084258                match_fstype
 .text.bb_mode_string
                0x000842ec       0xac libbb/lib.a(mode_string.o)
                0x000842ec                bb_mode_string
 .text.nuke_str
                0x00084398       0x24 libbb/lib.a(nuke_str.o)
                0x00084398                nuke_str
 .text.string_checker_helper
                0x000843bc       0x40 libbb/lib.a(obscure.o)
 .text.string_checker
                0x000843fc       0x7c libbb/lib.a(obscure.o)
 .text.obscure  0x00084478      0x1c0 libbb/lib.a(obscure.o)
                0x00084478                obscure
 .text.config_open2
                0x00084638       0x2c libbb/lib.a(parse_config.o)
                0x00084638                config_open2
 .text.config_open
                0x00084664        0xc libbb/lib.a(parse_config.o)
                0x00084664                config_open
 .text.config_close
                0x00084670       0x3c libbb/lib.a(parse_config.o)
                0x00084670                config_close
 .text.config_read
                0x000846ac      0x2b0 libbb/lib.a(parse_config.o)
                0x000846ac                config_read
 .text.bb_parse_mode
                0x0008495c      0x240 libbb/lib.a(parse_mode.o)
                0x0008495c                bb_parse_mode
 .text.hex_to_bin
                0x00084b9c       0x28 libbb/lib.a(percent_decode.o)
 .text.percent_decode_in_place
                0x00084bc4       0xc4 libbb/lib.a(percent_decode.o)
                0x00084bc4                percent_decode_in_place
 .text.bb_perror_nomsg_and_die
                0x00084c88       0x14 libbb/lib.a(perror_nomsg_and_die.o)
                0x00084c88                bb_perror_nomsg_and_die
 .text.write_pidfile
                0x00084c9c       0xb0 libbb/lib.a(pidfile.o)
                0x00084c9c                write_pidfile
 .text.print_flags_separated
                0x00084d4c       0x80 libbb/lib.a(print_flags.o)
                0x00084d4c                print_flags_separated
 .text.print_flags
                0x00084dcc       0x18 libbb/lib.a(print_flags.o)
                0x00084dcc                print_flags
 .text.fputc_printable
                0x00084de4       0xa0 libbb/lib.a(printable.o)
                0x00084de4                fputc_printable
 .text.visible  0x00084e84       0x74 libbb/lib.a(printable.o)
                0x00084e84                visible
 .text.printable_string
                0x00084ef8       0xc4 libbb/lib.a(printable_string.o)
                0x00084ef8                printable_string
 .text.bb_process_escape_sequence
                0x00084fbc       0xdc libbb/lib.a(process_escape_sequence.o)
                0x00084fbc                bb_process_escape_sequence
 .text.strcpy_and_process_escape_sequences
                0x00085098       0x48 libbb/lib.a(process_escape_sequence.o)
                0x00085098                strcpy_and_process_escape_sequences
 .text.fast_strtoul_16
                0x000850e0       0x40 libbb/lib.a(procps.o)
 .text.fast_strtoul_10
                0x00085120       0x40 libbb/lib.a(procps.o)
 .text.skip_fields
                0x00085160       0x24 libbb/lib.a(procps.o)
 .text.clear_cache
                0x00085184       0x24 libbb/lib.a(procps.o)
 .text.read_to_buf
                0x000851a8       0x50 libbb/lib.a(procps.o)
 .text.get_cached
                0x000851f8       0xa4 libbb/lib.a(procps.o)
 .text.clear_username_cache
                0x0008529c       0x20 libbb/lib.a(procps.o)
                0x0008529c                clear_username_cache
 .text.get_cached_username
                0x000852bc       0x18 libbb/lib.a(procps.o)
                0x000852bc                get_cached_username
 .text.get_cached_groupname
                0x000852d4       0x18 libbb/lib.a(procps.o)
                0x000852d4                get_cached_groupname
 .text.free_procps_scan
                0x000852ec       0x3c libbb/lib.a(procps.o)
                0x000852ec                free_procps_scan
 .text.procps_read_smaps
                0x00085328      0x430 libbb/lib.a(procps.o)
                0x00085328                procps_read_smaps
 .text.procps_scan
                0x00085758      0x470 libbb/lib.a(procps.o)
                0x00085758                procps_scan
 .text.read_cmdline
                0x00085bc8      0x140 libbb/lib.a(procps.o)
                0x00085bc8                read_cmdline
 .text.bb_progress_init
                0x00085d08       0x2c libbb/lib.a(progress.o)
                0x00085d08                bb_progress_init
 .text.bb_progress_update
                0x00085d34      0x37c libbb/lib.a(progress.o)
                0x00085d34                bb_progress_update
 .text.i64c     0x000860b0       0x38 libbb/lib.a(pw_encrypt.o)
 .text.crypt_make_salt
                0x000860e8       0x70 libbb/lib.a(pw_encrypt.o)
                0x000860e8                crypt_make_salt
 .text.crypt_make_pw_salt
                0x00086158       0x80 libbb/lib.a(pw_encrypt.o)
                0x00086158                crypt_make_pw_salt
 .text.pw_encrypt
                0x000861d8       0x14 libbb/lib.a(pw_encrypt.o)
                0x000861d8                pw_encrypt
 .text.read_key
                0x000861ec      0x2f8 libbb/lib.a(read_key.o)
                0x000861ec                read_key
 .text.nonblock_immune_read
                0x000864e4       0xa4 libbb/lib.a(read_printf.o)
                0x000864e4                nonblock_immune_read
 .text.xmalloc_read
                0x00086588       0xe8 libbb/lib.a(read_printf.o)
                0x00086588                xmalloc_read
 .text.xmalloc_open_read_close
                0x00086670       0x3c libbb/lib.a(read_printf.o)
                0x00086670                xmalloc_open_read_close
 .text.xread    0x000866ac       0x28 libbb/lib.a(read_printf.o)
                0x000866ac                xread
 .text.true_action
                0x000866d4        0x8 libbb/lib.a(recursive_action.o)
 .text.recursive_action
                0x000866dc      0x208 libbb/lib.a(recursive_action.o)
                0x000866dc                recursive_action
 .text.remove_file
                0x000868e4      0x240 libbb/lib.a(remove_file.o)
                0x000868e4                remove_file
 .text.rtc_adjtime_is_utc
                0x00086b24       0x78 libbb/lib.a(rtc.o)
                0x00086b24                rtc_adjtime_is_utc
 .text.rtc_xopen
                0x00086b9c       0x6c libbb/lib.a(rtc.o)
                0x00086b9c                rtc_xopen
 .text.rtc_read_tm
                0x00086c08       0x44 libbb/lib.a(rtc.o)
                0x00086c08                rtc_read_tm
 .text.rtc_tm2time
                0x00086c4c       0x68 libbb/lib.a(rtc.o)
                0x00086c4c                rtc_tm2time
 .text.run_shell
                0x00086cb4       0xf8 libbb/lib.a(run_shell.o)
                0x00086cb4                run_shell
 .text.safe_gethostname
                0x00086dac       0x38 libbb/lib.a(safe_gethostname.o)
                0x00086dac                safe_gethostname
 .text.safe_poll
                0x00086de4       0x68 libbb/lib.a(safe_poll.o)
                0x00086de4                safe_poll
 .text.safe_strncpy
                0x00086e4c       0x30 libbb/lib.a(safe_strncpy.o)
                0x00086e4c                safe_strncpy
 .text.overlapping_strcpy
                0x00086e7c       0x1c libbb/lib.a(safe_strncpy.o)
                0x00086e7c                overlapping_strcpy
 .text.setup_environment
                0x00086e98      0x124 libbb/lib.a(setup_environment.o)
                0x00086e98                setup_environment
 .text.record_signo
                0x00086fbc       0x10 libbb/lib.a(signals.o)
                0x00086fbc                record_signo
 .text.sigaction_set
                0x00086fcc       0x14 libbb/lib.a(signals.o)
                0x00086fcc                sigaction_set
 .text.sigprocmask_allsigs
                0x00086fe0       0x24 libbb/lib.a(signals.o)
                0x00086fe0                sigprocmask_allsigs
 .text.bb_signals
                0x00087004       0x44 libbb/lib.a(signals.o)
                0x00087004                bb_signals
 .text.bb_signals_recursive_norestart
                0x00087048       0x64 libbb/lib.a(signals.o)
                0x00087048                bb_signals_recursive_norestart
 .text.sig_block
                0x000870ac       0x34 libbb/lib.a(signals.o)
                0x000870ac                sig_block
 .text.sig_unblock
                0x000870e0       0x34 libbb/lib.a(signals.o)
                0x000870e0                sig_unblock
 .text.wait_for_any_sig
                0x00087114       0x20 libbb/lib.a(signals.o)
                0x00087114                wait_for_any_sig
 .text.kill_myself_with_sig
                0x00087134       0x28 libbb/lib.a(signals.o)
                0x00087134                kill_myself_with_sig
 .text.signal_SA_RESTART_empty_mask
                0x0008715c       0x44 libbb/lib.a(signals.o)
                0x0008715c                signal_SA_RESTART_empty_mask
 .text.signal_no_SA_RESTART_empty_mask
                0x000871a0       0x3c libbb/lib.a(signals.o)
                0x000871a0                signal_no_SA_RESTART_empty_mask
 .text.bb_simplify_abs_path_inplace
                0x000871dc       0xbc libbb/lib.a(simplify_path.o)
                0x000871dc                bb_simplify_abs_path_inplace
 .text.bb_simplify_path
                0x00087298       0x54 libbb/lib.a(simplify_path.o)
                0x00087298                bb_simplify_path
 .text.single_argv
                0x000872ec       0x50 libbb/lib.a(single_argv.o)
                0x000872ec                single_argv
 .text.skip_whitespace
                0x0008733c       0x20 libbb/lib.a(skip_whitespace.o)
                0x0008733c                skip_whitespace
 .text.skip_non_whitespace
                0x0008735c       0x28 libbb/lib.a(skip_whitespace.o)
                0x0008735c                skip_non_whitespace
 .text.skip_dev_pfx
                0x00087384       0x2c libbb/lib.a(skip_whitespace.o)
                0x00087384                skip_dev_pfx
 .text.tty_baud_to_value
                0x000873b0       0x50 libbb/lib.a(speed_table.o)
                0x000873b0                tty_baud_to_value
 .text.tty_value_to_baud
                0x00087400       0x44 libbb/lib.a(speed_table.o)
                0x00087400                tty_value_to_baud
 .text.str_tolower
                0x00087444       0x2c libbb/lib.a(str_tolower.o)
                0x00087444                str_tolower
 .text.strrstr  0x00087470       0x50 libbb/lib.a(strrstr.o)
                0x00087470                strrstr
 .text.sd_listen_fds
                0x000874c0       0x78 libbb/lib.a(systemd_support.o)
                0x000874c0                sd_listen_fds
 .text.get_signum
                0x00087538      0x134 libbb/lib.a(u_signal_names.o)
                0x00087538                get_signum
 .text.get_signame
                0x0008766c       0x3c libbb/lib.a(u_signal_names.o)
                0x0008766c                get_signame
 .text.print_signames
                0x000876a8       0x60 libbb/lib.a(u_signal_names.o)
                0x000876a8                print_signames
 .text.socket_want_pktinfo
                0x00087708       0x44 libbb/lib.a(udp_io.o)
                0x00087708                socket_want_pktinfo
 .text.recv_from_to
                0x0008774c      0x110 libbb/lib.a(udp_io.o)
                0x0008774c                recv_from_to
 .text.update_passwd
                0x0008785c      0x4bc libbb/lib.a(update_passwd.o)
                0x0008785c                update_passwd
 .text.bb_uuencode
                0x00087d18       0x9c libbb/lib.a(uuencode.o)
                0x00087d18                bb_uuencode
 .text.decode_base64
                0x00087db4       0xd0 libbb/lib.a(uuencode.o)
                0x00087db4                decode_base64
 .text.read_base64
                0x00087e84      0x138 libbb/lib.a(uuencode.o)
                0x00087e84                read_base64
 .text.spawn    0x00087fbc       0x8c libbb/lib.a(vfork_daemon_rexec.o)
                0x00087fbc                spawn
 .text.run_nofork_applet
                0x00088048      0x1a8 libbb/lib.a(vfork_daemon_rexec.o)
                0x00088048                run_nofork_applet
 .text.spawn_and_wait
                0x000881f0       0x80 libbb/lib.a(vfork_daemon_rexec.o)
                0x000881f0                spawn_and_wait
 .text.bb_daemonize_or_rexec
                0x00088270       0xfc libbb/lib.a(vfork_daemon_rexec.o)
                0x00088270                bb_daemonize_or_rexec
 .text.bb_sanitize_stdio
                0x0008836c        0x8 libbb/lib.a(vfork_daemon_rexec.o)
                0x0008836c                bb_sanitize_stdio
 .text.xfdopen_helper
                0x00088374       0x3c libbb/lib.a(wfopen.o)
 .text.fopen_or_warn
                0x000883b0       0x24 libbb/lib.a(wfopen.o)
                0x000883b0                fopen_or_warn
 .text.fopen_for_read
                0x000883d4       0x18 libbb/lib.a(wfopen.o)
                0x000883d4                fopen_for_read
 .text.xfopen_for_read
                0x000883ec       0x18 libbb/lib.a(wfopen.o)
                0x000883ec                xfopen_for_read
 .text.fopen_for_write
                0x00088404       0x18 libbb/lib.a(wfopen.o)
                0x00088404                fopen_for_write
 .text.xfopen_for_write
                0x0008841c       0x18 libbb/lib.a(wfopen.o)
                0x0008841c                xfopen_for_write
 .text.xfdopen_for_read
                0x00088434        0x8 libbb/lib.a(wfopen.o)
                0x00088434                xfdopen_for_read
 .text.xfdopen_for_write
                0x0008843c        0xc libbb/lib.a(wfopen.o)
                0x0008843c                xfdopen_for_write
 .text.fopen_or_warn_stdin
                0x00088448       0x54 libbb/lib.a(wfopen_input.o)
                0x00088448                fopen_or_warn_stdin
 .text.xfopen_stdin
                0x0008849c       0x1c libbb/lib.a(wfopen_input.o)
                0x0008849c                xfopen_stdin
 .text.open_or_warn_stdin
                0x000884b8       0x44 libbb/lib.a(wfopen_input.o)
                0x000884b8                open_or_warn_stdin
 .text.xstrtoull_range_sfx
                0x000884fc      0x17c libbb/lib.a(xatonum.o)
                0x000884fc                xstrtoull_range_sfx
 .text.xstrtoull_range
                0x00088678       0x2c libbb/lib.a(xatonum.o)
                0x00088678                xstrtoull_range
 .text.xatoull_range
                0x000886a4       0x30 libbb/lib.a(xatonum.o)
                0x000886a4                xatoull_range
 .text.xatoull_sfx
                0x000886d4       0x30 libbb/lib.a(xatonum.o)
                0x000886d4                xatoull_sfx
 .text.xstrtoul_range_sfx
                0x00088704      0x13c libbb/lib.a(xatonum.o)
                0x00088704                xstrtoul_range_sfx
 .text.xstrtoul_range
                0x00088840       0x18 libbb/lib.a(xatonum.o)
                0x00088840                xstrtoul_range
 .text.xstrtoul
                0x00088858       0x1c libbb/lib.a(xatonum.o)
                0x00088858                xstrtoul
 .text.xatoul_range_sfx
                0x00088874       0x28 libbb/lib.a(xatonum.o)
                0x00088874                xatoul_range_sfx
 .text.xatoul_range
                0x0008889c       0x28 libbb/lib.a(xatonum.o)
                0x0008889c                xatoul_range
 .text.xatoul_sfx
                0x000888c4       0x20 libbb/lib.a(xatonum.o)
                0x000888c4                xatoul_sfx
 .text.xatoul   0x000888e4        0x8 libbb/lib.a(xatonum.o)
                0x000888e4                xatoul
 .text.xstrtol_range_sfx
                0x000888ec       0x9c libbb/lib.a(xatonum.o)
                0x000888ec                xstrtol_range_sfx
 .text.xatol_range
                0x00088988       0x28 libbb/lib.a(xatonum.o)
                0x00088988                xatol_range
 .text.xatol    0x000889b0       0x24 libbb/lib.a(xatonum.o)
                0x000889b0                xatol
 .text.xatoi_positive
                0x000889d4        0xc libbb/lib.a(xatonum.o)
                0x000889d4                xatoi_positive
 .text.xatou16  0x000889e0       0x24 libbb/lib.a(xatonum.o)
                0x000889e0                xatou16
 .text.sockaddr2str
                0x00088a04       0xac libbb/lib.a(xconnect.o)
 .text.get_lsa  0x00088ab0       0x8c libbb/lib.a(xconnect.o)
 .text.setsockopt_reuseaddr
                0x00088b3c       0x28 libbb/lib.a(xconnect.o)
                0x00088b3c                setsockopt_reuseaddr
 .text.setsockopt_broadcast
                0x00088b64       0x28 libbb/lib.a(xconnect.o)
                0x00088b64                setsockopt_broadcast
 .text.setsockopt_bindtodevice
                0x00088b8c       0x58 libbb/lib.a(xconnect.o)
                0x00088b8c                setsockopt_bindtodevice
 .text.get_sock_lsa
                0x00088be4        0xc libbb/lib.a(xconnect.o)
                0x00088be4                get_sock_lsa
 .text.get_peer_lsa
                0x00088bf0        0xc libbb/lib.a(xconnect.o)
                0x00088bf0                get_peer_lsa
 .text.xconnect
                0x00088bfc       0x50 libbb/lib.a(xconnect.o)
                0x00088bfc                xconnect
 .text.bb_lookup_port
                0x00088c4c       0x8c libbb/lib.a(xconnect.o)
                0x00088c4c                bb_lookup_port
 .text.get_nport
                0x00088cd8       0x24 libbb/lib.a(xconnect.o)
                0x00088cd8                get_nport
 .text.set_nport
                0x00088cfc       0x1c libbb/lib.a(xconnect.o)
                0x00088cfc                set_nport
 .text.str2sockaddr
                0x00088d18      0x2a0 libbb/lib.a(xconnect.o)
 .text.host_and_af2sockaddr
                0x00088fb8        0x8 libbb/lib.a(xconnect.o)
                0x00088fb8                host_and_af2sockaddr
 .text.xhost_and_af2sockaddr
                0x00088fc0        0x8 libbb/lib.a(xconnect.o)
                0x00088fc0                xhost_and_af2sockaddr
 .text.host2sockaddr
                0x00088fc8        0xc libbb/lib.a(xconnect.o)
                0x00088fc8                host2sockaddr
 .text.xhost2sockaddr
                0x00088fd4        0xc libbb/lib.a(xconnect.o)
                0x00088fd4                xhost2sockaddr
 .text.xdotted2sockaddr
                0x00088fe0        0xc libbb/lib.a(xconnect.o)
                0x00088fe0                xdotted2sockaddr
 .text.xsocket_type
                0x00088fec       0x84 libbb/lib.a(xconnect.o)
                0x00088fec                xsocket_type
 .text.create_and_bind_or_die
                0x00089070       0xa4 libbb/lib.a(xconnect.o)
 .text.create_and_bind_stream_or_die
                0x00089114        0x8 libbb/lib.a(xconnect.o)
                0x00089114                create_and_bind_stream_or_die
 .text.create_and_connect_stream_or_die
                0x0008911c       0x4c libbb/lib.a(xconnect.o)
                0x0008911c                create_and_connect_stream_or_die
 .text.xconnect_stream
                0x00089168       0x38 libbb/lib.a(xconnect.o)
                0x00089168                xconnect_stream
 .text.xmalloc_sockaddr2host_noport
                0x000891a0        0x8 libbb/lib.a(xconnect.o)
                0x000891a0                xmalloc_sockaddr2host_noport
 .text.xmalloc_sockaddr2hostonly_noport
                0x000891a8        0x8 libbb/lib.a(xconnect.o)
                0x000891a8                xmalloc_sockaddr2hostonly_noport
 .text.xmalloc_sockaddr2dotted
                0x000891b0        0x8 libbb/lib.a(xconnect.o)
                0x000891b0                xmalloc_sockaddr2dotted
 .text.xmalloc_sockaddr2dotted_noport
                0x000891b8        0x8 libbb/lib.a(xconnect.o)
                0x000891b8                xmalloc_sockaddr2dotted_noport
 .text.xrealloc_getcwd_or_warn
                0x000891c0       0x80 libbb/lib.a(xgetcwd.o)
                0x000891c0                xrealloc_getcwd_or_warn
 .text.xgethostbyname
                0x00089240       0x28 libbb/lib.a(xgethostbyname.o)
                0x00089240                xgethostbyname
 .text.xmalloc_readlink
                0x00089268       0x6c libbb/lib.a(xreadlink.o)
                0x00089268                xmalloc_readlink
 .text.xmalloc_follow_symlinks
                0x000892d4       0xc4 libbb/lib.a(xreadlink.o)
                0x000892d4                xmalloc_follow_symlinks
 .text.xmalloc_readlink_or_warn
                0x00089398       0x58 libbb/lib.a(xreadlink.o)
                0x00089398                xmalloc_readlink_or_warn
 .text.xmalloc_realpath
                0x000893f0       0x14 libbb/lib.a(xreadlink.o)
                0x000893f0                xmalloc_realpath
 .text.xrealloc_vector_helper
                0x00089404       0x60 libbb/lib.a(xrealloc_vector.o)
                0x00089404                xrealloc_vector_helper
 .text.regcomp_or_errmsg
                0x00089464       0x54 libbb/lib.a(xregcomp.o)
                0x00089464                regcomp_or_errmsg
 .text.xregcomp
                0x000894b8       0x28 libbb/lib.a(xregcomp.o)
                0x000894b8                xregcomp
 .text.bb_perror_nomsg
                0x000894e0       0x14 libbb/lib.a(perror_nomsg.o)
                0x000894e0                bb_perror_nomsg
 .text.get_uidgid
                0x000894f4      0x11c libpwdgrp/lib.a(uidgid_get.o)
                0x000894f4                get_uidgid
 .text.xget_uidgid
                0x00089610       0x2c libpwdgrp/lib.a(uidgid_get.o)
                0x00089610                xget_uidgid
 .text.parse_chown_usergroup_or_die
                0x0008963c       0xa0 libpwdgrp/lib.a(uidgid_get.o)
                0x0008963c                parse_chown_usergroup_or_die
 .text          0x000896dc      0x20c /opt/Cortina/toolchain/toolchain-arm_gcc-4.5.1+l_uClibc-0.9.32_eabi/bin/../lib/gcc/arm-openwrt-linux-uclibcgnueabi/4.5.2/libgcc.a(_udivsi3.o)
                0x000896dc                __udivsi3
                0x000896dc                __aeabi_uidiv
                0x000898c8                __aeabi_uidivmod
 .text          0x000898e8      0x240 /opt/Cortina/toolchain/toolchain-arm_gcc-4.5.1+l_uClibc-0.9.32_eabi/bin/../lib/gcc/arm-openwrt-linux-uclibcgnueabi/4.5.2/libgcc.a(_divsi3.o)
                0x000898e8                __aeabi_idiv
                0x000898e8                __divsi3
                0x00089b08                __aeabi_idivmod
 .text          0x00089b28       0x1c /opt/Cortina/toolchain/toolchain-arm_gcc-4.5.1+l_uClibc-0.9.32_eabi/bin/../lib/gcc/arm-openwrt-linux-uclibcgnueabi/4.5.2/libgcc.a(_lshrdi3.o)
                0x00089b28                __aeabi_llsr
                0x00089b28                __lshrdi3
 .text          0x00089b44       0x1c /opt/Cortina/toolchain/toolchain-arm_gcc-4.5.1+l_uClibc-0.9.32_eabi/bin/../lib/gcc/arm-openwrt-linux-uclibcgnueabi/4.5.2/libgcc.a(_ashrdi3.o)
                0x00089b44                __ashrdi3
                0x00089b44                __aeabi_lasr
 .text          0x00089b60      0x3b8 /opt/Cortina/toolchain/toolchain-arm_gcc-4.5.1+l_uClibc-0.9.32_eabi/bin/../lib/gcc/arm-openwrt-linux-uclibcgnueabi/4.5.2/libgcc.a(_arm_addsubdf3.o)
                0x00089b60                __aeabi_drsub
                0x00089b68                __aeabi_dsub
                0x00089b68                __subdf3
                0x00089b6c                __adddf3
                0x00089b6c                __aeabi_dadd
                0x00089e18                __aeabi_ui2d
                0x00089e18                __floatunsidf
                0x00089e3c                __floatsidf
                0x00089e3c                __aeabi_i2d
                0x00089e64                __extendsfdf2
                0x00089e64                __aeabi_f2d
                0x00089ea4                __aeabi_ul2d
                0x00089ea4                __floatundidf
                0x00089eb8                __floatdidf
                0x00089eb8                __aeabi_l2d
 .text          0x00089f18      0x470 /opt/Cortina/toolchain/toolchain-arm_gcc-4.5.1+l_uClibc-0.9.32_eabi/bin/../lib/gcc/arm-openwrt-linux-uclibcgnueabi/4.5.2/libgcc.a(_arm_muldivdf3.o)
                0x00089f18                __aeabi_dmul
                0x00089f18                __muldf3
                0x0008a184                __aeabi_ddiv
                0x0008a184                __divdf3
 .text          0x0008a388      0x12c /opt/Cortina/toolchain/toolchain-arm_gcc-4.5.1+l_uClibc-0.9.32_eabi/bin/../lib/gcc/arm-openwrt-linux-uclibcgnueabi/4.5.2/libgcc.a(_arm_cmpdf2.o)
                0x0008a388                __gtdf2
                0x0008a388                __gedf2
                0x0008a390                __ltdf2
                0x0008a390                __ledf2
                0x0008a398                __cmpdf2
                0x0008a398                __eqdf2
                0x0008a398                __nedf2
                0x0008a420                __aeabi_cdrcmple
                0x0008a43c                __aeabi_cdcmple
                0x0008a43c                __aeabi_cdcmpeq
                0x0008a450                __aeabi_dcmpeq
                0x0008a464                __aeabi_dcmplt
                0x0008a478                __aeabi_dcmple
                0x0008a48c                __aeabi_dcmpge
                0x0008a4a0                __aeabi_dcmpgt
 .text          0x0008a4b4       0x5c /opt/Cortina/toolchain/toolchain-arm_gcc-4.5.1+l_uClibc-0.9.32_eabi/bin/../lib/gcc/arm-openwrt-linux-uclibcgnueabi/4.5.2/libgcc.a(_arm_fixdfsi.o)
                0x0008a4b4                __fixdfsi
                0x0008a4b4                __aeabi_d2iz
 .text          0x0008a510       0x54 /opt/Cortina/toolchain/toolchain-arm_gcc-4.5.1+l_uClibc-0.9.32_eabi/bin/../lib/gcc/arm-openwrt-linux-uclibcgnueabi/4.5.2/libgcc.a(_arm_fixunsdfsi.o)
                0x0008a510                __fixunsdfsi
                0x0008a510                __aeabi_d2uiz
 .text          0x0008a564      0x250 /opt/Cortina/toolchain/toolchain-arm_gcc-4.5.1+l_uClibc-0.9.32_eabi/bin/../lib/gcc/arm-openwrt-linux-uclibcgnueabi/4.5.2/libgcc.a(_arm_addsubsf3.o)
                0x0008a564                __aeabi_frsub
                0x0008a56c                __subsf3
                0x0008a56c                __aeabi_fsub
                0x0008a570                __aeabi_fadd
                0x0008a570                __addsf3
                0x0008a700                __aeabi_ui2f
                0x0008a700                __floatunsisf
                0x0008a708                __aeabi_i2f
                0x0008a708                __floatsisf
                0x0008a728                __floatundisf
                0x0008a728                __aeabi_ul2f
                0x0008a738                __floatdisf
                0x0008a738                __aeabi_l2f
 .text          0x0008a7b4      0x2f8 /opt/Cortina/toolchain/toolchain-arm_gcc-4.5.1+l_uClibc-0.9.32_eabi/bin/../lib/gcc/arm-openwrt-linux-uclibcgnueabi/4.5.2/libgcc.a(_arm_muldivsf3.o)
                0x0008a7b4                __mulsf3
                0x0008a7b4                __aeabi_fmul
                0x0008a94c                __divsf3
                0x0008a94c                __aeabi_fdiv
 .text          0x0008aaac       0x44 /opt/Cortina/toolchain/toolchain-arm_gcc-4.5.1+l_uClibc-0.9.32_eabi/bin/../lib/gcc/arm-openwrt-linux-uclibcgnueabi/4.5.2/libgcc.a(_aeabi_ldivmod.o)
                0x0008aaac                __aeabi_ldivmod
 .text          0x0008aaf0       0x3c /opt/Cortina/toolchain/toolchain-arm_gcc-4.5.1+l_uClibc-0.9.32_eabi/bin/../lib/gcc/arm-openwrt-linux-uclibcgnueabi/4.5.2/libgcc.a(_aeabi_uldivmod.o)
                0x0008aaf0                __aeabi_uldivmod
 .text          0x0008ab2c       0x10 /opt/Cortina/toolchain/toolchain-arm_gcc-4.5.1+l_uClibc-0.9.32_eabi/bin/../lib/gcc/arm-openwrt-linux-uclibcgnueabi/4.5.2/libgcc.a(_dvmd_lnx.o)
                0x0008ab2c                __aeabi_ldiv0
                0x0008ab2c                __aeabi_idiv0
 .text          0x0008ab3c       0x80 /opt/Cortina/toolchain/toolchain-arm_gcc-4.5.1+l_uClibc-0.9.32_eabi/bin/../lib/gcc/arm-openwrt-linux-uclibcgnueabi/4.5.2/libgcc.a(bpabi.o)
                0x0008ab3c                __gnu_ldivmod_helper
                0x0008ab7c                __gnu_uldivmod_helper
 .text          0x0008abbc      0x494 /opt/Cortina/toolchain/toolchain-arm_gcc-4.5.1+l_uClibc-0.9.32_eabi/bin/../lib/gcc/arm-openwrt-linux-uclibcgnueabi/4.5.2/libgcc.a(_divdi3.o)
                0x0008abbc                __divdi3
 .text          0x0008b050      0x414 /opt/Cortina/toolchain/toolchain-arm_gcc-4.5.1+l_uClibc-0.9.32_eabi/bin/../lib/gcc/arm-openwrt-linux-uclibcgnueabi/4.5.2/libgcc.a(_udivdi3.o)
                0x0008b050                __udivdi3
 .text.atexit   0x0008b464       0x28 /opt/Cortina/toolchain/toolchain-arm_gcc-4.5.1+l_uClibc-0.9.32_eabi/bin/../lib/gcc/arm-openwrt-linux-uclibcgnueabi/4.5.2/../../../../arm-openwrt-linux-uclibcgnueabi/lib/uclibc_nonshared.a(atexit.os)
                0x0008b464                atexit
 *(SORT(.gnu.warning))
 *(SORT(.glue_7t))
 .glue_7t       0x00000000        0x0 linker stubs
 *(SORT(.glue_7))
 .glue_7        0x00000000        0x0 linker stubs
 *(SORT(.vfp11_veneer))
 .vfp11_veneer  0x00000000        0x0 linker stubs
 *(SORT(.v4_bx))
 .v4_bx         0x00000000        0x0 linker stubs

.fini           0x0008b48c       0x10
 *(SORT(.fini))
 .fini          0x0008b48c        0xc /opt/Cortina/toolchain/toolchain-arm_gcc-4.5.1+l_uClibc-0.9.32_eabi/bin/../lib/gcc/arm-openwrt-linux-uclibcgnueabi/4.5.2/../../../../arm-openwrt-linux-uclibcgnueabi/lib/crti.o
                0x0008b48c                _fini
 .fini          0x0008b498        0x4 /opt/Cortina/toolchain/toolchain-arm_gcc-4.5.1+l_uClibc-0.9.32_eabi/bin/../lib/gcc/arm-openwrt-linux-uclibcgnueabi/4.5.2/../../../../arm-openwrt-linux-uclibcgnueabi/lib/crtn.o
                0x0008b49c                PROVIDE (__etext, .)
                0x0008b49c                PROVIDE (_etext, .)
                0x0008b49c                PROVIDE (etext, .)

.rodata         0x0008b49c    0x18d19
 *(SORT(.rodata) SORT(.rodata.*) SORT(.gnu.linkonce.r.*))
 .rodata.applet_main
                0x0008b49c      0x328 libbb/lib.a(appletlib.o)
                0x0008b49c                applet_main
 .rodata.const_int_1
                0x0008b7c4        0x4 libbb/lib.a(messages.o)
                0x0008b7c4                const_int_1
 .rodata.const_int_0
                0x0008b7c8        0x4 libbb/lib.a(messages.o)
                0x0008b7c8                const_int_0
 .rodata.pio_modes.7405
                0x0008b7cc       0x10 miscutils/lib.a(hdparm.o)
 .rodata.ultra_modes2.7408
                0x0008b7dc       0x2c miscutils/lib.a(hdparm.o)
 .rodata.ultra_modes1.7407
                0x0008b808       0x1c miscutils/lib.a(hdparm.o)
 .rodata.dma_wmode_masks.7406
                0x0008b824       0x20 miscutils/lib.a(hdparm.o)
 .rodata.size_suffixes.7113
                0x0008b844       0x20 miscutils/lib.a(ubi_tools.o)
 .rodata.enable.7072
                0x0008b864        0x4 miscutils/lib.a(watchdog.o)
 .rodata.suffixes.7066
                0x0008b868       0x18 miscutils/lib.a(watchdog.o)
 .rodata.arp_masks.7283
                0x0008b880        0xc networking/lib.a(arp.o)
 .rodata.http_response
                0x0008b88c       0x50 networking/lib.a(httpd.o)
 .rodata.OptArray
                0x0008b8dc       0xc0 networking/lib.a(ifconfig.o)
 .rodata.Arg1Opt
                0x0008b99c       0x80 networking/lib.a(ifconfig.o)
 .rodata.addr_inet
                0x0008ba1c        0xc networking/lib.a(ifupdown.o)
 .rodata.methods
                0x0008ba28       0x54 networking/lib.a(ifupdown.o)
 .rodata.addr_inet6
                0x0008ba7c        0xc networking/lib.a(ifupdown.o)
 .rodata.ext_dhcp_clients
                0x0008ba88       0x30 networking/lib.a(ifupdown.o)
 .rodata.methods6
                0x0008bab8       0x30 networking/lib.a(ifupdown.o)
 .rodata.addr_fams.7263
                0x0008bae8        0xc networking/lib.a(ifupdown.o)
 .rodata.builtins
                0x0008baf4       0x50 networking/lib.a(inetd.o)
 .rodata.hwtypes
                0x0008bb44       0x18 networking/lib.a(interface.o)
 .rodata.ether_hwtype
                0x0008bb5c       0x20 networking/lib.a(interface.o)
 .rodata.unspec_aftype
                0x0008bb7c       0x2c networking/lib.a(interface.o)
 .rodata.inet_aftype
                0x0008bba8       0x2c networking/lib.a(interface.o)
 .rodata.sit_hwtype
                0x0008bbd4       0x20 networking/lib.a(interface.o)
 .rodata.inet6_aftype
                0x0008bbf4       0x2c networking/lib.a(interface.o)
 .rodata.if_port_text
                0x0008bc20       0x20 networking/lib.a(interface.o)
 .rodata.ppp_hwtype
                0x0008bc40       0x20 networking/lib.a(interface.o)
 .rodata.ss_fmt
                0x0008bc60        0xc networking/lib.a(interface.o)
 .rodata.loop_hwtype
                0x0008bc6c       0x20 networking/lib.a(interface.o)
 .rodata.aftypes
                0x0008bc8c       0x10 networking/lib.a(interface.o)
 .rodata.unspec_hwtype
                0x0008bc9c       0x20 networking/lib.a(interface.o)
 .rodata.ip_func_ptrs.7829
                0x0008bcbc       0x20 networking/lib.a(ip.o)
 .rodata.CSWTCH.41
                0x0008bcdc       0x14 networking/lib.a(netstat.o)
 .rodata.CSWTCH.49
                0x0008bcf0       0x1c networking/lib.a(netstat.o)
 .rodata.tcp_state
                0x0008bd0c       0x30 networking/lib.a(netstat.o)
 .rodata.CSWTCH.41
                0x0008bd3c       0x4c networking/lib.a(ping.o)
 .rodata.flagvals
                0x0008bd88       0x20 networking/lib.a(route.o)
 .rodata.flags_ipvx
                0x0008bda8       0x10 networking/lib.a(route.o)
 .rodata.ttab.7395
                0x0008bdb8       0x4c networking/lib.a(traceroute.o)
 .rodata.flag_masks.7946
                0x0008be04       0x1c networking/libiproute/lib.a(ipaddress.o)
 .rodata.init_tab.7077
                0x0008be20       0x34 networking/libiproute/lib.a(rt_names.o)
 .rodata.filter_prog.7711
                0x0008be54        0x8 networking/udhcp/lib.a(dhcpc.o)
 .rodata.filter_instr.7710
                0x0008be5c       0x48 networking/udhcp/lib.a(dhcpc.o)
 .rodata.keywords
                0x0008bea4      0x120 networking/udhcp/lib.a(files.o)
 .rodata.mh_suffixes.7265
                0x0008bfc4       0x18 runit/lib.a(svlogd.o)
 .rodata.varinit_data
                0x0008bfdc       0x48 shell/lib.a(ash.o)
 .rodata.tokname_array
                0x0008c024       0x74 shell/lib.a(ash.o)
 .rodata.CSWTCH.718
                0x0008c098        0x8 shell/lib.a(ash.o)
 .rodata.builtintab
                0x0008c0a0      0x160 shell/lib.a(ash.o)
 .rodata.optletters_optnames
                0x0008c200       0x3c shell/lib.a(ash.o)
 .rodata.CSWTCH.701
                0x0008c23c       0x30 shell/lib.a(ash.o)
 .rodata.null_bltin.9584
                0x0008c26c        0x8 shell/lib.a(ash.o)
 .rodata.limits_tbl
                0x0008c274       0x68 shell/lib.a(shell_common.o)
 .rodata.prioritynames
                0x0008c2dc       0x68 sysklogd/lib.a(syslogd_and_logger.o)
                0x0008c2dc                prioritynames
 .rodata.facilitynames
                0x0008c344       0xb8 sysklogd/lib.a(syslogd_and_logger.o)
                0x0008c344                facilitynames
 .rodata.init_data
                0x0008c3fc       0x4c sysklogd/lib.a(syslogd_and_logger.o)
 .rodata.bdcommands
                0x0008c448       0xb0 util-linux/lib.a(blockdev.o)
 .rodata.sgi_sys_types
                0x0008c4f8       0x4c util-linux/lib.a(fdisk.o)
 .rodata.xbsd_dktypenames
                0x0008c544       0x30 util-linux/lib.a(fdisk.o)
 .rodata.sun_sys_types
                0x0008c574       0x38 util-linux/lib.a(fdisk.o)
 .rodata.d_masks.7397
                0x0008c5ac        0xc util-linux/lib.a(fdisk.o)
 .rodata.sun_drives
                0x0008c5b8      0x1c8 util-linux/lib.a(fdisk.o)
 .rodata.i386_sys_types
                0x0008c780       0xc4 util-linux/lib.a(fdisk.o)
 .rodata.xbsd_fstypes
                0x0008c844       0x48 util-linux/lib.a(fdisk.o)
 .rodata.fstrim_sfx
                0x0008c88c       0x80 util-linux/lib.a(fstrim.o)
 .rodata.add_strings
                0x0008c90c       0x14 util-linux/lib.a(hexdump.o)
 .rodata.supers.7295
                0x0008c920       0xb8 util-linux/lib.a(mkfs_ext2.o)
 .rodata.mount_options
                0x0008c9d8       0xa0 util-linux/lib.a(mount.o)
 .rodata.fs1    0x0008ca78        0xc util-linux/volume_id/lib.a(volume_id.o)
 .rodata.fs2    0x0008ca84       0x28 util-linux/volume_id/lib.a(volume_id.o)
 .rodata.args.7008
                0x0008caac        0xc console-tools/lib.a(reset.o)
 .rodata.dd_suffixes
                0x0008cab8       0x58 coreutils/lib.a(dd.o)
 .rodata.opt_flags
                0x0008cb10       0x64 coreutils/lib.a(ls.o)
 .rodata.modes_cubp
                0x0008cb74        0xc coreutils/lib.a(mknod.o)
 .rodata.sfx    0x0008cb80       0x28 coreutils/lib.a(sleep.o)
 .rodata.stty_suffixes
                0x0008cba8       0x20 coreutils/lib.a(stty.o)
 .rodata.mode_info
                0x0008cbc8      0x2b0 coreutils/lib.a(stty.o)
 .rodata.C.10.9191
                0x0008ce78        0x8 debianutils/lib.a(start_stop_daemon.o)
 .rodata.tokeninfo
                0x0008ce80      0x190 editors/lib.a(awk.o)
 .rodata.find_suffixes.7389
                0x0008d010       0x30 findutils/lib.a(find.o)
 .rodata.signals.7008
                0x0008d040        0xc init/lib.a(halt.o)
 .rodata.magic.7007
                0x0008d04c        0xc init/lib.a(halt.o)
 .rodata.bb_argv_dash
                0x0008d058        0x8 libbb/lib.a(getopt32.o)
                0x0008d058                bb_argv_dash
 .rodata.bb_null_long_options
                0x0008d060       0x10 libbb/lib.a(getopt32.o)
 .rodata.C_array.7035
                0x0008d070      0x100 libbb/lib.a(hash_md5_sha.o)
 .rodata.who_mask.7002
                0x0008d170       0x10 libbb/lib.a(parse_mode.o)
 .rodata.perm_mask.7003
                0x0008d180       0x18 libbb/lib.a(parse_mode.o)
 .rodata.bkm_suffixes
                0x0008d198       0x20 libbb/lib.a(xatonum.o)
                0x0008d198                bkm_suffixes
 .rodata.applet_nameofs
                0x0008d1b8      0x194 libbb/lib.a(appletlib.o)
                0x0008d1b8                applet_nameofs
 .rodata.setbits
                0x0008d34c       0x20 miscutils/lib.a(setserial.o)
 .rodata.http_response_type
                0x0008d36c       0x14 networking/lib.a(httpd.o)
 .rodata.ife_print_flags_mask.7417
                0x0008d380       0x1a networking/lib.a(interface.o)
 .rodata.arphrd_type.7494
                0x0008d39a       0x26 networking/libiproute/lib.a(ll_types.o)
 .rodata.MAC_BCAST_ADDR
                0x0008d3c0        0x6 networking/udhcp/lib.a(common.o)
                0x0008d3c0                MAC_BCAST_ADDR
 .rodata.S_I_T  0x0008d3c6       0x1e shell/lib.a(ash.o)
 .rodata.permmask.10391
                0x0008d3e4       0x12 shell/lib.a(ash.o)
 .rodata.init_sem
                0x0008d3f6       0x12 sysklogd/lib.a(logread.o)
 .rodata.cpdist
                0x0008d408       0x3c archival/libarchive/lib.a(decompress_gunzip.o)
 .rodata.cplens
                0x0008d444       0x3e archival/libarchive/lib.a(decompress_gunzip.o)
 .rodata.mask_bits
                0x0008d482       0x22 archival/libarchive/lib.a(decompress_gunzip.o)
 .rodata.utsname_offset
                0x0008d4a4       0x10 coreutils/lib.a(uname.o)
 .rodata.PRIMES
                0x0008d4b4        0xa editors/lib.a(awk.o)
 .rodata.IOTA_CONST.7211
                0x0008d4be       0x30 libbb/lib.a(hash_md5_sha.o)
 .rodata.speeds
                0x0008d4ee       0x54 libbb/lib.a(speed_table.o)
 .rodata.applet_names
                0x0008d542      0x51f libbb/lib.a(appletlib.o)
                0x0008d542                applet_names
 .rodata.str1.1
                0x0008da61      0x270 libbb/lib.a(appletlib.o)
                                0x281 (size before relaxing)
 .rodata.packed_usage
                0x0008dcd1     0x459d libbb/lib.a(appletlib.o)
 .rodata.bb_msg_requires_arg
                0x0009226e       0x18 libbb/lib.a(messages.o)
                0x0009226e                bb_msg_requires_arg
 .rodata.bb_banner
                0x00092286       0x2a libbb/lib.a(messages.o)
                0x00092286                bb_banner
 .rodata.bb_msg_you_must_be_root
                0x000922b0       0x11 libbb/lib.a(messages.o)
                0x000922b0                bb_msg_you_must_be_root
 .rodata.bb_hexdigits_upcase
                0x000922c1       0x11 libbb/lib.a(messages.o)
                0x000922c1                bb_hexdigits_upcase
 .rodata.bb_PATH_root_path
                0x000922d2       0x23 libbb/lib.a(messages.o)
                0x000922d2                bb_PATH_root_path
 .rodata.bb_msg_invalid_arg
                0x000922f5       0x1e libbb/lib.a(messages.o)
                0x000922f5                bb_msg_invalid_arg
 .rodata.bb_msg_standard_input
                0x00092313        0xf libbb/lib.a(messages.o)
                0x00092313                bb_msg_standard_input
 .rodata.bb_default_login_shell
                0x00092322        0x9 libbb/lib.a(messages.o)
                0x00092322                bb_default_login_shell
 .rodata.bb_msg_can_not_create_raw_socket
                0x0009232b       0x18 libbb/lib.a(messages.o)
                0x0009232b                bb_msg_can_not_create_raw_socket
 .rodata.bb_msg_unknown
                0x00092343        0xa libbb/lib.a(messages.o)
                0x00092343                bb_msg_unknown
 .rodata.bb_msg_invalid_date
                0x0009234d       0x12 libbb/lib.a(messages.o)
                0x0009234d                bb_msg_invalid_date
 .rodata.bb_msg_perm_denied_are_you_root
                0x0009235f       0x22 libbb/lib.a(messages.o)
                0x0009235f                bb_msg_perm_denied_are_you_root
 .rodata.bb_msg_memory_exhausted
                0x00092381        0xe libbb/lib.a(messages.o)
                0x00092381                bb_msg_memory_exhausted
 .rodata.bb_busybox_exec_path
                0x0009238f        0xf libbb/lib.a(messages.o)
                0x0009238f                bb_busybox_exec_path
 .rodata.bb_msg_standard_output
                0x0009239e       0x10 libbb/lib.a(messages.o)
                0x0009239e                bb_msg_standard_output
 .rodata.str1.1
                0x00000000      0x270 libbb/lib.a(verror_msg.o)
                                  0x6 (size before relaxing)
 .rodata.str1.1
                0x000923ae        0xe libbb/lib.a(xfuncs.o)
 .rodata.str1.1
                0x000923bc      0x195 libbb/lib.a(xfuncs_printf.o)
                                0x1a9 (size before relaxing)
 .rodata.str1.1
                0x00092551       0x22 libbb/lib.a(copyfd.o)
 .rodata.str1.1
                0x00000000        0x3 libbb/lib.a(perror_msg.o)
 .rodata.str1.1
                0x00092573       0x71 libbb/lib.a(time.o)
                                 0x95 (size before relaxing)
 .rodata.addgroup_longopts
                0x000925e4       0x10 loginutils/lib.a(addgroup.o)
 .rodata.str1.1
                0x000925f4       0x3b loginutils/lib.a(addgroup.o)
                                 0x45 (size before relaxing)
 .rodata.adduser_longopts
                0x0009262f       0x67 loginutils/lib.a(adduser.o)
 .rodata.str1.1
                0x00092696       0xc0 loginutils/lib.a(adduser.o)
                                 0xf6 (size before relaxing)
 .rodata.str1.1
                0x00092756       0x2c loginutils/lib.a(deluser.o)
                                 0x43 (size before relaxing)
 .rodata.str1.1
                0x00092782       0xc6 loginutils/lib.a(getty.o)
                                 0xea (size before relaxing)
 .rodata.opt_string
                0x00092848       0x11 loginutils/lib.a(getty.o)
 .rodata.str1.1
                0x00092859       0xa6 loginutils/lib.a(login.o)
 .rodata.str1.1
                0x000928ff      0x158 loginutils/lib.a(passwd.o)
                                0x16c (size before relaxing)
 .rodata.DowAry
                0x00092a57       0x16 miscutils/lib.a(crond.o)
 .rodata.str1.1
                0x00092a6d      0x2b2 miscutils/lib.a(crond.o)
                                0x2d1 (size before relaxing)
 .rodata.MonAry
                0x00092d1f       0x25 miscutils/lib.a(crond.o)
 .rodata.str1.1
                0x00092d44       0x56 miscutils/lib.a(crontab.o)
                                 0x98 (size before relaxing)
 .rodata.minor_str
                0x00092d9a      0x3f8 miscutils/lib.a(hdparm.o)
 .rodata        0x00093192       0xa7 miscutils/lib.a(hdparm.o)
 .rodata.BuffType
                0x00093239       0x25 miscutils/lib.a(hdparm.o)
 .rodata.cfg_str
                0x0009325e       0x92 miscutils/lib.a(hdparm.o)
 .rodata.secu_str
                0x000932f0       0x52 miscutils/lib.a(hdparm.o)
 .rodata.pkt_str
                0x00093342      0x110 miscutils/lib.a(hdparm.o)
 .rodata.ata1_cfg_str
                0x00093452      0x13e miscutils/lib.a(hdparm.o)
 .rodata.xfermode_val
                0x00093590       0x20 miscutils/lib.a(hdparm.o)
 .rodata.str1.1
                0x000935b0     0x1135 miscutils/lib.a(hdparm.o)
                               0x11be (size before relaxing)
 .rodata.cmd_feat_str
                0x000946e5      0x34c miscutils/lib.a(hdparm.o)
 .rodata.hdparm_options
                0x00094a31       0x44 miscutils/lib.a(hdparm.o)
 .rodata.actual_ver
                0x00094a75       0x24 miscutils/lib.a(hdparm.o)
 .rodata.xfermode_name
                0x00094a99       0xa0 miscutils/lib.a(hdparm.o)
 .rodata.controls
                0x00094b39       0x21 miscutils/lib.a(less.o)
 .rodata.ctrlconv
                0x00094b5a       0x21 miscutils/lib.a(less.o)
 .rodata.str1.1
                0x00094b7b       0xe2 miscutils/lib.a(less.o)
                                0x106 (size before relaxing)
 .rodata.str1.1
                0x00094c5d       0xb8 miscutils/lib.a(lock.o)
                                 0xc1 (size before relaxing)
 .rodata.str1.1
                0x00094d15       0xe4 miscutils/lib.a(nandwrite.o)
                                 0xfa (size before relaxing)
 .rodata.serial_types
                0x00094df9       0x84 miscutils/lib.a(setserial.o)
 .rodata.STR_NONE
                0x00094e7d        0x5 miscutils/lib.a(setserial.o)
 .rodata.str1.1
                0x00094e82      0x18d miscutils/lib.a(setserial.o)
                                0x1a0 (size before relaxing)
 .rodata.commands
                0x0009500f       0xe9 miscutils/lib.a(setserial.o)
 .rodata.STR_INFINITE
                0x000950f8        0x9 miscutils/lib.a(setserial.o)
 .rodata.str1.1
                0x00095101       0x14 miscutils/lib.a(strings.o)
                                 0x1b (size before relaxing)
 .rodata        0x00095115        0xc miscutils/lib.a(taskset.o)
 .rodata.str1.1
                0x00095121       0x3f miscutils/lib.a(taskset.o)
                                 0x42 (size before relaxing)
 .rodata.default_format
                0x00095160       0x17 miscutils/lib.a(time.o)
 .rodata.long_format
                0x00095177      0x2cb miscutils/lib.a(time.o)
 .rodata.str1.1
                0x00095442       0x7c miscutils/lib.a(time.o)
                                 0x9a (size before relaxing)
 .rodata.posix_format
                0x000954be       0x17 miscutils/lib.a(time.o)
 .rodata.str1.1
                0x000954d5      0x1da miscutils/lib.a(ubi_tools.o)
                                0x1e3 (size before relaxing)
 .rodata.str1.1
                0x000956af       0x3e miscutils/lib.a(watchdog.o)
                                 0x42 (size before relaxing)
 .rodata.V.7058
                0x000956ed        0x1 miscutils/lib.a(watchdog.o)
 .rodata.str1.1
                0x000956ee       0x28 modutils/lib.a(depmod.o)
                                 0x5d (size before relaxing)
 .rodata.str1.1
                0x00095716       0x16 modutils/lib.a(insmod.o)
 .rodata.str1.1
                0x0009572c       0x78 modutils/lib.a(lsmod.o)
                                 0x7c (size before relaxing)
 .rodata.modprobe_longopts
                0x000957a4       0x10 modutils/lib.a(modprobe.o)
 .rodata.str1.1
                0x000957b4      0x101 modutils/lib.a(modprobe.o)
                                0x139 (size before relaxing)
 .rodata.str1.1
                0x000958b5       0xb2 modutils/lib.a(modutils.o)
                                 0xb3 (size before relaxing)
 .rodata.str1.1
                0x00095967       0x1b modutils/lib.a(rmmod.o)
                                 0x21 (size before relaxing)
 .rodata.options
                0x00095982       0x2e networking/lib.a(arp.o)
 .rodata.arp_labels.7284
                0x000959b0       0x10 networking/lib.a(arp.o)
 .rodata.str1.1
                0x000959c0      0x1fe networking/lib.a(arp.o)
                                0x20e (size before relaxing)
 .rodata.str1.1
                0x00095bbe      0x189 networking/lib.a(arping.o)
                                0x1a8 (size before relaxing)
 .rodata.str1.1
                0x00095d47      0x1e2 networking/lib.a(ftpd.o)
                                0x1ff (size before relaxing)
 .rodata.str1.1
                0x00095f29       0x9d networking/lib.a(ftpgetput.o)
                                 0xbf (size before relaxing)
 .rodata.ftpgetput_longopts
                0x00095fc6       0x33 networking/lib.a(ftpgetput.o)
 .rodata        0x00095ff9       0x18 networking/lib.a(hostname.o)
 .rodata.str1.1
                0x00096011       0x14 networking/lib.a(hostname.o)
                                 0x1f (size before relaxing)
 .rodata.HTTP_200
                0x00096025       0x12 networking/lib.a(httpd.o)
 .rodata.suffixTable.7304
                0x00096037       0xe7 networking/lib.a(httpd.o)
 .rodata.HTTPD_CONF
                0x0009611e        0xb networking/lib.a(httpd.o)
 .rodata.RFC1123FMT.7214
                0x00096129       0x1a networking/lib.a(httpd.o)
 .rodata.DEFAULT_PATH_HTTPD_CONF
                0x00096143        0x5 networking/lib.a(httpd.o)
 .rodata.request_HEAD.7375
                0x00096148        0x5 networking/lib.a(httpd.o)
 .rodata.str1.1
                0x0009614d      0x523 networking/lib.a(httpd.o)
                                0x576 (size before relaxing)
 .rodata.request_GET.7370
                0x00096670        0x4 networking/lib.a(httpd.o)
 .rodata.index_html
                0x00096674        0xb networking/lib.a(httpd.o)
 .rodata        0x0009667f        0x7 networking/lib.a(ifconfig.o)
 .rodata.str1.1
                0x00096686      0x13e networking/lib.a(ifconfig.o)
                                0x17b (size before relaxing)
 .rodata.str1.1
                0x000967c4      0x8cd networking/lib.a(ifupdown.o)
                                0x941 (size before relaxing)
 .rodata.keywords_up_down
                0x00097091       0x1a networking/lib.a(ifupdown.o)
 .rodata        0x000970ab       0x20 networking/lib.a(inetd.o)
 .rodata.str1.1
                0x000970cb      0x223 networking/lib.a(inetd.o)
                                0x266 (size before relaxing)
 .rodata.SOCK_xxx.7882
                0x000972ee        0x6 networking/lib.a(inetd.o)
 .rodata.str1.1
                0x000972f4      0x422 networking/lib.a(interface.o)
                                0x464 (size before relaxing)
 .rodata.TRext  0x00097716        0xf networking/lib.a(interface.o)
 .rodata.ife_print_flags_strs.7416
                0x00097725       0x6a networking/lib.a(interface.o)
 .rodata.keywords.7828
                0x0009778f       0x27 networking/lib.a(ip.o)
 .rodata        0x000977b6       0x11 networking/lib.a(nbd-client.o)
 .rodata.str1.1
                0x000977c7       0x2f networking/lib.a(nbd-client.o)
                                 0x38 (size before relaxing)
 .rodata.str1.1
                0x00000000        0xb networking/lib.a(nc.o)
 .rodata.str1.1
                0x000977f6      0x385 networking/lib.a(netstat.o)
                                0x3ca (size before relaxing)
 .rodata.str1.1
                0x00097b7b       0x40 networking/lib.a(nslookup.o)
 .rodata.str1.1
                0x00097bbb      0x2b8 networking/lib.a(ping.o)
                                0x2d6 (size before relaxing)
 .rodata.tbl_verb
                0x00097e73       0x15 networking/lib.a(route.o)
 .rodata.str1.1
                0x00097e88      0x247 networking/lib.a(route.o)
                                0x270 (size before relaxing)
 .rodata.tbl_ipvx
                0x000980cf       0x68 networking/lib.a(route.o)
 .rodata.flagchars
                0x00098137        0x9 networking/lib.a(route.o)
 .rodata.tbl_hash_net_host
                0x00098140        0xf networking/lib.a(route.o)
 .rodata.str1.1
                0x0009814f      0x165 networking/lib.a(tcpudp.o)
                                0x188 (size before relaxing)
 .rodata.str1.1
                0x000982b4       0xdf networking/lib.a(telnet.o)
                                0x103 (size before relaxing)
 .rodata.IACIAC.7059
                0x00098393        0x2 networking/lib.a(telnetd.o)
 .rodata.str1.1
                0x00098395       0x1b networking/lib.a(telnetd.o)
                                 0x2c (size before relaxing)
 .rodata.iacs_to_send.7079
                0x000983b0        0xc networking/lib.a(telnetd.o)
 .rodata.errcode_str.7070
                0x000983bc       0x79 networking/lib.a(tftp.o)
 .rodata.str1.1
                0x00098435       0x4e networking/lib.a(tftp.o)
                                 0x75 (size before relaxing)
 .rodata.str1.1
                0x00098483      0x203 networking/lib.a(traceroute.o)
                                0x289 (size before relaxing)
 .rodata.str1.1
                0x00098686       0x13 networking/lib.a(vconfig.o)
 .rodata.name_types
                0x00098699       0x4c networking/lib.a(vconfig.o)
 .rodata.cmds   0x000986e5       0x50 networking/lib.a(vconfig.o)
 .rodata.wget_longopts.7189
                0x00098735       0xa6 networking/lib.a(wget.o)
 .rodata.str1.1
                0x000987db      0x284 networking/lib.a(wget.o)
                                0x307 (size before relaxing)
 .rodata.keywords.7169
                0x00098a5f       0x2b networking/lib.a(wget.o)
 .rodata.str1.1
                0x00098a8a       0x1d networking/lib.a(whois.o)
                                 0x25 (size before relaxing)
 .rodata.families.7795
                0x00098aa7       0x11 networking/libiproute/lib.a(ip_parse_common_args.o)
 .rodata.str1.1
                0x00098ab8       0x10 networking/libiproute/lib.a(ip_parse_common_args.o)
 .rodata.af_numbers.7790
                0x00098ac8        0x3 networking/libiproute/lib.a(ip_parse_common_args.o)
 .rodata.ip_common_commands.7783
                0x00098acb       0x16 networking/libiproute/lib.a(ip_parse_common_args.o)
 .rodata.option.8056
                0x00098ae1       0x39 networking/libiproute/lib.a(ipaddress.o)
 .rodata.option.8014
                0x00098b1a       0x17 networking/libiproute/lib.a(ipaddress.o)
 .rodata.str1.1
                0x00098b31      0x22e networking/libiproute/lib.a(ipaddress.o)
                                0x256 (size before relaxing)
 .rodata.commands.8093
                0x00098d5f       0x20 networking/libiproute/lib.a(ipaddress.o)
 .rodata.flag_labels.7947
                0x00098d7f       0x3c networking/libiproute/lib.a(ipaddress.o)
 .rodata.keywords.8083
                0x00098dbb       0x31 networking/libiproute/lib.a(iplink.o)
 .rodata.keywords.8138
                0x00098dec       0x1e networking/libiproute/lib.a(iplink.o)
 .rodata.protocols.8084
                0x00098e0a       0x10 networking/libiproute/lib.a(iplink.o)
 .rodata.str1.1
                0x00098e1a       0xc5 networking/libiproute/lib.a(iplink.o)
                                0x10f (size before relaxing)
 .rodata.str_on_off.8066
                0x00098edf        0x8 networking/libiproute/lib.a(iplink.o)
 .rodata.keywords.8055
                0x00098ee7       0x31 networking/libiproute/lib.a(iplink.o)
 .rodata.keywords.8111
                0x00098f18       0x14 networking/libiproute/lib.a(iplink.o)
 .rodata.str_on_off.8085
                0x00098f2c        0x8 networking/libiproute/lib.a(iplink.o)
 .rodata.keywords.7872
                0x00098f34       0x33 networking/libiproute/lib.a(iproute.o)
 .rodata.options.7977
                0x00098f67       0x26 networking/libiproute/lib.a(iproute.o)
 .rodata.str1.1
                0x00098f8d      0x15e networking/libiproute/lib.a(iproute.o)
                                0x1d3 (size before relaxing)
 .rodata.fn.7925
                0x000990eb       0x1f networking/libiproute/lib.a(iproute.o)
 .rodata.keywords.7938
                0x0009910a       0x48 networking/libiproute/lib.a(iproute.o)
 .rodata.ip_route_commands.7999
                0x00099152       0x47 networking/libiproute/lib.a(iproute.o)
 .rodata.ip_rule_commands.7926
                0x00099199       0x16 networking/libiproute/lib.a(iprule.o)
 .rodata.str1.1
                0x000991af       0x90 networking/libiproute/lib.a(iprule.o)
                                 0xab (size before relaxing)
 .rodata.keywords.7886
                0x0009923f       0x5f networking/libiproute/lib.a(iprule.o)
 .rodata.str1.1
                0x0009929e      0x2ea networking/libiproute/lib.a(iptunnel.o)
                                0x326 (size before relaxing)
 .rodata.keywords.8215
                0x00099588       0x21 networking/libiproute/lib.a(iptunnel.o)
 .rodata.keywords.8007
                0x000995a9       0x9b networking/libiproute/lib.a(iptunnel.o)
 .rodata.str1.1
                0x00099644       0xfa networking/libiproute/lib.a(libnetlink.o)
 .rodata.str1.1
                0x0009973e       0x1d networking/libiproute/lib.a(ll_addr.o)
                                 0x20 (size before relaxing)
 .rodata.str1.1
                0x0009975b       0x1c networking/libiproute/lib.a(ll_map.o)
                                 0x1e (size before relaxing)
 .rodata.arphrd_name.7493
                0x00099777       0x7d networking/libiproute/lib.a(ll_types.o)
 .rodata.str1.1
                0x000997f4        0x5 networking/libiproute/lib.a(ll_types.o)
 .rodata.str1.1
                0x000997f9       0xe0 networking/libiproute/lib.a(rt_names.o)
                                0x126 (size before relaxing)
 .rodata.str1.1
                0x000998d9       0x3a networking/libiproute/lib.a(rtm_map.o)
                                 0x64 (size before relaxing)
 .rodata.keywords.7833
                0x00099913       0x61 networking/libiproute/lib.a(rtm_map.o)
 .rodata.str1.1
                0x00099974       0xf2 networking/libiproute/lib.a(utils.o)
                                0x112 (size before relaxing)
 .rodata.len_of_option_as_string
                0x00099a66        0xe networking/udhcp/lib.a(dhcpc.o)
 .rodata.str1.1
                0x00099a74      0x309 networking/udhcp/lib.a(dhcpc.o)
                                0x338 (size before relaxing)
 .rodata.udhcpc_longopts
                0x00099d7d       0xe5 networking/udhcp/lib.a(dhcpc.o)
 .rodata.str1.1
                0x00099e62      0x122 networking/udhcp/lib.a(dhcpd.o)
                                0x148 (size before relaxing)
 .rodata.str1.1
                0x00099f84        0xe networking/udhcp/lib.a(dhcprelay.o)
                                 0x15 (size before relaxing)
 .rodata.dumpleases_longopts.7262
                0x00099f92       0x1f networking/udhcp/lib.a(dumpleases.o)
 .rodata.str1.1
                0x00099fb1       0x98 networking/udhcp/lib.a(dumpleases.o)
                                 0xa4 (size before relaxing)
 .rodata.str1.1
                0x0009a049      0x108 networking/udhcp/lib.a(files.o)
                                0x14e (size before relaxing)
 .rodata.str1.1
                0x0009a151       0x33 networking/udhcp/lib.a(leases.o)
 .rodata.str1.1
                0x0009a184       0x1c networking/udhcp/lib.a(packet.o)
                                 0x54 (size before relaxing)
 .rodata.str1.1
                0x0009a1a0       0x12 networking/udhcp/lib.a(signalpipe.o)
 .rodata.str1.1
                0x0009a1b2       0x30 networking/udhcp/lib.a(socket.o)
                                 0x4b (size before relaxing)
 .rodata.str1.1
                0x0009a1e2       0x21 networking/udhcp/lib.a(arpping.o)
 .rodata.dhcp_option_lengths
                0x0009a203        0xe networking/udhcp/lib.a(common.o)
                0x0009a203                dhcp_option_lengths
 .rodata.str1.1
                0x0009a211       0xd8 networking/udhcp/lib.a(common.o)
                                 0xdc (size before relaxing)
 .rodata.dhcp_optflags
                0x0009a2e9       0x48 networking/udhcp/lib.a(common.o)
                0x0009a2e9                dhcp_optflags
 .rodata.dhcp_option_strings
                0x0009a331       0xff networking/udhcp/lib.a(common.o)
                0x0009a331                dhcp_option_strings
 .rodata.str1.1
                0x0009a430       0x74 procps/lib.a(free.o)
                                 0x79 (size before relaxing)
 .rodata.str1.1
                0x0009a4a4      0x17f procps/lib.a(iostat.o)
                                0x18b (size before relaxing)
 .rodata.str1.1
                0x0009a623       0x96 procps/lib.a(kill.o)
                                 0x9a (size before relaxing)
 .rodata.str1.1
                0x0009a6b9       0x17 procps/lib.a(lsof.o)
 .rodata        0x0009a6d0       0x12 procps/lib.a(mpstat.o)
 .rodata.v.7269
                0x0009a6e2        0x4 procps/lib.a(mpstat.o)
 .rodata.str1.1
                0x0009a6e6      0x18d procps/lib.a(mpstat.o)
                                0x1c8 (size before relaxing)
 .rodata.str1.1
                0x0009a873       0x11 procps/lib.a(pgrep.o)
                                 0x1c (size before relaxing)
 .rodata.str1.1
                0x00000000       0x11 procps/lib.a(pidof.o)
                                  0x5 (size before relaxing)
 .rodata.str1.1
                0x0009a884       0xd3 procps/lib.a(pmap.o)
 .rodata        0x0009a957       0x36 procps/lib.a(powertop.o)
 .rodata.str1.1
                0x0009a98d      0x248 procps/lib.a(powertop.o)
                                0x25c (size before relaxing)
 .rodata.str1.1
                0x0009abd5       0xbe procps/lib.a(ps.o)
 .rodata.str1.1
                0x0009ac93       0x39 procps/lib.a(pstree.o)
                                 0x48 (size before relaxing)
 .rodata.str1.1
                0x0009accc       0x2d procps/lib.a(pwdx.o)
                                 0x39 (size before relaxing)
 .rodata.Xetpriority_msg.7011
                0x0009acf9        0xd procps/lib.a(renice.o)
 .rodata.str1.1
                0x0009ad06       0x10 procps/lib.a(renice.o)
                                 0x24 (size before relaxing)
 .rodata.opts.7019
                0x0009ad16        0x7 procps/lib.a(renice.o)
 .rodata.str1.1
                0x0009ad1d       0xc7 procps/lib.a(sysctl.o)
                                 0xd4 (size before relaxing)
 .rodata.fmt.7089
                0x0009ade4       0x2e procps/lib.a(top.o)
 .rodata.str1.1
                0x0009ae12      0x247 procps/lib.a(top.o)
                                0x297 (size before relaxing)
 .rodata.match.7234
                0x0009b059       0x84 procps/lib.a(top.o)
 .rodata.str1.1
                0x0009b0dd       0x5b procps/lib.a(uptime.o)
                                 0x5e (size before relaxing)
 .rodata.str1.1
                0x0009b138      0x4e7 runit/lib.a(svlogd.o)
                                0x513 (size before relaxing)
 .rodata.permmode.10390
                0x0009b61f        0x3 shell/lib.a(ash.o)
 .rodata        0x0009b622       0x68 shell/lib.a(ash.o)
 .rodata.dolatstr
                0x0009b68a        0x5 shell/lib.a(ash.o)
 .rodata.C_escapes.10021
                0x0009b68f       0x12 shell/lib.a(ash.o)
 .rodata.syntax_index_table
                0x0009b6a1      0x102 shell/lib.a(ash.o)
 .rodata.types.10112
                0x0009b7a3        0x6 shell/lib.a(ash.o)
 .rodata.spclchars.8611
                0x0009b7a9        0xa shell/lib.a(ash.o)
 .rodata.metachars.8930
                0x0009b7b3        0x4 shell/lib.a(ash.o)
 .rodata.nodesize
                0x0009b7b7       0x1b shell/lib.a(ash.o)
 .rodata.xxreadtoken_chars
                0x0009b7d2        0x7 shell/lib.a(ash.o)
 .rodata.permuser.10389
                0x0009b7d9        0x3 shell/lib.a(ash.o)
 .rodata.qchars.8474
                0x0009b7dc        0x3 shell/lib.a(ash.o)
 .rodata.timescmd_str
                0x0009b7df        0x9 shell/lib.a(ash.o)
 .rodata.xxreadtoken_tokens
                0x0009b7e8        0xa shell/lib.a(ash.o)
 .rodata.str1.1
                0x0009b7f2      0x8a3 shell/lib.a(ash.o)
                                0x98e (size before relaxing)
 .rodata.vstype.8185
                0x0009c095       0x30 shell/lib.a(ash.o)
 .rodata.op_tokens
                0x0009c0c5       0x8d shell/lib.a(math.o)
 .rodata.str1.1
                0x0009c152       0x75 shell/lib.a(math.o)
                                 0x7a (size before relaxing)
 .rodata.str1.1
                0x0009c1c7      0x13b shell/lib.a(shell_common.o)
                                0x18a (size before relaxing)
 .rodata.defifsvar
                0x0009c302        0x8 shell/lib.a(shell_common.o)
                0x0009c302                defifsvar
 .rodata.ulimit_opt_string
                0x0009c30a       0x2c shell/lib.a(shell_common.o)
 .rodata.str1.1
                0x0009c336       0x49 sysklogd/lib.a(klogd.o)
                                 0x53 (size before relaxing)
 .rodata.str1.1
                0x0009c37f       0x70 sysklogd/lib.a(logread.o)
                                 0x72 (size before relaxing)
 .rodata.str1.1
                0x0009c3ef      0x1c1 sysklogd/lib.a(syslogd_and_logger.o)
                                0x220 (size before relaxing)
 .rodata.str1.1
                0x0009c5b0        0x6 util-linux/lib.a(blockdev.o)
                                  0xc (size before relaxing)
 .rodata.str1.1
                0x0009c5b6       0x14 util-linux/lib.a(dmesg.o)
 .rodata        0x0009c5ca       0x32 util-linux/lib.a(fdisk.o)
 .rodata.msg_part_already_defined
                0x0009c5fc       0x3d util-linux/lib.a(fdisk.o)
 .rodata.str1.1
                0x0009c639     0x3367 util-linux/lib.a(fdisk.o)
                               0x3409 (size before relaxing)
 .rodata.msg_building_new_label
                0x0009f9a0       0x8f util-linux/lib.a(fdisk.o)
 .rodata.getopt_longopts.7062
                0x0009fa2f       0x27 util-linux/lib.a(fstrim.o)
 .rodata.str1.1
                0x0009fa56       0x27 util-linux/lib.a(fstrim.o)
                                 0x2a (size before relaxing)
 .rodata.getopt_longopts
                0x0009fa7d       0x5f util-linux/lib.a(getopt.o)
 .rodata.str1.1
                0x0009fadc       0x95 util-linux/lib.a(getopt.o)
                                 0xab (size before relaxing)
 .rodata.hexdump_opts
                0x0009fb71       0x11 util-linux/lib.a(hexdump.o)
 .rodata.add_first
                0x0009fb82        0xc util-linux/lib.a(hexdump.o)
 .rodata.str1.1
                0x0009fb8e      0x104 util-linux/lib.a(hexdump.o)
                                0x108 (size before relaxing)
 .rodata.hwclock_longopts.7074
                0x0009fc92       0x3c util-linux/lib.a(hwclock.o)
 .rodata.str1.1
                0x0009fcce       0x5f util-linux/lib.a(hwclock.o)
 .rodata        0x0009fd2d        0x4 util-linux/lib.a(lspci.o)
 .rodata.str1.1
                0x0009fd31       0x9b util-linux/lib.a(lspci.o)
                                 0xa5 (size before relaxing)
 .rodata.str1.1
                0x0009fdcc       0x57 util-linux/lib.a(lsusb.o)
                                 0x5f (size before relaxing)
 .rodata.str1.1
                0x0009fe23      0x233 util-linux/lib.a(mkfs_ext2.o)
                                0x234 (size before relaxing)
 .rodata.str1.1
                0x000a0056      0x20e util-linux/lib.a(mkfs_minix.o)
                                0x23d (size before relaxing)
 .rodata.str1.1
                0x000a0264       0x38 util-linux/lib.a(mkfs_reiser.o)
                                 0x70 (size before relaxing)
 .rodata.str1.1
                0x000a029c      0x17c util-linux/lib.a(mkfs_vfat.o)
                                0x180 (size before relaxing)
 .rodata.boot_code
                0x000a0418       0x3b util-linux/lib.a(mkfs_vfat.o)
 .rodata.SWAPSPACE2
                0x000a0453        0xa util-linux/lib.a(mkswap.o)
 .rodata.str1.1
                0x000a045d       0x56 util-linux/lib.a(mkswap.o)
                                 0x5a (size before relaxing)
 .rodata.str1.1
                0x000a04b3       0x5e util-linux/lib.a(more.o)
                                 0x6a (size before relaxing)
 .rodata.filesystems.7816
                0x000a0511       0x24 util-linux/lib.a(mount.o)
 .rodata.options.8079
                0x000a0535       0xa1 util-linux/lib.a(mount.o)
 .rodata.str1.1
                0x000a05d6      0x30d util-linux/lib.a(mount.o)
                                0x35c (size before relaxing)
 .rodata.nfs_err_stat
                0x000a08e3       0x12 util-linux/lib.a(mount.o)
 .rodata.options.8104
                0x000a08f5       0x3d util-linux/lib.a(mount.o)
 .rodata.mount_option_str
                0x000a0932      0x13e util-linux/lib.a(mount.o)
 .rodata.nfs_err_errnum
                0x000a0a70       0x12 util-linux/lib.a(mount.o)
 .rodata.str1.1
                0x000a0a82       0x7e util-linux/lib.a(rdate.o)
                                 0x8d (size before relaxing)
 .rodata.str1.1
                0x000a0b00        0xb util-linux/lib.a(swaponoff.o)
                                 0x26 (size before relaxing)
 .rodata.str1.1
                0x000a0b0b       0x5e util-linux/lib.a(switch_root.o)
                                 0x75 (size before relaxing)
 .rodata.str1.1
                0x000a0b69       0x61 util-linux/lib.a(umount.o)
                                 0x81 (size before relaxing)
 .rodata.str1.1
                0x000a0bca       0x24 util-linux/volume_id/lib.a(get_devname.o)
                                 0x2d (size before relaxing)
 .rodata.str1.1
                0x000a0bee        0x5 util-linux/volume_id/lib.a(xfs.o)
 .rodata.str1.1
                0x000a0bf3        0x9 util-linux/volume_id/lib.a(btrfs.o)
 .rodata.str1.1
                0x000a0bfc        0x9 util-linux/volume_id/lib.a(exfat.o)
 .rodata.str1.1
                0x000a0c05       0x2a util-linux/volume_id/lib.a(fat.o)
                                 0x38 (size before relaxing)
 .rodata        0x000a0c2f       0x11 util-linux/volume_id/lib.a(hfs.o)
 .rodata.str1.1
                0x000a0c40       0x18 util-linux/volume_id/lib.a(iso9660.o)
 .rodata.str1.1
                0x000a0c58       0x34 util-linux/volume_id/lib.a(linux_swap.o)
 .rodata.str1.1
                0x000a0c8c        0x5 util-linux/volume_id/lib.a(ntfs.o)
                                  0xa (size before relaxing)
 .rodata.str1.1
                0x000a0c91       0x1b util-linux/volume_id/lib.a(reiserfs.o)
                                 0x25 (size before relaxing)
 .rodata.str1.1
                0x000a0cac       0x24 util-linux/volume_id/lib.a(udf.o)
                                 0x2a (size before relaxing)
 .rodata.str1.1
                0x000a0cd0       0x78 util-linux/volume_id/lib.a(util.o)
 .rodata.str1.1
                0x000a0d48       0x6f archival/lib.a(bbunzip.o)
                                 0x7f (size before relaxing)
 .rodata.extra_lbits
                0x000a0db7       0x1d archival/lib.a(gzip.o)
 .rodata.extra_blbits
                0x000a0dd4       0x13 archival/lib.a(gzip.o)
 .rodata.str1.1
                0x000a0de7       0x11 archival/lib.a(gzip.o)
                                 0x14 (size before relaxing)
 .rodata.bl_order
                0x000a0df8       0x13 archival/lib.a(gzip.o)
 .rodata.extra_dbits
                0x000a0e0b       0x1e archival/lib.a(gzip.o)
 .rodata.prefilled.7263
                0x000a0e29       0x30 archival/lib.a(tar.o)
 .rodata.str1.1
                0x000a0e59      0x10d archival/lib.a(tar.o)
                                0x139 (size before relaxing)
 .rodata.str1.1
                0x000a0f66       0xc4 archival/libarchive/lib.a(data_extract_all.o)
 .rodata.str1.1
                0x000a102a       0x1a archival/libarchive/lib.a(decompress_bunzip2.o)
                                 0x26 (size before relaxing)
 .rodata.cpdext
                0x000a1044       0x1e archival/libarchive/lib.a(decompress_gunzip.o)
 .rodata.cplext
                0x000a1062       0x1f archival/libarchive/lib.a(decompress_gunzip.o)
 .rodata.str1.1
                0x000a1081       0x41 archival/libarchive/lib.a(decompress_gunzip.o)
                                 0x52 (size before relaxing)
 .rodata.border
                0x000a10c2       0x13 archival/libarchive/lib.a(decompress_gunzip.o)
 .rodata.str1.1
                0x000a10d5       0xe5 archival/libarchive/lib.a(get_header_tar.o)
 .rodata.str1.1
                0x000a11ba       0x36 archival/libarchive/lib.a(header_verbose_list.o)
 .rodata.str1.1
                0x000a11f0       0x31 archival/libarchive/lib.a(open_transformer.o)
                                 0x34 (size before relaxing)
 .rodata.str1.1
                0x000a1221        0xd archival/libarchive/lib.a(seek_by_jump.o)
 .rodata.str1.1
                0x00000000        0x7 console-tools/lib.a(clear.o)
 .rodata.str1.1
                0x000a122e       0x1d console-tools/lib.a(reset.o)
 .rodata.str1.1
                0x000a124b       0x22 console-tools/lib.a(resize.o)
 .rodata.str1.1
                0x00000000        0x3 coreutils/lib.a(basename.o)
 .rodata.str1.1
                0x00000000       0x22 coreutils/lib.a(cat.o)
                                  0x2 (size before relaxing)
 .rodata.str1.1
                0x00000000       0x22 coreutils/lib.a(chgrp.o)
                                  0x4 (size before relaxing)
 .rodata.str1.1
                0x000a126d       0x12 coreutils/lib.a(chmod.o)
                                 0x18 (size before relaxing)
 .rodata.str1.1
                0x000a127f        0x3 coreutils/lib.a(chown.o)
                                  0x6 (size before relaxing)
 .rodata.str1.1
                0x000a1282        0x3 coreutils/lib.a(chroot.o)
 .rodata.str1.1
                0x000a1285       0x2a coreutils/lib.a(cp.o)
 .rodata._op_on_field.7067
                0x000a12af       0x1f coreutils/lib.a(cut.o)
 .rodata.optstring
                0x000a12ce        0xb coreutils/lib.a(cut.o)
 .rodata.str1.1
                0x000a12d9       0xd5 coreutils/lib.a(cut.o)
                                 0xd9 (size before relaxing)
 .rodata.str1.1
                0x000a13ae       0x8f coreutils/lib.a(date.o)
 .rodata.isoformats.7027
                0x000a143d       0x1c coreutils/lib.a(date.o)
 .rodata.date_longopts
                0x000a1459       0x35 coreutils/lib.a(date.o)
 .rodata.keywords.7037
                0x000a148e       0x1a coreutils/lib.a(dd.o)
 .rodata.str1.1
                0x000a14a8       0x39 coreutils/lib.a(dd.o)
 .rodata.str1.1
                0x000a14e1       0xc9 coreutils/lib.a(df.o)
                                 0xd9 (size before relaxing)
 .rodata.str1.1
                0x000a15aa       0x2f coreutils/lib.a(du.o)
                                 0x4e (size before relaxing)
 .rodata.str1.1
                0x00000000        0xc coreutils/lib.a(echo.o)
 .rodata.str1.1
                0x000a15d9       0x10 coreutils/lib.a(env.o)
 .rodata.str1.1
                0x000a15e9       0xae coreutils/lib.a(expr.o)
                                 0xe4 (size before relaxing)
 .rodata.keywords.7187
                0x000a1697       0x21 coreutils/lib.a(expr.o)
 .rodata.head_opts
                0x000a16b8        0x7 coreutils/lib.a(head.o)
 .rodata.str1.1
                0x000a16bf       0x23 coreutils/lib.a(head.o)
                                 0x25 (size before relaxing)
 .rodata.str1.1
                0x00000000       0x23 coreutils/lib.a(hostid.o)
                                  0x6 (size before relaxing)
 .rodata.str1.1
                0x000a16e2       0x50 coreutils/lib.a(id.o)
                                 0x65 (size before relaxing)
 .rodata.str1.1
                0x000a1732       0x41 coreutils/lib.a(ln.o)
                                 0x4b (size before relaxing)
 .rodata        0x000a1773       0x33 coreutils/lib.a(ls.o)
 .rodata.ls_options
                0x000a17a6       0x20 coreutils/lib.a(ls.o)
 .rodata.ls_longopts.7285
                0x000a17c6        0x9 coreutils/lib.a(ls.o)
 .rodata.str1.1
                0x000a17cf       0xbf coreutils/lib.a(ls.o)
                                 0xdf (size before relaxing)
 .rodata.color_str.7286
                0x000a188e       0x22 coreutils/lib.a(ls.o)
 .rodata.str1.1
                0x000a18b0       0x74 coreutils/lib.a(md5_sha1_sum.o)
                                 0x9b (size before relaxing)
 .rodata.str1.1
                0x000a1924        0x5 coreutils/lib.a(mkdir.o)
                                 0x17 (size before relaxing)
 .rodata.mkdir_longopts
                0x000a1929       0x1c coreutils/lib.a(mkdir.o)
 .rodata.modes_chars
                0x000a1945        0x8 coreutils/lib.a(mknod.o)
 .rodata.fmt.7030
                0x000a194d       0x2d coreutils/lib.a(mv.o)
 .rodata.mv_longopts
                0x000a197a       0x2e coreutils/lib.a(mv.o)
 .rodata.str1.1
                0x000a19a8       0x50 coreutils/lib.a(mv.o)
                                 0x56 (size before relaxing)
 .rodata.str1.1
                0x000a19f8       0x10 coreutils/lib.a(nice.o)
                                 0x14 (size before relaxing)
 .rodata.str1.1
                0x000a1a08       0x21 coreutils/lib.a(nohup.o)
                                 0x30 (size before relaxing)
 .rodata.str1.1
                0x000a1a29       0x3e coreutils/lib.a(printf.o)
                                 0x53 (size before relaxing)
 .rodata.format_chars.7093
                0x000a1a67        0xe coreutils/lib.a(printf.o)
 .rodata.str1.1
                0x000a1a75        0x6 coreutils/lib.a(readlink.o)
                                 0x10 (size before relaxing)
 .rodata.str1.1
                0x000a1a7b       0x27 coreutils/lib.a(rm.o)
 .rodata.rmdir_longopts.7008
                0x000a1aa2       0x30 coreutils/lib.a(rmdir.o)
 .rodata.str1.1
                0x00000000       0x27 coreutils/lib.a(rmdir.o)
                                  0x8 (size before relaxing)
 .rodata.str1.1
                0x000a1ad2        0xe coreutils/lib.a(seq.o)
                                 0x11 (size before relaxing)
 .rodata.str1.1
                0x000a1ae0        0xc coreutils/lib.a(sleep.o)
 .rodata.OPT_STR
                0x000a1aec       0x18 coreutils/lib.a(sort.o)
 .rodata.str1.1
                0x000a1b04       0x20 coreutils/lib.a(sort.o)
                                 0x27 (size before relaxing)
 .rodata        0x000a1b24       0x6f coreutils/lib.a(stty.o)
 .rodata.mode_name
                0x000a1b93      0x1f6 coreutils/lib.a(stty.o)
 .rodata.control_name
                0x000a1d89       0x5b coreutils/lib.a(stty.o)
 .rodata.str1.1
                0x000a1de4      0x135 coreutils/lib.a(stty.o)
                                0x13e (size before relaxing)
 .rodata.control_info
                0x000a1f19       0x22 coreutils/lib.a(stty.o)
 .rodata.params.7124
                0x000a1f3b       0x31 coreutils/lib.a(stty.o)
 .rodata.tcflag_offsets.7012
                0x000a1f6c        0x4 coreutils/lib.a(stty.o)
 .rodata.str1.1
                0x000a1f70       0x71 coreutils/lib.a(tail.o)
                                 0x89 (size before relaxing)
 .rodata        0x000a1fe1        0x4 coreutils/lib.a(tee.o)
 .rodata.str1.1
                0x00000000       0x71 coreutils/lib.a(tee.o)
                                  0x3 (size before relaxing)
 .rodata.ops_texts
                0x000a1fe5       0x7c coreutils/lib.a(test.o)
 .rodata.str1.1
                0x000a2061       0x5d coreutils/lib.a(test.o)
                                 0x74 (size before relaxing)
 .rodata.no_op.7075
                0x000a20be        0x2 coreutils/lib.a(test.o)
 .rodata.ops_table
                0x000a20c0       0x50 coreutils/lib.a(test.o)
 .rodata.touch_longopts.7014
                0x000a2110       0x31 coreutils/lib.a(touch.o)
 .rodata.str1.1
                0x000a2141        0xc coreutils/lib.a(touch.o)
 .rodata.str1.1
                0x000a214d       0x1e coreutils/lib.a(tr.o)
                                 0x2c (size before relaxing)
 .rodata.str1.1
                0x000a216b        0xa coreutils/lib.a(tty.o)
                                  0xc (size before relaxing)
 .rodata.options
                0x000a2175        0xa coreutils/lib.a(uname.o)
 .rodata.uname_longopts.7022
                0x000a217f       0x89 coreutils/lib.a(uname.o)
 .rodata.str1.1
                0x000a2208        0xa coreutils/lib.a(uname.o)
                                 0x17 (size before relaxing)
 .rodata.str1.1
                0x000a2212       0x13 coreutils/lib.a(uniq.o)
                                 0x19 (size before relaxing)
 .rodata.str1.1
                0x00000000       0x13 coreutils/lib.a(uudecode.o)
                                 0x12 (size before relaxing)
 .rodata.str1.1
                0x000a2225        0xb coreutils/lib.a(wc.o)
                                 0x1b (size before relaxing)
 .rodata.str1.1
                0x00000000        0x2 coreutils/lib.a(yes.o)
 .rodata.str1.1
                0x00000000       0x10 coreutils/libcoreutils/lib.a(cp_mv_stat.o)
 .rodata.str1.1
                0x00000000        0xb coreutils/libcoreutils/lib.a(getopt_mk_fifo_nod.o)
                                  0x3 (size before relaxing)
 .rodata.str1.1
                0x000a2230       0x1e debianutils/lib.a(mktemp.o)
                                 0x21 (size before relaxing)
 .rodata.str1.1
                0x000a224e       0x26 debianutils/lib.a(run_parts.o)
                                 0x39 (size before relaxing)
 .rodata.runparts_longopts
                0x000a2274       0x37 debianutils/lib.a(run_parts.o)
 .rodata.str1.1
                0x000a22ab      0x137 debianutils/lib.a(start_stop_daemon.o)
                                0x161 (size before relaxing)
 .rodata.str1.1
                0x00000000        0xa debianutils/lib.a(which.o)
 .rodata.EMSG_NOT_ARRAY
                0x000a23e2        0xd editors/lib.a(awk.o)
 .rodata.EMSG_POSSIBLE_ERROR
                0x000a23ef       0x16 editors/lib.a(awk.o)
 .rodata.str1.1
                0x000a2405       0xeb editors/lib.a(awk.o)
                                0x102 (size before relaxing)
 .rodata.EMSG_INTERNAL_ERROR
                0x000a24f0        0xf editors/lib.a(awk.o)
 .rodata.EMSG_TOO_FEW_ARGS
                0x000a24ff       0x1e editors/lib.a(awk.o)
 .rodata.vValues
                0x000a251d       0x19 editors/lib.a(awk.o)
 .rodata.EMSG_UNEXP_EOS
                0x000a2536       0x19 editors/lib.a(awk.o)
 .rodata.EMSG_DIV_BY_ZERO
                0x000a254f       0x11 editors/lib.a(awk.o)
 .rodata.tokenlist
                0x000a2560      0x1bf editors/lib.a(awk.o)
 .rodata.EMSG_UNEXP_TOKEN
                0x000a271f       0x11 editors/lib.a(awk.o)
 .rodata.EMSG_UNDEF_FUNC
                0x000a2730       0x1b editors/lib.a(awk.o)
 .rodata.EMSG_INV_FMT
                0x000a274b       0x19 editors/lib.a(awk.o)
 .rodata.vNames
                0x000a2764       0x6b editors/lib.a(awk.o)
 .rodata.fmt_l_opt
                0x000a27cf       0x16 editors/lib.a(cmp.o)
 .rodata.fmt_eof
                0x000a27e5       0x10 editors/lib.a(cmp.o)
 .rodata.opt_chars
                0x000a27f5        0x3 editors/lib.a(cmp.o)
 .rodata.str1.1
                0x000a27f8       0x10 editors/lib.a(cmp.o)
                                 0x12 (size before relaxing)
 .rodata.fmt_differ
                0x000a2808       0x22 editors/lib.a(cmp.o)
 .rodata.str1.1
                0x000a282a      0x158 editors/lib.a(diff.o)
                                0x17e (size before relaxing)
 .rodata.diff_longopts
                0x000a2982       0xfd editors/lib.a(diff.o)
 .rodata.cmd_letters.7258
                0x000a2a7f       0x1c editors/lib.a(sed.o)
 .rodata.sed_longopts.7505
                0x000a2a9b       0x43 editors/lib.a(sed.o)
 .rodata.str1.1
                0x000a2ade      0x166 editors/lib.a(sed.o)
                                0x183 (size before relaxing)
 .rodata.semicolon_whitespace
                0x000a2c44        0x7 editors/lib.a(sed.o)
 .rodata.str1.1
                0x000a2c4b      0x59f editors/lib.a(vi.o)
                                0x62b (size before relaxing)
 .rodata.modifying_cmds
                0x000a31ea       0x11 editors/lib.a(vi.o)
 .rodata.params.7365
                0x000a31fb       0x90 findutils/lib.a(find.o)
 .rodata.str1.1
                0x000a328b       0x2f findutils/lib.a(find.o)
                                 0x51 (size before relaxing)
 .rodata.str1.1
                0x000a32ba       0x50 findutils/lib.a(grep.o)
                                 0x61 (size before relaxing)
 .rodata.str1.1
                0x000a330a       0xc9 findutils/lib.a(xargs.o)
                                 0xdb (size before relaxing)
 .rodata.str1.1
                0x000a33d3        0xb init/lib.a(halt.o)
                                  0xe (size before relaxing)
 .rodata.actions.7163
                0x000a33de       0x40 init/lib.a(init.o)
 .rodata.str1.1
                0x000a341e      0x1ef init/lib.a(init.o)
                                0x244 (size before relaxing)
 .rodata.press_enter.7116
                0x000a360d       0x2f init/lib.a(init.o)
 .rodata.str1.1
                0x000a363c        0xa init/lib.a(mesg.o)
                                 0x1b (size before relaxing)
 .rodata.str1.1
                0x000a3646       0x2f libbb/lib.a(bb_pwd.o)
                                 0x3f (size before relaxing)
 .rodata.str1.1
                0x000a3675       0x11 libbb/lib.a(change_identity.o)
 .rodata.str1.1
                0x00000000        0xa libbb/lib.a(concat_path_file.o)
 .rodata.str1.1
                0x000a3686      0x149 libbb/lib.a(copy_file.o)
                                0x177 (size before relaxing)
 .rodata.str1.1
                0x000a37cf        0xe libbb/lib.a(correct_password.o)
 .rodata.size_conv_str
                0x000a37dd       0x19 libbb/lib.a(dump.o)
 .rodata.conv_str
                0x000a37f6       0x21 libbb/lib.a(dump.o)
 .rodata.list.7203
                0x000a3817       0x7f libbb/lib.a(dump.o)
 .rodata.str1.1
                0x000a3896       0xd7 libbb/lib.a(dump.o)
                                 0xf3 (size before relaxing)
 .rodata.lcc    0x000a396d        0x7 libbb/lib.a(dump.o)
 .rodata.index_str
                0x000a3974       0x10 libbb/lib.a(dump.o)
 .rodata.str1.1
                0x00000000       0x18 libbb/lib.a(execable.o)
 .rodata.str1.1
                0x00000000       0x16 libbb/lib.a(find_mount_point.o)
 .rodata.str1.1
                0x00000000        0x5 libbb/lib.a(find_root_device.o)
 .rodata.str1.1
                0x00000000        0xe libbb/lib.a(get_cpu_count.o)
 .rodata.str1.1
                0x00000000        0x6 libbb/lib.a(get_shell_name.o)
 .rodata.str1.1
                0x000a3984       0x29 libbb/lib.a(get_volsize.o)
                                 0x2a (size before relaxing)
 .rodata.str1.1
                0x000a39ad        0xb libbb/lib.a(getopt32.o)
                                  0xd (size before relaxing)
 .rodata.str1.1
                0x000a39b8       0x43 libbb/lib.a(getpty.o)
 .rodata.PI_LANE.7215
                0x000a39fb       0x18 libbb/lib.a(hash_md5_sha.o)
 .rodata.ROT_CONST.7214
                0x000a3a13       0x18 libbb/lib.a(hash_md5_sha.o)
 .rodata.P_array.7036
                0x000a3a2b       0x30 libbb/lib.a(hash_md5_sha.o)
 .rodata.unit_chars.7003
                0x000a3a5b        0x9 libbb/lib.a(human_readable.o)
 .rodata.str1.1
                0x000a3a64       0x28 libbb/lib.a(human_readable.o)
                                 0x2f (size before relaxing)
 .rodata.str1.1
                0x000a3a8c       0x27 libbb/lib.a(inet_common.o)
                                 0x31 (size before relaxing)
 .rodata.str1.1
                0x00000000        0x3 libbb/lib.a(info_msg.o)
 .rodata.str1.1
                0x00000000        0x1 libbb/lib.a(inode_hash.o)
 .rodata.str1.1
                0x00000000        0x2 libbb/lib.a(kernel_version.o)
 .rodata.str1.1
                0x000a3ab3       0x3f libbb/lib.a(lineedit.o)
                                 0x79 (size before relaxing)
 .rodata.null_str
                0x000a3af2        0x1 libbb/lib.a(lineedit.o)
 .rodata.fmtstr_d
                0x000a3af3        0xd libbb/lib.a(login.o)
 .rodata.forbid
                0x000a3b00       0x96 libbb/lib.a(login.o)
 .rodata.str1.1
                0x000a3b96        0x9 libbb/lib.a(login.o)
                                  0xb (size before relaxing)
 .rodata.str1.1
                0x000a3b9f       0x14 libbb/lib.a(loop.o)
 .rodata.str1.1
                0x000a3bb3       0x32 libbb/lib.a(make_directory.o)
 .rodata.type_chars
                0x000a3be5       0x10 libbb/lib.a(mode_string.o)
 .rodata.mode_chars
                0x000a3bf5        0x7 libbb/lib.a(mode_string.o)
 .rodata.str1.1
                0x000a3bfc       0x92 libbb/lib.a(obscure.o)
 .rodata.str1.1
                0x000a3c8e       0x28 libbb/lib.a(parse_config.o)
 .rodata.who_chars.7004
                0x000a3cb6        0x5 libbb/lib.a(parse_mode.o)
 .rodata.perm_chars.7005
                0x000a3cbb        0x7 libbb/lib.a(parse_mode.o)
 .rodata.str1.1
                0x00000000        0x6 libbb/lib.a(print_flags.o)
 .rodata.str1.1
                0x000a3cc2        0x3 libbb/lib.a(printable.o)
 .rodata.charmap.7009
                0x000a3cc5       0x14 libbb/lib.a(process_escape_sequence.o)
 .rodata.str1.1
                0x000a3cd9       0xa8 libbb/lib.a(procps.o)
                                 0xd5 (size before relaxing)
 .rodata.str1.1
                0x000a3d81       0x54 libbb/lib.a(progress.o)
 .rodata.str1.1
                0x000a3dd5        0x7 libbb/lib.a(pw_encrypt.o)
 .rodata.esccmds.7006
                0x000a3ddc       0x5d libbb/lib.a(read_key.o)
 .rodata.str1.1
                0x00000000       0x1b libbb/lib.a(read_printf.o)
 .rodata.str1.1
                0x000a3e39       0x61 libbb/lib.a(remove_file.o)
                                 0x97 (size before relaxing)
 .rodata.str1.1
                0x000a3e9a       0x4d libbb/lib.a(rtc.o)
                                 0x55 (size before relaxing)
 .rodata.str1.1
                0x00000000       0x1a libbb/lib.a(run_shell.o)
 .rodata.str1.1
                0x00000000        0x2 libbb/lib.a(safe_gethostname.o)
 .rodata.str1.1
                0x000a3ee7        0x5 libbb/lib.a(safe_poll.o)
 .rodata.str1.1
                0x000a3eec        0x8 libbb/lib.a(setup_environment.o)
                                 0x48 (size before relaxing)
 .rodata.str1.1
                0x00000000        0x3 libbb/lib.a(single_argv.o)
 .rodata.str1.1
                0x00000000        0x6 libbb/lib.a(skip_whitespace.o)
 .rodata.str1.1
                0x000a3ef4       0x16 libbb/lib.a(systemd_support.o)
 .rodata.signals
                0x000a3f0a       0xe7 libbb/lib.a(u_signal_names.o)
 .rodata.str1.1
                0x000a3ff1       0x19 libbb/lib.a(u_signal_names.o)
 .rodata.str1.1
                0x000a400a       0x48 libbb/lib.a(update_passwd.o)
                                 0x8d (size before relaxing)
 .rodata.str1.1
                0x000a4052       0x1c libbb/lib.a(uuencode.o)
 .rodata.bb_uuenc_tbl_base64
                0x000a406e       0x42 libbb/lib.a(uuencode.o)
                0x000a406e                bb_uuenc_tbl_base64
 .rodata.str1.1
                0x00000000        0xc libbb/lib.a(vfork_daemon_rexec.o)
 .rodata.str1.1
                0x00000000        0x4 libbb/lib.a(wfopen.o)
 .rodata.str1.1
                0x00000000        0x2 libbb/lib.a(wfopen_input.o)
 .rodata.str1.1
                0x000a40b0       0x4a libbb/lib.a(xatonum.o)
                                 0x5e (size before relaxing)
 .rodata.str1.1
                0x000a40fa       0x64 libbb/lib.a(xconnect.o)
                                 0x72 (size before relaxing)
 .rodata.str1.1
                0x000a415e        0x7 libbb/lib.a(xgetcwd.o)
 .rodata.str1.1
                0x00000000        0x3 libbb/lib.a(xgethostbyname.o)
 .rodata.str1.1
                0x000a4165       0x27 libbb/lib.a(xreadlink.o)
 .rodata.str1.1
                0x000a418c       0x13 libbb/lib.a(xregcomp.o)
 .rodata.str1.1
                0x000a419f       0x16 libpwdgrp/lib.a(uidgid_get.o)

.rodata1
 *(SORT(.rodata1))

.ARM.extab
 *(SORT(.ARM.extab*) SORT(.gnu.linkonce.armextab.*))
                0x000a41b5                __exidx_start = .

.ARM.exidx      0x000a41b8        0x8
 *(SORT(.ARM.exidx*) SORT(.gnu.linkonce.armexidx.*))
 .ARM.exidx     0x000a41b8        0x8 /opt/Cortina/toolchain/toolchain-arm_gcc-4.5.1+l_uClibc-0.9.32_eabi/bin/../lib/gcc/arm-openwrt-linux-uclibcgnueabi/4.5.2/libgcc.a(_divdi3.o)
 .ARM.exidx     0x000a41c0        0x0 /opt/Cortina/toolchain/toolchain-arm_gcc-4.5.1+l_uClibc-0.9.32_eabi/bin/../lib/gcc/arm-openwrt-linux-uclibcgnueabi/4.5.2/libgcc.a(_udivdi3.o)
                                  0x8 (size before relaxing)
                0x000a41c0                __exidx_end = .

.eh_frame_hdr
 *(SORT(.eh_frame_hdr))

.eh_frame
 *(SORT(.eh_frame))

.gcc_except_table
 *(SORT(.gcc_except_table) SORT(.gcc_except_table.*))
                0x000a41c0                . = (ALIGN (0x8000) - ((0x8000 - .) & 0x7fff))
                0x000ac1c0                . = (0x8000 DATA_SEGMENT_ALIGN 0x1000)

.eh_frame
 *(SORT(.eh_frame))

.gcc_except_table
 *(SORT(.gcc_except_table) SORT(.gcc_except_table.*))

.tdata
 *(SORT(.tdata) SORT(.tdata.*) SORT(.gnu.linkonce.td.*))

.tbss
 *(SORT(.tbss) SORT(.tbss.*) SORT(.gnu.linkonce.tb.*))
 *(SORT(.tcommon))

.preinit_array  0x000ac1c0        0x0
                0x000ac1c0                PROVIDE (__preinit_array_start, .)
 *(SORT(.preinit_array))
                0x000ac1c0                PROVIDE (__preinit_array_end, .)

.init_array     0x000ac1c0        0x4
                0x000ac1c0                PROVIDE (__init_array_start, .)
 *(SORT(.init_array.*))
 *(SORT(.init_array))
 .init_array    0x000ac1c0        0x4 /opt/Cortina/toolchain/toolchain-arm_gcc-4.5.1+l_uClibc-0.9.32_eabi/bin/../lib/gcc/arm-openwrt-linux-uclibcgnueabi/4.5.2/crtbegin.o
                0x000ac1c4                PROVIDE (__init_array_end, .)

.fini_array     0x000ac1c4        0x4
                0x000ac1c4                PROVIDE (__fini_array_start, .)
 *(SORT(.fini_array))
 .fini_array    0x000ac1c4        0x4 /opt/Cortina/toolchain/toolchain-arm_gcc-4.5.1+l_uClibc-0.9.32_eabi/bin/../lib/gcc/arm-openwrt-linux-uclibcgnueabi/4.5.2/crtbegin.o
 *(SORT(.fini_array.*))
                0x000ac1c8                PROVIDE (__fini_array_end, .)

.ctors
 *crtbegin.o(SORT(.ctors))
 *crtbegin?.o(SORT(.ctors))
 *(SORT(EXCLUDE_FILE(*crtend?.o *crtend.o) .ctors))
 *(SORT(.ctors.*))
 *(SORT(.ctors))

.dtors
 *crtbegin.o(SORT(.dtors))
 *crtbegin?.o(SORT(.dtors))
 *(SORT(EXCLUDE_FILE(*crtend?.o *crtend.o) .dtors))
 *(SORT(.dtors.*))
 *(SORT(.dtors))

.jcr            0x000ac1c8        0x4
 *(SORT(.jcr))
 .jcr           0x000ac1c8        0x0 /opt/Cortina/toolchain/toolchain-arm_gcc-4.5.1+l_uClibc-0.9.32_eabi/bin/../lib/gcc/arm-openwrt-linux-uclibcgnueabi/4.5.2/crtbegin.o
 .jcr           0x000ac1c8        0x4 /opt/Cortina/toolchain/toolchain-arm_gcc-4.5.1+l_uClibc-0.9.32_eabi/bin/../lib/gcc/arm-openwrt-linux-uclibcgnueabi/4.5.2/crtend.o

.data.rel.ro
 *(SORT(.data.rel.ro.local*) SORT(.gnu.linkonce.d.rel.ro.local.*))
 *(SORT(.data.rel.ro*) SORT(.gnu.linkonce.d.rel.ro.*))

.dynamic        0x000ac1cc       0xe0
 *(SORT(.dynamic))
 .dynamic       0x000ac1cc       0xe0 /opt/Cortina/toolchain/toolchain-arm_gcc-4.5.1+l_uClibc-0.9.32_eabi/bin/../lib/gcc/arm-openwrt-linux-uclibcgnueabi/4.5.2/../../../../arm-openwrt-linux-uclibcgnueabi/lib/libcrypt.so
                0x000ac1cc                _DYNAMIC
                0x000ac2ac                . = (. DATA_SEGMENT_RELRO_END 0x0)

.got            0x000ac2ac      0x590
 *(SORT(.got.plt))
 .got.plt       0x000ac2ac      0x58c /opt/Cortina/toolchain/toolchain-arm_gcc-4.5.1+l_uClibc-0.9.32_eabi/bin/../lib/gcc/arm-openwrt-linux-uclibcgnueabi/4.5.2/../../../../arm-openwrt-linux-uclibcgnueabi/lib/libcrypt.so
                0x000ac2ac                _GLOBAL_OFFSET_TABLE_
 *(SORT(.igot.plt))
 *(SORT(.got))
 .got           0x000ac838        0x4 /opt/Cortina/toolchain/toolchain-arm_gcc-4.5.1+l_uClibc-0.9.32_eabi/bin/../lib/gcc/arm-openwrt-linux-uclibcgnueabi/4.5.2/../../../../arm-openwrt-linux-uclibcgnueabi/lib/libcrypt.so
 *(SORT(.igot))

.data           0x000ac83c       0x25
                0x000ac83c                PROVIDE (__data_start, .)
 *(SORT(.data) SORT(.data.*) SORT(.gnu.linkonce.d.*))
 .data          0x000ac83c        0x4 /opt/Cortina/toolchain/toolchain-arm_gcc-4.5.1+l_uClibc-0.9.32_eabi/bin/../lib/gcc/arm-openwrt-linux-uclibcgnueabi/4.5.2/crtbegin.o
                0x000ac83c                __dso_handle
 .data.msg_eol  0x000ac840        0x4 libbb/lib.a(verror_msg.o)
                0x000ac840                msg_eol
 .data.logmode  0x000ac844        0x4 libbb/lib.a(verror_msg.o)
                0x000ac844                logmode
 .data.sockfd   0x000ac848        0x4 networking/udhcp/lib.a(dhcpc.o)
 .data.builtinloc
                0x000ac84c        0x4 shell/lib.a(ash.o)
 .data.ttyfd    0x000ac850        0x4 shell/lib.a(ash.o)
 .data.g_parsefile
                0x000ac854        0x4 shell/lib.a(ash.o)
 .data.aix_volumes
                0x000ac858        0x4 util-linux/lib.a(fdisk.o)
 .data.sgi_volumes
                0x000ac85c        0x4 util-linux/lib.a(fdisk.o)
 .data.xfunc_error_retval
                0x000ac860        0x1 libbb/lib.a(default_error_retval.o)
                0x000ac860                xfunc_error_retval

.data1
 *(SORT(.data1))
                0x000ac861                _edata = .
                0x000ac861                PROVIDE (edata, .)
                0x000ac861                __bss_start = .
                0x000ac861                __bss_start__ = .

.bss            0x000ac868     0x141c
 *(SORT(.dynbss))
 .dynbss        0x000ac868       0x34 /opt/Cortina/toolchain/toolchain-arm_gcc-4.5.1+l_uClibc-0.9.32_eabi/bin/../lib/gcc/arm-openwrt-linux-uclibcgnueabi/4.5.2/../../../../arm-openwrt-linux-uclibcgnueabi/lib/libcrypt.so
                0x000ac868                stdout
                0x000ac86c                daylight
                0x000ac870                optarg
                0x000ac878                opterr
                0x000ac880                __environ
                0x000ac880                environ
                0x000ac884                optind
                0x000ac888                __stdin
                0x000ac88c                stdin
                0x000ac890                timezone
                0x000ac894                stderr
                0x000ac898                __stdout
 *(SORT(.bss) SORT(.bss.*) SORT(.gnu.linkonce.b.*))
 .bss.ruid      0x000ac89c        0x4 libbb/lib.a(appletlib.o)
 .bss.file      0x000ac8a0        0x4 miscutils/lib.a(lock.o)
 .bss.waitonly  0x000ac8a4        0x4 miscutils/lib.a(lock.o)
 .bss.shared    0x000ac8a8        0x4 miscutils/lib.a(lock.o)
 .bss.fd        0x000ac8ac        0x4 miscutils/lib.a(lock.o)
 .bss.unlock    0x000ac8b0        0x4 miscutils/lib.a(lock.o)
 .bss.buff.7347
                0x000ac8b4        0x4 networking/lib.a(interface.o)
 .bss.buff.7176
                0x000ac8b8        0x4 networking/lib.a(interface.o)
 .bss.int_list  0x000ac8bc        0x4 networking/lib.a(interface.o)
 .bss.buff.7186
                0x000ac8c0        0x4 networking/lib.a(interface.o)
 .bss.buff.7195
                0x000ac8c4        0x4 networking/lib.a(interface.o)
 .bss.proc_read.7317
                0x000ac8c8        0x4 networking/lib.a(interface.o)
 .bss.int_last  0x000ac8cc        0x4 networking/lib.a(interface.o)
 .bss.cclen     0x000ac8d0        0x4 networking/lib.a(tcpudp_perhost.o)
 .bss.cc        0x000ac8d4        0x4 networking/lib.a(tcpudp_perhost.o)
 .bss.hz_internal.7848
                0x000ac8d8        0x4 networking/libiproute/lib.a(iproute.o)
 .bss.idxmap    0x000ac8dc        0x4 networking/libiproute/lib.a(ll_map.o)
 .bss.rtnl_rtscope_tab
                0x000ac8e0        0x4 networking/libiproute/lib.a(rt_names.o)
 .bss.rtnl_rttable_tab
                0x000ac8e4        0x4 networking/libiproute/lib.a(rt_names.o)
 .bss.rtnl_rtrealm_tab
                0x000ac8e8        0x4 networking/libiproute/lib.a(rt_names.o)
 .bss.rtnl_rtprot_tab
                0x000ac8ec        0x4 networking/libiproute/lib.a(rt_names.o)
 .bss.rtnl_rtdsfield_tab
                0x000ac8f0        0x4 networking/libiproute/lib.a(rt_names.o)
 .bss.state     0x000ac8f4        0x4 networking/udhcp/lib.a(dhcpc.o)
 .bss.listen_mode
                0x000ac8f8        0x4 networking/udhcp/lib.a(dhcpc.o)
 .bss.signal_pipe
                0x000ac8fc        0x8 networking/udhcp/lib.a(signalpipe.o)
 .bss.startlinno
                0x000ac904        0x4 shell/lib.a(ash.o)
 .bss.commandname
                0x000ac908        0x4 shell/lib.a(ash.o)
 .bss.argbackq  0x000ac90c        0x4 shell/lib.a(ash.o)
 .bss.doprompt  0x000ac910        0x4 shell/lib.a(ash.o)
 .bss.argptr    0x000ac914        0x4 shell/lib.a(ash.o)
 .bss.jobless   0x000ac918        0x4 shell/lib.a(ash.o)
 .bss.funcblocksize
                0x000ac91c        0x4 shell/lib.a(ash.o)
 .bss.funcstring
                0x000ac920        0x4 shell/lib.a(ash.o)
 .bss.parsebackquote
                0x000ac924        0x4 shell/lib.a(ash.o)
 .bss.expdest   0x000ac928        0x4 shell/lib.a(ash.o)
 .bss.cmdenviron
                0x000ac92c        0x4 shell/lib.a(ash.o)
 .bss.cmdedit_prompt
                0x000ac930        0x4 shell/lib.a(ash.o)
 .bss.wordtext  0x000ac934        0x4 shell/lib.a(ash.o)
 .bss.njobs     0x000ac938        0x4 shell/lib.a(ash.o)
 .bss.initialpgrp
                0x000ac93c        0x4 shell/lib.a(ash.o)
 .bss.loopnest  0x000ac940        0x4 shell/lib.a(ash.o)
 .bss.heredoclist
                0x000ac944        0x4 shell/lib.a(ash.o)
 .bss.skipcount
                0x000ac948        0x4 shell/lib.a(ash.o)
 .bss.optptr    0x000ac94c        0x4 shell/lib.a(ash.o)
 .bss.basepf    0x000ac950       0x34 shell/lib.a(ash.o)
 .bss.needprompt
                0x000ac984        0x4 shell/lib.a(ash.o)
 .bss.ifsfirst  0x000ac988       0x10 shell/lib.a(ash.o)
 .bss.redirnode
                0x000ac998        0x4 shell/lib.a(ash.o)
 .bss.optionarg
                0x000ac99c        0x4 shell/lib.a(ash.o)
 .bss.localvars
                0x000ac9a0        0x4 shell/lib.a(ash.o)
 .bss.curjob    0x000ac9a4        0x4 shell/lib.a(ash.o)
 .bss.pathopt   0x000ac9a8        0x4 shell/lib.a(ash.o)
 .bss.lasttoken
                0x000ac9ac        0x4 shell/lib.a(ash.o)
 .bss.funcnest  0x000ac9b0        0x4 shell/lib.a(ash.o)
 .bss.checkkwd  0x000ac9b4        0x4 shell/lib.a(ash.o)
 .bss.heredoc   0x000ac9b8        0x4 shell/lib.a(ash.o)
 .bss.ifslastp  0x000ac9bc        0x4 shell/lib.a(ash.o)
 .bss.tokpushback
                0x000ac9c0        0x4 shell/lib.a(ash.o)
 .bss.atab      0x000ac9c4        0x4 shell/lib.a(ash.o)
 .bss.did_banner.9434
                0x000ac9c8        0x4 shell/lib.a(ash.o)
 .bss.doing_jobctl
                0x000ac9cc        0x4 shell/lib.a(ash.o)
 .bss.backquotelist
                0x000ac9d0        0x4 shell/lib.a(ash.o)
 .bss.evalskip  0x000ac9d4        0x4 shell/lib.a(ash.o)
 .bss.cmdtable  0x000ac9d8        0x4 shell/lib.a(ash.o)
 .bss.lastcmdentry
                0x000ac9dc        0x4 shell/lib.a(ash.o)
 .bss.line_input_state
                0x000ac9e0        0x4 shell/lib.a(ash.o)
 .bss.funcblock
                0x000ac9e4        0x4 shell/lib.a(ash.o)
 .bss.jobtab    0x000ac9e8        0x4 shell/lib.a(ash.o)
 .bss.is_interactive.9433
                0x000ac9ec        0x4 shell/lib.a(ash.o)
 .bss.quoteflag
                0x000ac9f0        0x4 shell/lib.a(ash.o)
 .bss.exparg    0x000ac9f4        0x8 shell/lib.a(ash.o)
 .bss.cmdnextc  0x000ac9fc        0x4 shell/lib.a(ash.o)
 .bss.funcstringsize
                0x000aca00        0x4 shell/lib.a(ash.o)
 .bss.aix_other_endian
                0x000aca04        0x4 util-linux/lib.a(fdisk.o)
 .bss.scsi_disk
                0x000aca08        0x4 util-linux/lib.a(fdisk.o)
 .bss.xbsd_part_index
                0x000aca0c        0x4 util-linux/lib.a(fdisk.o)
 .bss.freelist  0x000aca10       0x88 util-linux/lib.a(fdisk.o)
 .bss.sgi_other_endian
                0x000aca98        0x4 util-linux/lib.a(fdisk.o)
 .bss.verify_sun_starts
                0x000aca9c        0x4 util-linux/lib.a(fdisk.o)
 .bss.sun_other_endian
                0x000acaa0        0x4 util-linux/lib.a(fdisk.o)
 .bss.bsd_globals_ptr
                0x000acaa4        0x4 util-linux/lib.a(fdisk.o)
 .bss.floppy    0x000acaa8        0x4 util-linux/lib.a(fdisk.o)
 .bss.xbsd_part
                0x000acaac        0x4 util-linux/lib.a(fdisk.o)
 .bss.uuidCache
                0x000acab0        0x4 util-linux/volume_id/lib.a(get_devname.o)
 .bss.warned.7193
                0x000acab4        0x4 archival/libarchive/lib.a(get_header_tar.o)
 .bss.init_action_list
                0x000acab8        0x4 init/lib.a(init.o)
 .bss.passwd.7011
                0x000acabc        0x4 libbb/lib.a(bb_askpass.o)
 .bss.str.7004  0x000acac0        0x4 libbb/lib.a(human_readable.o)
 .bss.cache.7028
                0x000acac4        0x4 libbb/lib.a(inet_common.o)
 .bss.ino_dev_hashtable
                0x000acac8        0x4 libbb/lib.a(inode_hash.o)
 .bss.saved.7006
                0x000acacc       0x10 libbb/lib.a(printable_string.o)
 .bss.cur_saved.7007
                0x000acadc        0x4 libbb/lib.a(printable_string.o)
 .bss.username  0x000acae0        0x8 libbb/lib.a(procps.o)
 .bss.groupname
                0x000acae8        0x8 libbb/lib.a(procps.o)
 .bss           0x000acaf0        0x1 /opt/Cortina/toolchain/toolchain-arm_gcc-4.5.1+l_uClibc-0.9.32_eabi/bin/../lib/gcc/arm-openwrt-linux-uclibcgnueabi/4.5.2/crtbegin.o
 .bss.local_buf
                0x000acaf1        0xc libbb/lib.a(xfuncs.o)
 .bss.preferred_family
                0x000acafd        0x1 networking/libiproute/lib.a(ip_parse_common_args.o)
                0x000acafd                preferred_family
 .bss.nbuf.7781
                0x000acafe       0x10 networking/libiproute/lib.a(ll_map.o)
 .bss.back_exitstatus
                0x000acb0e        0x1 shell/lib.a(ash.o)
 .bss.exitstatus
                0x000acb0f        0x1 shell/lib.a(ash.o)
 .bss.buf.7003  0x000acb10        0xc libbb/lib.a(mode_string.o)
 *(SORT(COMMON))
 *fill*         0x000acb1c        0x4 00
 COMMON         0x000acb20     0x1001 libbb/lib.a(messages.o)
                0x000acb20                bb_common_bufsiz1
 *fill*         0x000adb21        0x7 00
 COMMON         0x000adb28      0x114 libbb/lib.a(xfunc_die.o)
                0x000adb28                die_jmp
                0x000adc38                die_sleep
 COMMON         0x000adc3c        0x4 libbb/lib.a(appletlib.o)
                0x000adc3c                applet_name
 COMMON         0x000adc40        0x8 libbb/lib.a(ptr_to_globals.o)
                0x000adc40                bb_errno
                0x000adc44                ptr_to_globals
 COMMON         0x000adc48        0x4 networking/lib.a(interface.o)
                0x000adc48                interface_opt_a
 COMMON         0x000adc4c        0x5 networking/libiproute/lib.a(ip_parse_common_args.o)
                0x000adc4c                oneline
                0x000adc50                _SL_
 *fill*         0x000adc51        0x3 00
 COMMON         0x000adc54        0x4 networking/udhcp/lib.a(dhcpd.o)
                0x000adc54                g_leases
 COMMON         0x000adc58        0xc shell/lib.a(ash_ptr_hack.o)
                0x000adc58                ash_ptr_to_globals_memstack
                0x000adc5c                ash_ptr_to_globals_misc
                0x000adc60                ash_ptr_to_globals_var
 COMMON         0x000adc64        0x4 coreutils/lib.a(test_ptr_hack.o)
                0x000adc64                test_ptr_to_statics
 COMMON         0x000adc68        0x4 libbb/lib.a(crc32.o)
                0x000adc68                global_crc32_table
 COMMON         0x000adc6c        0xc libbb/lib.a(getopt32.o)
                0x000adc6c                opt_complementary
                0x000adc70                option_mask32
                0x000adc74                applet_long_options
 COMMON         0x000adc78        0x4 libbb/lib.a(lineedit_ptr_hack.o)
                0x000adc78                lineedit_ptr_to_statics
 COMMON         0x000adc7c        0x4 libbb/lib.a(pidfile.o)
                0x000adc7c                wrote_pidfile
 COMMON         0x000adc80        0x4 libbb/lib.a(signals.o)
                0x000adc80                bb_got_signal
                0x000adc84                . = ALIGN ((. != 0x0)?0x4:0x1)
                0x000adc84                _bss_end__ = .
                0x000adc84                __bss_end__ = .
                0x000adc84                . = ALIGN (0x4)
                0x000adc84                . = ALIGN (0x4)
                0x000adc84                __end__ = .
                0x000adc84                _end = .
                0x000adc84                PROVIDE (end, .)
                0x000adc84                . = DATA_SEGMENT_END (.)

.stab
 *(SORT(.stab))

.stabstr
 *(SORT(.stabstr))

.stab.excl
 *(SORT(.stab.excl))

.stab.exclstr
 *(SORT(.stab.exclstr))

.stab.index
 *(SORT(.stab.index))

.stab.indexstr
 *(SORT(.stab.indexstr))

.ARM.attributes
                0x00000000       0x2f
 .ARM.attributes
                0x00000000       0x21 /opt/Cortina/toolchain/toolchain-arm_gcc-4.5.1+l_uClibc-0.9.32_eabi/bin/../lib/gcc/arm-openwrt-linux-uclibcgnueabi/4.5.2/../../../../arm-openwrt-linux-uclibcgnueabi/lib/crt1.o
 .ARM.attributes
                0x00000021       0x21 /opt/Cortina/toolchain/toolchain-arm_gcc-4.5.1+l_uClibc-0.9.32_eabi/bin/../lib/gcc/arm-openwrt-linux-uclibcgnueabi/4.5.2/../../../../arm-openwrt-linux-uclibcgnueabi/lib/crti.o
 .ARM.attributes
                0x00000042       0x33 /opt/Cortina/toolchain/toolchain-arm_gcc-4.5.1+l_uClibc-0.9.32_eabi/bin/../lib/gcc/arm-openwrt-linux-uclibcgnueabi/4.5.2/crtbegin.o
 .ARM.attributes
                0x00000075       0x32 applets/built-in.o
 .ARM.attributes
                0x000000a7       0x32 libbb/lib.a(appletlib.o)
 .ARM.attributes
                0x000000d9       0x32 libbb/lib.a(default_error_retval.o)
 .ARM.attributes
                0x0000010b       0x32 libbb/lib.a(get_last_path_component.o)
 .ARM.attributes
                0x0000013d       0x32 libbb/lib.a(last_char_is.o)
 .ARM.attributes
                0x0000016f       0x32 libbb/lib.a(messages.o)
 .ARM.attributes
                0x000001a1       0x32 libbb/lib.a(ptr_to_globals.o)
 .ARM.attributes
                0x000001d3       0x32 libbb/lib.a(verror_msg.o)
 .ARM.attributes
                0x00000205       0x32 libbb/lib.a(xfunc_die.o)
 .ARM.attributes
                0x00000237       0x32 libbb/lib.a(xfuncs.o)
 .ARM.attributes
                0x00000269       0x32 libbb/lib.a(xfuncs_printf.o)
 .ARM.attributes
                0x0000029b       0x32 libbb/lib.a(copyfd.o)
 .ARM.attributes
                0x000002cd       0x32 libbb/lib.a(full_write.o)
 .ARM.attributes
                0x000002ff       0x32 libbb/lib.a(perror_msg.o)
 .ARM.attributes
                0x00000331       0x32 libbb/lib.a(read.o)
 .ARM.attributes
                0x00000363       0x32 libbb/lib.a(safe_write.o)
 .ARM.attributes
                0x00000395       0x32 libbb/lib.a(time.o)
 .ARM.attributes
                0x000003c7       0x32 libbb/lib.a(bb_strtonum.o)
 .ARM.attributes
                0x000003f9       0x32 loginutils/lib.a(addgroup.o)
 .ARM.attributes
                0x0000042b       0x32 loginutils/lib.a(adduser.o)
 .ARM.attributes
                0x0000045d       0x32 loginutils/lib.a(deluser.o)
 .ARM.attributes
                0x0000048f       0x32 loginutils/lib.a(getty.o)
 .ARM.attributes
                0x000004c1       0x32 loginutils/lib.a(login.o)
 .ARM.attributes
                0x000004f3       0x32 loginutils/lib.a(passwd.o)
 .ARM.attributes
                0x00000525       0x32 miscutils/lib.a(crond.o)
 .ARM.attributes
                0x00000557       0x32 miscutils/lib.a(crontab.o)
 .ARM.attributes
                0x00000589       0x32 miscutils/lib.a(hdparm.o)
 .ARM.attributes
                0x000005bb       0x32 miscutils/lib.a(less.o)
 .ARM.attributes
                0x000005ed       0x32 miscutils/lib.a(lock.o)
 .ARM.attributes
                0x0000061f       0x32 miscutils/lib.a(nandwrite.o)
 .ARM.attributes
                0x00000651       0x32 miscutils/lib.a(setserial.o)
 .ARM.attributes
                0x00000683       0x32 miscutils/lib.a(strings.o)
 .ARM.attributes
                0x000006b5       0x32 miscutils/lib.a(taskset.o)
 .ARM.attributes
                0x000006e7       0x32 miscutils/lib.a(time.o)
 .ARM.attributes
                0x00000719       0x32 miscutils/lib.a(ubi_tools.o)
 .ARM.attributes
                0x0000074b       0x32 miscutils/lib.a(watchdog.o)
 .ARM.attributes
                0x0000077d       0x32 modutils/lib.a(depmod.o)
 .ARM.attributes
                0x000007af       0x32 modutils/lib.a(insmod.o)
 .ARM.attributes
                0x000007e1       0x32 modutils/lib.a(lsmod.o)
 .ARM.attributes
                0x00000813       0x32 modutils/lib.a(modprobe.o)
 .ARM.attributes
                0x00000845       0x32 modutils/lib.a(modutils.o)
 .ARM.attributes
                0x00000877       0x32 modutils/lib.a(rmmod.o)
 .ARM.attributes
                0x000008a9       0x32 networking/lib.a(arp.o)
 .ARM.attributes
                0x000008db       0x32 networking/lib.a(arping.o)
 .ARM.attributes
                0x0000090d       0x32 networking/lib.a(ftpd.o)
 .ARM.attributes
                0x0000093f       0x32 networking/lib.a(ftpgetput.o)
 .ARM.attributes
                0x00000971       0x32 networking/lib.a(hostname.o)
 .ARM.attributes
                0x000009a3       0x32 networking/lib.a(httpd.o)
 .ARM.attributes
                0x000009d5       0x32 networking/lib.a(ifconfig.o)
 .ARM.attributes
                0x00000a07       0x32 networking/lib.a(ifupdown.o)
 .ARM.attributes
                0x00000a39       0x32 networking/lib.a(inetd.o)
 .ARM.attributes
                0x00000a6b       0x32 networking/lib.a(interface.o)
 .ARM.attributes
                0x00000a9d       0x32 networking/lib.a(ip.o)
 .ARM.attributes
                0x00000acf       0x32 networking/lib.a(nbd-client.o)
 .ARM.attributes
                0x00000b01       0x32 networking/lib.a(nc.o)
 .ARM.attributes
                0x00000b33       0x32 networking/lib.a(netstat.o)
 .ARM.attributes
                0x00000b65       0x32 networking/lib.a(nslookup.o)
 .ARM.attributes
                0x00000b97       0x32 networking/lib.a(ping.o)
 .ARM.attributes
                0x00000bc9       0x32 networking/lib.a(route.o)
 .ARM.attributes
                0x00000bfb       0x32 networking/lib.a(tcpudp.o)
 .ARM.attributes
                0x00000c2d       0x32 networking/lib.a(tcpudp_perhost.o)
 .ARM.attributes
                0x00000c5f       0x32 networking/lib.a(telnet.o)
 .ARM.attributes
                0x00000c91       0x32 networking/lib.a(telnetd.o)
 .ARM.attributes
                0x00000cc3       0x32 networking/lib.a(tftp.o)
 .ARM.attributes
                0x00000cf5       0x32 networking/lib.a(traceroute.o)
 .ARM.attributes
                0x00000d27       0x32 networking/lib.a(vconfig.o)
 .ARM.attributes
                0x00000d59       0x32 networking/lib.a(wget.o)
 .ARM.attributes
                0x00000d8b       0x32 networking/lib.a(whois.o)
 .ARM.attributes
                0x00000dbd       0x32 networking/libiproute/lib.a(ip_parse_common_args.o)
 .ARM.attributes
                0x00000def       0x32 networking/libiproute/lib.a(ipaddress.o)
 .ARM.attributes
                0x00000e21       0x32 networking/libiproute/lib.a(iplink.o)
 .ARM.attributes
                0x00000e53       0x32 networking/libiproute/lib.a(iproute.o)
 .ARM.attributes
                0x00000e85       0x32 networking/libiproute/lib.a(iprule.o)
 .ARM.attributes
                0x00000eb7       0x32 networking/libiproute/lib.a(iptunnel.o)
 .ARM.attributes
                0x00000ee9       0x32 networking/libiproute/lib.a(libnetlink.o)
 .ARM.attributes
                0x00000f1b       0x32 networking/libiproute/lib.a(ll_addr.o)
 .ARM.attributes
                0x00000f4d       0x32 networking/libiproute/lib.a(ll_map.o)
 .ARM.attributes
                0x00000f7f       0x32 networking/libiproute/lib.a(ll_types.o)
 .ARM.attributes
                0x00000fb1       0x32 networking/libiproute/lib.a(rt_names.o)
 .ARM.attributes
                0x00000fe3       0x32 networking/libiproute/lib.a(rtm_map.o)
 .ARM.attributes
                0x00001015       0x32 networking/libiproute/lib.a(utils.o)
 .ARM.attributes
                0x00001047       0x32 networking/udhcp/lib.a(dhcpc.o)
 .ARM.attributes
                0x00001079       0x32 networking/udhcp/lib.a(dhcpd.o)
 .ARM.attributes
                0x000010ab       0x32 networking/udhcp/lib.a(dhcprelay.o)
 .ARM.attributes
                0x000010dd       0x32 networking/udhcp/lib.a(domain_codec.o)
 .ARM.attributes
                0x0000110f       0x32 networking/udhcp/lib.a(dumpleases.o)
 .ARM.attributes
                0x00001141       0x32 networking/udhcp/lib.a(files.o)
 .ARM.attributes
                0x00001173       0x32 networking/udhcp/lib.a(leases.o)
 .ARM.attributes
                0x000011a5       0x32 networking/udhcp/lib.a(packet.o)
 .ARM.attributes
                0x000011d7       0x32 networking/udhcp/lib.a(signalpipe.o)
 .ARM.attributes
                0x00001209       0x32 networking/udhcp/lib.a(socket.o)
 .ARM.attributes
                0x0000123b       0x32 networking/udhcp/lib.a(static_leases.o)
 .ARM.attributes
                0x0000126d       0x32 networking/udhcp/lib.a(arpping.o)
 .ARM.attributes
                0x0000129f       0x32 networking/udhcp/lib.a(common.o)
 .ARM.attributes
                0x000012d1       0x32 procps/lib.a(free.o)
 .ARM.attributes
                0x00001303       0x32 procps/lib.a(iostat.o)
 .ARM.attributes
                0x00001335       0x32 procps/lib.a(kill.o)
 .ARM.attributes
                0x00001367       0x32 procps/lib.a(lsof.o)
 .ARM.attributes
                0x00001399       0x32 procps/lib.a(mpstat.o)
 .ARM.attributes
                0x000013cb       0x32 procps/lib.a(pgrep.o)
 .ARM.attributes
                0x000013fd       0x32 procps/lib.a(pidof.o)
 .ARM.attributes
                0x0000142f       0x32 procps/lib.a(pmap.o)
 .ARM.attributes
                0x00001461       0x32 procps/lib.a(powertop.o)
 .ARM.attributes
                0x00001493       0x32 procps/lib.a(ps.o)
 .ARM.attributes
                0x000014c5       0x32 procps/lib.a(pstree.o)
 .ARM.attributes
                0x000014f7       0x32 procps/lib.a(pwdx.o)
 .ARM.attributes
                0x00001529       0x32 procps/lib.a(renice.o)
 .ARM.attributes
                0x0000155b       0x32 procps/lib.a(sysctl.o)
 .ARM.attributes
                0x0000158d       0x32 procps/lib.a(top.o)
 .ARM.attributes
                0x000015bf       0x32 procps/lib.a(uptime.o)
 .ARM.attributes
                0x000015f1       0x32 runit/lib.a(svlogd.o)
 .ARM.attributes
                0x00001623       0x32 shell/lib.a(ash.o)
 .ARM.attributes
                0x00001655       0x32 shell/lib.a(ash_ptr_hack.o)
 .ARM.attributes
                0x00001687       0x32 shell/lib.a(math.o)
 .ARM.attributes
                0x000016b9       0x32 shell/lib.a(shell_common.o)
 .ARM.attributes
                0x000016eb       0x32 sysklogd/lib.a(klogd.o)
 .ARM.attributes
                0x0000171d       0x32 sysklogd/lib.a(logread.o)
 .ARM.attributes
                0x0000174f       0x32 sysklogd/lib.a(syslogd_and_logger.o)
 .ARM.attributes
                0x00001781       0x32 util-linux/lib.a(blkid.o)
 .ARM.attributes
                0x000017b3       0x32 util-linux/lib.a(blockdev.o)
 .ARM.attributes
                0x000017e5       0x32 util-linux/lib.a(dmesg.o)
 .ARM.attributes
                0x00001817       0x32 util-linux/lib.a(fdisk.o)
 .ARM.attributes
                0x00001849       0x32 util-linux/lib.a(fstrim.o)
 .ARM.attributes
                0x0000187b       0x32 util-linux/lib.a(getopt.o)
 .ARM.attributes
                0x000018ad       0x32 util-linux/lib.a(hexdump.o)
 .ARM.attributes
                0x000018df       0x32 util-linux/lib.a(hwclock.o)
 .ARM.attributes
                0x00001911       0x32 util-linux/lib.a(lspci.o)
 .ARM.attributes
                0x00001943       0x32 util-linux/lib.a(lsusb.o)
 .ARM.attributes
                0x00001975       0x32 util-linux/lib.a(mkfs_ext2.o)
 .ARM.attributes
                0x000019a7       0x32 util-linux/lib.a(mkfs_minix.o)
 .ARM.attributes
                0x000019d9       0x32 util-linux/lib.a(mkfs_reiser.o)
 .ARM.attributes
                0x00001a0b       0x32 util-linux/lib.a(mkfs_vfat.o)
 .ARM.attributes
                0x00001a3d       0x32 util-linux/lib.a(mkswap.o)
 .ARM.attributes
                0x00001a6f       0x32 util-linux/lib.a(more.o)
 .ARM.attributes
                0x00001aa1       0x32 util-linux/lib.a(mount.o)
 .ARM.attributes
                0x00001ad3       0x32 util-linux/lib.a(pivot_root.o)
 .ARM.attributes
                0x00001b05       0x32 util-linux/lib.a(rdate.o)
 .ARM.attributes
                0x00001b37       0x32 util-linux/lib.a(swaponoff.o)
 .ARM.attributes
                0x00001b69       0x32 util-linux/lib.a(switch_root.o)
 .ARM.attributes
                0x00001b9b       0x32 util-linux/lib.a(umount.o)
 .ARM.attributes
                0x00001bcd       0x32 util-linux/volume_id/lib.a(get_devname.o)
 .ARM.attributes
                0x00001bff       0x32 util-linux/volume_id/lib.a(volume_id.o)
 .ARM.attributes
                0x00001c31       0x32 util-linux/volume_id/lib.a(xfs.o)
 .ARM.attributes
                0x00001c63       0x32 util-linux/volume_id/lib.a(btrfs.o)
 .ARM.attributes
                0x00001c95       0x32 util-linux/volume_id/lib.a(exfat.o)
 .ARM.attributes
                0x00001cc7       0x32 util-linux/volume_id/lib.a(ext.o)
 .ARM.attributes
                0x00001cf9       0x32 util-linux/volume_id/lib.a(f2fs.o)
 .ARM.attributes
                0x00001d2b       0x32 util-linux/volume_id/lib.a(fat.o)
 .ARM.attributes
                0x00001d5d       0x32 util-linux/volume_id/lib.a(hfs.o)
 .ARM.attributes
                0x00001d8f       0x32 util-linux/volume_id/lib.a(iso9660.o)
 .ARM.attributes
                0x00001dc1       0x32 util-linux/volume_id/lib.a(linux_raid.o)
 .ARM.attributes
                0x00001df3       0x32 util-linux/volume_id/lib.a(linux_swap.o)
 .ARM.attributes
                0x00001e25       0x32 util-linux/volume_id/lib.a(nilfs.o)
 .ARM.attributes
                0x00001e57       0x32 util-linux/volume_id/lib.a(ntfs.o)
 .ARM.attributes
                0x00001e89       0x32 util-linux/volume_id/lib.a(reiserfs.o)
 .ARM.attributes
                0x00001ebb       0x32 util-linux/volume_id/lib.a(udf.o)
 .ARM.attributes
                0x00001eed       0x32 util-linux/volume_id/lib.a(util.o)
 .ARM.attributes
                0x00001f1f       0x32 archival/lib.a(bbunzip.o)
 .ARM.attributes
                0x00001f51       0x32 archival/lib.a(gzip.o)
 .ARM.attributes
                0x00001f83       0x32 archival/lib.a(tar.o)
 .ARM.attributes
                0x00001fb5       0x32 archival/libarchive/lib.a(data_extract_all.o)
 .ARM.attributes
                0x00001fe7       0x32 archival/libarchive/lib.a(data_extract_to_stdout.o)
 .ARM.attributes
                0x00002019       0x32 archival/libarchive/lib.a(data_skip.o)
 .ARM.attributes
                0x0000204b       0x32 archival/libarchive/lib.a(decompress_bunzip2.o)
 .ARM.attributes
                0x0000207d       0x32 archival/libarchive/lib.a(decompress_gunzip.o)
 .ARM.attributes
                0x000020af       0x32 archival/libarchive/lib.a(filter_accept_reject_list.o)
 .ARM.attributes
                0x000020e1       0x32 archival/libarchive/lib.a(find_list_entry.o)
 .ARM.attributes
                0x00002113       0x32 archival/libarchive/lib.a(get_header_tar.o)
 .ARM.attributes
                0x00002145       0x32 archival/libarchive/lib.a(header_list.o)
 .ARM.attributes
                0x00002177       0x32 archival/libarchive/lib.a(header_verbose_list.o)
 .ARM.attributes
                0x000021a9       0x32 archival/libarchive/lib.a(init_handle.o)
 .ARM.attributes
                0x000021db       0x32 archival/libarchive/lib.a(open_transformer.o)
 .ARM.attributes
                0x0000220d       0x32 archival/libarchive/lib.a(seek_by_jump.o)
 .ARM.attributes
                0x0000223f       0x32 archival/libarchive/lib.a(seek_by_read.o)
 .ARM.attributes
                0x00002271       0x32 archival/libarchive/lib.a(data_align.o)
 .ARM.attributes
                0x000022a3       0x32 archival/libarchive/lib.a(filter_accept_all.o)
 .ARM.attributes
                0x000022d5       0x32 archival/libarchive/lib.a(header_skip.o)
 .ARM.attributes
                0x00002307       0x32 console-tools/lib.a(clear.o)
 .ARM.attributes
                0x00002339       0x32 console-tools/lib.a(reset.o)
 .ARM.attributes
                0x0000236b       0x32 console-tools/lib.a(resize.o)
 .ARM.attributes
                0x0000239d       0x32 coreutils/lib.a(basename.o)
 .ARM.attributes
                0x000023cf       0x32 coreutils/lib.a(cat.o)
 .ARM.attributes
                0x00002401       0x32 coreutils/lib.a(chgrp.o)
 .ARM.attributes
                0x00002433       0x32 coreutils/lib.a(chmod.o)
 .ARM.attributes
                0x00002465       0x32 coreutils/lib.a(chown.o)
 .ARM.attributes
                0x00002497       0x32 coreutils/lib.a(chroot.o)
 .ARM.attributes
                0x000024c9       0x32 coreutils/lib.a(cp.o)
 .ARM.attributes
                0x000024fb       0x32 coreutils/lib.a(cut.o)
 .ARM.attributes
                0x0000252d       0x32 coreutils/lib.a(date.o)
 .ARM.attributes
                0x0000255f       0x32 coreutils/lib.a(dd.o)
 .ARM.attributes
                0x00002591       0x32 coreutils/lib.a(df.o)
 .ARM.attributes
                0x000025c3       0x32 coreutils/lib.a(dirname.o)
 .ARM.attributes
                0x000025f5       0x32 coreutils/lib.a(du.o)
 .ARM.attributes
                0x00002627       0x32 coreutils/lib.a(echo.o)
 .ARM.attributes
                0x00002659       0x32 coreutils/lib.a(env.o)
 .ARM.attributes
                0x0000268b       0x32 coreutils/lib.a(expr.o)
 .ARM.attributes
                0x000026bd       0x32 coreutils/lib.a(false.o)
 .ARM.attributes
                0x000026ef       0x32 coreutils/lib.a(head.o)
 .ARM.attributes
                0x00002721       0x32 coreutils/lib.a(hostid.o)
 .ARM.attributes
                0x00002753       0x32 coreutils/lib.a(id.o)
 .ARM.attributes
                0x00002785       0x32 coreutils/lib.a(ln.o)
 .ARM.attributes
                0x000027b7       0x32 coreutils/lib.a(ls.o)
 .ARM.attributes
                0x000027e9       0x32 coreutils/lib.a(md5_sha1_sum.o)
 .ARM.attributes
                0x0000281b       0x32 coreutils/lib.a(mkdir.o)
 .ARM.attributes
                0x0000284d       0x32 coreutils/lib.a(mkfifo.o)
 .ARM.attributes
                0x0000287f       0x32 coreutils/lib.a(mknod.o)
 .ARM.attributes
                0x000028b1       0x32 coreutils/lib.a(mv.o)
 .ARM.attributes
                0x000028e3       0x32 coreutils/lib.a(nice.o)
 .ARM.attributes
                0x00002915       0x32 coreutils/lib.a(nohup.o)
 .ARM.attributes
                0x00002947       0x32 coreutils/lib.a(printf.o)
 .ARM.attributes
                0x00002979       0x32 coreutils/lib.a(pwd.o)
 .ARM.attributes
                0x000029ab       0x32 coreutils/lib.a(readlink.o)
 .ARM.attributes
                0x000029dd       0x32 coreutils/lib.a(rm.o)
 .ARM.attributes
                0x00002a0f       0x32 coreutils/lib.a(rmdir.o)
 .ARM.attributes
                0x00002a41       0x32 coreutils/lib.a(seq.o)
 .ARM.attributes
                0x00002a73       0x32 coreutils/lib.a(sleep.o)
 .ARM.attributes
                0x00002aa5       0x32 coreutils/lib.a(sort.o)
 .ARM.attributes
                0x00002ad7       0x32 coreutils/lib.a(stty.o)
 .ARM.attributes
                0x00002b09       0x32 coreutils/lib.a(sync.o)
 .ARM.attributes
                0x00002b3b       0x32 coreutils/lib.a(tail.o)
 .ARM.attributes
                0x00002b6d       0x32 coreutils/lib.a(tee.o)
 .ARM.attributes
                0x00002b9f       0x32 coreutils/lib.a(test.o)
 .ARM.attributes
                0x00002bd1       0x32 coreutils/lib.a(test_ptr_hack.o)
 .ARM.attributes
                0x00002c03       0x32 coreutils/lib.a(touch.o)
 .ARM.attributes
                0x00002c35       0x32 coreutils/lib.a(tr.o)
 .ARM.attributes
                0x00002c67       0x32 coreutils/lib.a(true.o)
 .ARM.attributes
                0x00002c99       0x32 coreutils/lib.a(tty.o)
 .ARM.attributes
                0x00002ccb       0x32 coreutils/lib.a(uname.o)
 .ARM.attributes
                0x00002cfd       0x32 coreutils/lib.a(uniq.o)
 .ARM.attributes
                0x00002d2f       0x32 coreutils/lib.a(usleep.o)
 .ARM.attributes
                0x00002d61       0x32 coreutils/lib.a(uudecode.o)
 .ARM.attributes
                0x00002d93       0x32 coreutils/lib.a(wc.o)
 .ARM.attributes
                0x00002dc5       0x32 coreutils/lib.a(yes.o)
 .ARM.attributes
                0x00002df7       0x32 coreutils/libcoreutils/lib.a(cp_mv_stat.o)
 .ARM.attributes
                0x00002e29       0x32 coreutils/libcoreutils/lib.a(getopt_mk_fifo_nod.o)
 .ARM.attributes
                0x00002e5b       0x32 debianutils/lib.a(mktemp.o)
 .ARM.attributes
                0x00002e8d       0x32 debianutils/lib.a(run_parts.o)
 .ARM.attributes
                0x00002ebf       0x32 debianutils/lib.a(start_stop_daemon.o)
 .ARM.attributes
                0x00002ef1       0x32 debianutils/lib.a(which.o)
 .ARM.attributes
                0x00002f23       0x32 editors/lib.a(awk.o)
 .ARM.attributes
                0x00002f55       0x32 editors/lib.a(cmp.o)
 .ARM.attributes
                0x00002f87       0x32 editors/lib.a(diff.o)
 .ARM.attributes
                0x00002fb9       0x32 editors/lib.a(sed.o)
 .ARM.attributes
                0x00002feb       0x32 editors/lib.a(vi.o)
 .ARM.attributes
                0x0000301d       0x32 findutils/lib.a(find.o)
 .ARM.attributes
                0x0000304f       0x32 findutils/lib.a(grep.o)
 .ARM.attributes
                0x00003081       0x32 findutils/lib.a(xargs.o)
 .ARM.attributes
                0x000030b3       0x32 init/lib.a(halt.o)
 .ARM.attributes
                0x000030e5       0x32 init/lib.a(init.o)
 .ARM.attributes
                0x00003117       0x32 init/lib.a(mesg.o)
 .ARM.attributes
                0x00003149       0x32 libbb/lib.a(ask_confirmation.o)
 .ARM.attributes
                0x0000317b       0x32 libbb/lib.a(bb_askpass.o)
 .ARM.attributes
                0x000031ad       0x32 libbb/lib.a(bb_bswap_64.o)
 .ARM.attributes
                0x000031df       0x32 libbb/lib.a(bb_do_delay.o)
 .ARM.attributes
                0x00003211       0x32 libbb/lib.a(bb_pwd.o)
 .ARM.attributes
                0x00003243       0x32 libbb/lib.a(bb_qsort.o)
 .ARM.attributes
                0x00003275       0x32 libbb/lib.a(change_identity.o)
 .ARM.attributes
                0x000032a7       0x32 libbb/lib.a(compare_string_array.o)
 .ARM.attributes
                0x000032d9       0x32 libbb/lib.a(concat_path_file.o)
 .ARM.attributes
                0x0000330b       0x32 libbb/lib.a(concat_subpath_file.o)
 .ARM.attributes
                0x0000333d       0x32 libbb/lib.a(copy_file.o)
 .ARM.attributes
                0x0000336f       0x32 libbb/lib.a(correct_password.o)
 .ARM.attributes
                0x000033a1       0x32 libbb/lib.a(crc32.o)
 .ARM.attributes
                0x000033d3       0x32 libbb/lib.a(device_open.o)
 .ARM.attributes
                0x00003405       0x32 libbb/lib.a(dump.o)
 .ARM.attributes
                0x00003437       0x32 libbb/lib.a(endofname.o)
 .ARM.attributes
                0x00003469       0x32 libbb/lib.a(execable.o)
 .ARM.attributes
                0x0000349b       0x32 libbb/lib.a(fclose_nonstdin.o)
 .ARM.attributes
                0x000034cd       0x32 libbb/lib.a(fflush_stdout_and_exit.o)
 .ARM.attributes
                0x000034ff       0x32 libbb/lib.a(fgets_str.o)
 .ARM.attributes
                0x00003531       0x32 libbb/lib.a(find_mount_point.o)
 .ARM.attributes
                0x00003563       0x32 libbb/lib.a(find_pid_by_name.o)
 .ARM.attributes
                0x00003595       0x32 libbb/lib.a(find_root_device.o)
 .ARM.attributes
                0x000035c7       0x32 libbb/lib.a(get_cpu_count.o)
 .ARM.attributes
                0x000035f9       0x32 libbb/lib.a(get_line_from_file.o)
 .ARM.attributes
                0x0000362b       0x32 libbb/lib.a(get_shell_name.o)
 .ARM.attributes
                0x0000365d       0x32 libbb/lib.a(get_volsize.o)
 .ARM.attributes
                0x0000368f       0x32 libbb/lib.a(getopt32.o)
 .ARM.attributes
                0x000036c1       0x32 libbb/lib.a(getpty.o)
 .ARM.attributes
                0x000036f3       0x32 libbb/lib.a(hash_md5_sha.o)
 .ARM.attributes
                0x00003725       0x32 libbb/lib.a(herror_msg.o)
 .ARM.attributes
                0x00003757       0x32 libbb/lib.a(human_readable.o)
 .ARM.attributes
                0x00003789       0x32 libbb/lib.a(in_ether.o)
 .ARM.attributes
                0x000037bb       0x32 libbb/lib.a(inet_cksum.o)
 .ARM.attributes
                0x000037ed       0x32 libbb/lib.a(inet_common.o)
 .ARM.attributes
                0x0000381f       0x32 libbb/lib.a(info_msg.o)
 .ARM.attributes
                0x00003851       0x32 libbb/lib.a(inode_hash.o)
 .ARM.attributes
                0x00003883       0x32 libbb/lib.a(isdirectory.o)
 .ARM.attributes
                0x000038b5       0x32 libbb/lib.a(kernel_version.o)
 .ARM.attributes
                0x000038e7       0x32 libbb/lib.a(lineedit.o)
 .ARM.attributes
                0x00003919       0x32 libbb/lib.a(lineedit_ptr_hack.o)
 .ARM.attributes
                0x0000394b       0x32 libbb/lib.a(llist.o)
 .ARM.attributes
                0x0000397d       0x32 libbb/lib.a(login.o)
 .ARM.attributes
                0x000039af       0x32 libbb/lib.a(loop.o)
 .ARM.attributes
                0x000039e1       0x32 libbb/lib.a(make_directory.o)
 .ARM.attributes
                0x00003a13       0x32 libbb/lib.a(makedev.o)
 .ARM.attributes
                0x00003a45       0x32 libbb/lib.a(match_fstype.o)
 .ARM.attributes
                0x00003a77       0x32 libbb/lib.a(mode_string.o)
 .ARM.attributes
                0x00003aa9       0x32 libbb/lib.a(nuke_str.o)
 .ARM.attributes
                0x00003adb       0x32 libbb/lib.a(obscure.o)
 .ARM.attributes
                0x00003b0d       0x32 libbb/lib.a(parse_config.o)
 .ARM.attributes
                0x00003b3f       0x32 libbb/lib.a(parse_mode.o)
 .ARM.attributes
                0x00003b71       0x32 libbb/lib.a(percent_decode.o)
 .ARM.attributes
                0x00003ba3       0x32 libbb/lib.a(perror_nomsg_and_die.o)
 .ARM.attributes
                0x00003bd5       0x32 libbb/lib.a(pidfile.o)
 .ARM.attributes
                0x00003c07       0x32 libbb/lib.a(print_flags.o)
 .ARM.attributes
                0x00003c39       0x32 libbb/lib.a(printable.o)
 .ARM.attributes
                0x00003c6b       0x32 libbb/lib.a(printable_string.o)
 .ARM.attributes
                0x00003c9d       0x32 libbb/lib.a(process_escape_sequence.o)
 .ARM.attributes
                0x00003ccf       0x32 libbb/lib.a(procps.o)
 .ARM.attributes
                0x00003d01       0x32 libbb/lib.a(progress.o)
 .ARM.attributes
                0x00003d33       0x32 libbb/lib.a(pw_encrypt.o)
 .ARM.attributes
                0x00003d65       0x32 libbb/lib.a(read_key.o)
 .ARM.attributes
                0x00003d97       0x32 libbb/lib.a(read_printf.o)
 .ARM.attributes
                0x00003dc9       0x32 libbb/lib.a(recursive_action.o)
 .ARM.attributes
                0x00003dfb       0x32 libbb/lib.a(remove_file.o)
 .ARM.attributes
                0x00003e2d       0x32 libbb/lib.a(rtc.o)
 .ARM.attributes
                0x00003e5f       0x32 libbb/lib.a(run_shell.o)
 .ARM.attributes
                0x00003e91       0x32 libbb/lib.a(safe_gethostname.o)
 .ARM.attributes
                0x00003ec3       0x32 libbb/lib.a(safe_poll.o)
 .ARM.attributes
                0x00003ef5       0x32 libbb/lib.a(safe_strncpy.o)
 .ARM.attributes
                0x00003f27       0x32 libbb/lib.a(setup_environment.o)
 .ARM.attributes
                0x00003f59       0x32 libbb/lib.a(signals.o)
 .ARM.attributes
                0x00003f8b       0x32 libbb/lib.a(simplify_path.o)
 .ARM.attributes
                0x00003fbd       0x32 libbb/lib.a(single_argv.o)
 .ARM.attributes
                0x00003fef       0x32 libbb/lib.a(skip_whitespace.o)
 .ARM.attributes
                0x00004021       0x32 libbb/lib.a(speed_table.o)
 .ARM.attributes
                0x00004053       0x32 libbb/lib.a(str_tolower.o)
 .ARM.attributes
                0x00004085       0x32 libbb/lib.a(strrstr.o)
 .ARM.attributes
                0x000040b7       0x32 libbb/lib.a(systemd_support.o)
 .ARM.attributes
                0x000040e9       0x32 libbb/lib.a(u_signal_names.o)
 .ARM.attributes
                0x0000411b       0x32 libbb/lib.a(udp_io.o)
 .ARM.attributes
                0x0000414d       0x32 libbb/lib.a(update_passwd.o)
 .ARM.attributes
                0x0000417f       0x32 libbb/lib.a(uuencode.o)
 .ARM.attributes
                0x000041b1       0x32 libbb/lib.a(vfork_daemon_rexec.o)
 .ARM.attributes
                0x000041e3       0x32 libbb/lib.a(wfopen.o)
 .ARM.attributes
                0x00004215       0x32 libbb/lib.a(wfopen_input.o)
 .ARM.attributes
                0x00004247       0x32 libbb/lib.a(xatonum.o)
 .ARM.attributes
                0x00004279       0x32 libbb/lib.a(xconnect.o)
 .ARM.attributes
                0x000042ab       0x32 libbb/lib.a(xgetcwd.o)
 .ARM.attributes
                0x000042dd       0x32 libbb/lib.a(xgethostbyname.o)
 .ARM.attributes
                0x0000430f       0x32 libbb/lib.a(xreadlink.o)
 .ARM.attributes
                0x00004341       0x32 libbb/lib.a(xrealloc_vector.o)
 .ARM.attributes
                0x00004373       0x32 libbb/lib.a(xregcomp.o)
 .ARM.attributes
                0x000043a5       0x32 libbb/lib.a(perror_nomsg.o)
 .ARM.attributes
                0x000043d7       0x32 libpwdgrp/lib.a(uidgid_get.o)
 .ARM.attributes
                0x00004409       0x23 /opt/Cortina/toolchain/toolchain-arm_gcc-4.5.1+l_uClibc-0.9.32_eabi/bin/../lib/gcc/arm-openwrt-linux-uclibcgnueabi/4.5.2/libgcc.a(_udivsi3.o)
 .ARM.attributes
                0x0000442c       0x23 /opt/Cortina/toolchain/toolchain-arm_gcc-4.5.1+l_uClibc-0.9.32_eabi/bin/../lib/gcc/arm-openwrt-linux-uclibcgnueabi/4.5.2/libgcc.a(_divsi3.o)
 .ARM.attributes
                0x0000444f       0x23 /opt/Cortina/toolchain/toolchain-arm_gcc-4.5.1+l_uClibc-0.9.32_eabi/bin/../lib/gcc/arm-openwrt-linux-uclibcgnueabi/4.5.2/libgcc.a(_lshrdi3.o)
 .ARM.attributes
                0x00004472       0x23 /opt/Cortina/toolchain/toolchain-arm_gcc-4.5.1+l_uClibc-0.9.32_eabi/bin/../lib/gcc/arm-openwrt-linux-uclibcgnueabi/4.5.2/libgcc.a(_ashrdi3.o)
 .ARM.attributes
                0x00004495       0x23 /opt/Cortina/toolchain/toolchain-arm_gcc-4.5.1+l_uClibc-0.9.32_eabi/bin/../lib/gcc/arm-openwrt-linux-uclibcgnueabi/4.5.2/libgcc.a(_arm_addsubdf3.o)
 .ARM.attributes
                0x000044b8       0x23 /opt/Cortina/toolchain/toolchain-arm_gcc-4.5.1+l_uClibc-0.9.32_eabi/bin/../lib/gcc/arm-openwrt-linux-uclibcgnueabi/4.5.2/libgcc.a(_arm_muldivdf3.o)
 .ARM.attributes
                0x000044db       0x23 /opt/Cortina/toolchain/toolchain-arm_gcc-4.5.1+l_uClibc-0.9.32_eabi/bin/../lib/gcc/arm-openwrt-linux-uclibcgnueabi/4.5.2/libgcc.a(_arm_cmpdf2.o)
 .ARM.attributes
                0x000044fe       0x23 /opt/Cortina/toolchain/toolchain-arm_gcc-4.5.1+l_uClibc-0.9.32_eabi/bin/../lib/gcc/arm-openwrt-linux-uclibcgnueabi/4.5.2/libgcc.a(_arm_fixdfsi.o)
 .ARM.attributes
                0x00004521       0x23 /opt/Cortina/toolchain/toolchain-arm_gcc-4.5.1+l_uClibc-0.9.32_eabi/bin/../lib/gcc/arm-openwrt-linux-uclibcgnueabi/4.5.2/libgcc.a(_arm_fixunsdfsi.o)
 .ARM.attributes
                0x00004544       0x23 /opt/Cortina/toolchain/toolchain-arm_gcc-4.5.1+l_uClibc-0.9.32_eabi/bin/../lib/gcc/arm-openwrt-linux-uclibcgnueabi/4.5.2/libgcc.a(_arm_addsubsf3.o)
 .ARM.attributes
                0x00004567       0x23 /opt/Cortina/toolchain/toolchain-arm_gcc-4.5.1+l_uClibc-0.9.32_eabi/bin/../lib/gcc/arm-openwrt-linux-uclibcgnueabi/4.5.2/libgcc.a(_arm_muldivsf3.o)
 .ARM.attributes
                0x0000458a       0x23 /opt/Cortina/toolchain/toolchain-arm_gcc-4.5.1+l_uClibc-0.9.32_eabi/bin/../lib/gcc/arm-openwrt-linux-uclibcgnueabi/4.5.2/libgcc.a(_aeabi_ldivmod.o)
 .ARM.attributes
                0x000045ad       0x23 /opt/Cortina/toolchain/toolchain-arm_gcc-4.5.1+l_uClibc-0.9.32_eabi/bin/../lib/gcc/arm-openwrt-linux-uclibcgnueabi/4.5.2/libgcc.a(_aeabi_uldivmod.o)
 .ARM.attributes
                0x000045d0       0x23 /opt/Cortina/toolchain/toolchain-arm_gcc-4.5.1+l_uClibc-0.9.32_eabi/bin/../lib/gcc/arm-openwrt-linux-uclibcgnueabi/4.5.2/libgcc.a(_dvmd_lnx.o)
 .ARM.attributes
                0x000045f3       0x33 /opt/Cortina/toolchain/toolchain-arm_gcc-4.5.1+l_uClibc-0.9.32_eabi/bin/../lib/gcc/arm-openwrt-linux-uclibcgnueabi/4.5.2/libgcc.a(bpabi.o)
 .ARM.attributes
                0x00004626       0x33 /opt/Cortina/toolchain/toolchain-arm_gcc-4.5.1+l_uClibc-0.9.32_eabi/bin/../lib/gcc/arm-openwrt-linux-uclibcgnueabi/4.5.2/libgcc.a(_divdi3.o)
 .ARM.attributes
                0x00004659       0x33 /opt/Cortina/toolchain/toolchain-arm_gcc-4.5.1+l_uClibc-0.9.32_eabi/bin/../lib/gcc/arm-openwrt-linux-uclibcgnueabi/4.5.2/libgcc.a(_udivdi3.o)
 .ARM.attributes
                0x0000468c       0x33 /opt/Cortina/toolchain/toolchain-arm_gcc-4.5.1+l_uClibc-0.9.32_eabi/bin/../lib/gcc/arm-openwrt-linux-uclibcgnueabi/4.5.2/../../../../arm-openwrt-linux-uclibcgnueabi/lib/uclibc_nonshared.a(atexit.os)
 .ARM.attributes
                0x000046bf       0x33 /opt/Cortina/toolchain/toolchain-arm_gcc-4.5.1+l_uClibc-0.9.32_eabi/bin/../lib/gcc/arm-openwrt-linux-uclibcgnueabi/4.5.2/crtend.o
 .ARM.attributes
                0x000046f2       0x21 /opt/Cortina/toolchain/toolchain-arm_gcc-4.5.1+l_uClibc-0.9.32_eabi/bin/../lib/gcc/arm-openwrt-linux-uclibcgnueabi/4.5.2/../../../../arm-openwrt-linux-uclibcgnueabi/lib/crtn.o

.comment        0x00000000       0x69
 *(SORT(.comment))
 .comment       0x00000000       0x2e /opt/Cortina/toolchain/toolchain-arm_gcc-4.5.1+l_uClibc-0.9.32_eabi/bin/../lib/gcc/arm-openwrt-linux-uclibcgnueabi/4.5.2/../../../../arm-openwrt-linux-uclibcgnueabi/lib/crti.o
                                 0x2f (size before relaxing)
 .comment       0x0000002e       0x3b /opt/Cortina/toolchain/toolchain-arm_gcc-4.5.1+l_uClibc-0.9.32_eabi/bin/../lib/gcc/arm-openwrt-linux-uclibcgnueabi/4.5.2/crtbegin.o
                                 0x3c (size before relaxing)
 .comment       0x00000000       0x3c applets/built-in.o
 .comment       0x00000000       0x3c libbb/lib.a(appletlib.o)
 .comment       0x00000000       0x3c libbb/lib.a(default_error_retval.o)
 .comment       0x00000000       0x3c libbb/lib.a(get_last_path_component.o)
 .comment       0x00000000       0x3c libbb/lib.a(last_char_is.o)
 .comment       0x00000000       0x3c libbb/lib.a(messages.o)
 .comment       0x00000000       0x3c libbb/lib.a(ptr_to_globals.o)
 .comment       0x00000000       0x3c libbb/lib.a(verror_msg.o)
 .comment       0x00000000       0x3c libbb/lib.a(xfunc_die.o)
 .comment       0x00000000       0x3c libbb/lib.a(xfuncs.o)
 .comment       0x00000000       0x3c libbb/lib.a(xfuncs_printf.o)
 .comment       0x00000000       0x3c libbb/lib.a(copyfd.o)
 .comment       0x00000000       0x3c libbb/lib.a(full_write.o)
 .comment       0x00000000       0x3c libbb/lib.a(perror_msg.o)
 .comment       0x00000000       0x3c libbb/lib.a(read.o)
 .comment       0x00000000       0x3c libbb/lib.a(safe_write.o)
 .comment       0x00000000       0x3c libbb/lib.a(time.o)
 .comment       0x00000000       0x3c libbb/lib.a(bb_strtonum.o)
 .comment       0x00000000       0x3c loginutils/lib.a(addgroup.o)
 .comment       0x00000000       0x3c loginutils/lib.a(adduser.o)
 .comment       0x00000000       0x3c loginutils/lib.a(deluser.o)
 .comment       0x00000000       0x3c loginutils/lib.a(getty.o)
 .comment       0x00000000       0x3c loginutils/lib.a(login.o)
 .comment       0x00000000       0x3c loginutils/lib.a(passwd.o)
 .comment       0x00000000       0x3c miscutils/lib.a(crond.o)
 .comment       0x00000000       0x3c miscutils/lib.a(crontab.o)
 .comment       0x00000000       0x3c miscutils/lib.a(hdparm.o)
 .comment       0x00000000       0x3c miscutils/lib.a(less.o)
 .comment       0x00000000       0x3c miscutils/lib.a(lock.o)
 .comment       0x00000000       0x3c miscutils/lib.a(nandwrite.o)
 .comment       0x00000000       0x3c miscutils/lib.a(setserial.o)
 .comment       0x00000000       0x3c miscutils/lib.a(strings.o)
 .comment       0x00000000       0x3c miscutils/lib.a(taskset.o)
 .comment       0x00000000       0x3c miscutils/lib.a(time.o)
 .comment       0x00000000       0x3c miscutils/lib.a(ubi_tools.o)
 .comment       0x00000000       0x3c miscutils/lib.a(watchdog.o)
 .comment       0x00000000       0x3c modutils/lib.a(depmod.o)
 .comment       0x00000000       0x3c modutils/lib.a(insmod.o)
 .comment       0x00000000       0x3c modutils/lib.a(lsmod.o)
 .comment       0x00000000       0x3c modutils/lib.a(modprobe.o)
 .comment       0x00000000       0x3c modutils/lib.a(modutils.o)
 .comment       0x00000000       0x3c modutils/lib.a(rmmod.o)
 .comment       0x00000000       0x3c networking/lib.a(arp.o)
 .comment       0x00000000       0x3c networking/lib.a(arping.o)
 .comment       0x00000000       0x3c networking/lib.a(ftpd.o)
 .comment       0x00000000       0x3c networking/lib.a(ftpgetput.o)
 .comment       0x00000000       0x3c networking/lib.a(hostname.o)
 .comment       0x00000000       0x3c networking/lib.a(httpd.o)
 .comment       0x00000000       0x3c networking/lib.a(ifconfig.o)
 .comment       0x00000000       0x3c networking/lib.a(ifupdown.o)
 .comment       0x00000000       0x3c networking/lib.a(inetd.o)
 .comment       0x00000000       0x3c networking/lib.a(interface.o)
 .comment       0x00000000       0x3c networking/lib.a(ip.o)
 .comment       0x00000000       0x3c networking/lib.a(nbd-client.o)
 .comment       0x00000000       0x3c networking/lib.a(nc.o)
 .comment       0x00000000       0x3c networking/lib.a(netstat.o)
 .comment       0x00000000       0x3c networking/lib.a(nslookup.o)
 .comment       0x00000000       0x3c networking/lib.a(ping.o)
 .comment       0x00000000       0x3c networking/lib.a(route.o)
 .comment       0x00000000       0x3c networking/lib.a(tcpudp.o)
 .comment       0x00000000       0x3c networking/lib.a(tcpudp_perhost.o)
 .comment       0x00000000       0x3c networking/lib.a(telnet.o)
 .comment       0x00000000       0x3c networking/lib.a(telnetd.o)
 .comment       0x00000000       0x3c networking/lib.a(tftp.o)
 .comment       0x00000000       0x3c networking/lib.a(traceroute.o)
 .comment       0x00000000       0x3c networking/lib.a(vconfig.o)
 .comment       0x00000000       0x3c networking/lib.a(wget.o)
 .comment       0x00000000       0x3c networking/lib.a(whois.o)
 .comment       0x00000000       0x3c networking/libiproute/lib.a(ip_parse_common_args.o)
 .comment       0x00000000       0x3c networking/libiproute/lib.a(ipaddress.o)
 .comment       0x00000000       0x3c networking/libiproute/lib.a(iplink.o)
 .comment       0x00000000       0x3c networking/libiproute/lib.a(iproute.o)
 .comment       0x00000000       0x3c networking/libiproute/lib.a(iprule.o)
 .comment       0x00000000       0x3c networking/libiproute/lib.a(iptunnel.o)
 .comment       0x00000000       0x3c networking/libiproute/lib.a(libnetlink.o)
 .comment       0x00000000       0x3c networking/libiproute/lib.a(ll_addr.o)
 .comment       0x00000000       0x3c networking/libiproute/lib.a(ll_map.o)
 .comment       0x00000000       0x3c networking/libiproute/lib.a(ll_types.o)
 .comment       0x00000000       0x3c networking/libiproute/lib.a(rt_names.o)
 .comment       0x00000000       0x3c networking/libiproute/lib.a(rtm_map.o)
 .comment       0x00000000       0x3c networking/libiproute/lib.a(utils.o)
 .comment       0x00000000       0x3c networking/udhcp/lib.a(dhcpc.o)
 .comment       0x00000000       0x3c networking/udhcp/lib.a(dhcpd.o)
 .comment       0x00000000       0x3c networking/udhcp/lib.a(dhcprelay.o)
 .comment       0x00000000       0x3c networking/udhcp/lib.a(domain_codec.o)
 .comment       0x00000000       0x3c networking/udhcp/lib.a(dumpleases.o)
 .comment       0x00000000       0x3c networking/udhcp/lib.a(files.o)
 .comment       0x00000000       0x3c networking/udhcp/lib.a(leases.o)
 .comment       0x00000000       0x3c networking/udhcp/lib.a(packet.o)
 .comment       0x00000000       0x3c networking/udhcp/lib.a(signalpipe.o)
 .comment       0x00000000       0x3c networking/udhcp/lib.a(socket.o)
 .comment       0x00000000       0x3c networking/udhcp/lib.a(static_leases.o)
 .comment       0x00000000       0x3c networking/udhcp/lib.a(arpping.o)
 .comment       0x00000000       0x3c networking/udhcp/lib.a(common.o)
 .comment       0x00000000       0x3c procps/lib.a(free.o)
 .comment       0x00000000       0x3c procps/lib.a(iostat.o)
 .comment       0x00000000       0x3c procps/lib.a(kill.o)
 .comment       0x00000000       0x3c procps/lib.a(lsof.o)
 .comment       0x00000000       0x3c procps/lib.a(mpstat.o)
 .comment       0x00000000       0x3c procps/lib.a(pgrep.o)
 .comment       0x00000000       0x3c procps/lib.a(pidof.o)
 .comment       0x00000000       0x3c procps/lib.a(pmap.o)
 .comment       0x00000000       0x3c procps/lib.a(powertop.o)
 .comment       0x00000000       0x3c procps/lib.a(ps.o)
 .comment       0x00000000       0x3c procps/lib.a(pstree.o)
 .comment       0x00000000       0x3c procps/lib.a(pwdx.o)
 .comment       0x00000000       0x3c procps/lib.a(renice.o)
 .comment       0x00000000       0x3c procps/lib.a(sysctl.o)
 .comment       0x00000000       0x3c procps/lib.a(top.o)
 .comment       0x00000000       0x3c procps/lib.a(uptime.o)
 .comment       0x00000000       0x3c runit/lib.a(svlogd.o)
 .comment       0x00000000       0x3c shell/lib.a(ash.o)
 .comment       0x00000000       0x3c shell/lib.a(ash_ptr_hack.o)
 .comment       0x00000000       0x3c shell/lib.a(math.o)
 .comment       0x00000000       0x3c shell/lib.a(shell_common.o)
 .comment       0x00000000       0x3c sysklogd/lib.a(klogd.o)
 .comment       0x00000000       0x3c sysklogd/lib.a(logread.o)
 .comment       0x00000000       0x3c sysklogd/lib.a(syslogd_and_logger.o)
 .comment       0x00000000       0x3c util-linux/lib.a(blkid.o)
 .comment       0x00000000       0x3c util-linux/lib.a(blockdev.o)
 .comment       0x00000000       0x3c util-linux/lib.a(dmesg.o)
 .comment       0x00000000       0x3c util-linux/lib.a(fdisk.o)
 .comment       0x00000000       0x3c util-linux/lib.a(fstrim.o)
 .comment       0x00000000       0x3c util-linux/lib.a(getopt.o)
 .comment       0x00000000       0x3c util-linux/lib.a(hexdump.o)
 .comment       0x00000000       0x3c util-linux/lib.a(hwclock.o)
 .comment       0x00000000       0x3c util-linux/lib.a(lspci.o)
 .comment       0x00000000       0x3c util-linux/lib.a(lsusb.o)
 .comment       0x00000000       0x3c util-linux/lib.a(mkfs_ext2.o)
 .comment       0x00000000       0x3c util-linux/lib.a(mkfs_minix.o)
 .comment       0x00000000       0x3c util-linux/lib.a(mkfs_reiser.o)
 .comment       0x00000000       0x3c util-linux/lib.a(mkfs_vfat.o)
 .comment       0x00000000       0x3c util-linux/lib.a(mkswap.o)
 .comment       0x00000000       0x3c util-linux/lib.a(more.o)
 .comment       0x00000000       0x3c util-linux/lib.a(mount.o)
 .comment       0x00000000       0x3c util-linux/lib.a(pivot_root.o)
 .comment       0x00000000       0x3c util-linux/lib.a(rdate.o)
 .comment       0x00000000       0x3c util-linux/lib.a(swaponoff.o)
 .comment       0x00000000       0x3c util-linux/lib.a(switch_root.o)
 .comment       0x00000000       0x3c util-linux/lib.a(umount.o)
 .comment       0x00000000       0x3c util-linux/volume_id/lib.a(get_devname.o)
 .comment       0x00000000       0x3c util-linux/volume_id/lib.a(volume_id.o)
 .comment       0x00000000       0x3c util-linux/volume_id/lib.a(xfs.o)
 .comment       0x00000000       0x3c util-linux/volume_id/lib.a(btrfs.o)
 .comment       0x00000000       0x3c util-linux/volume_id/lib.a(exfat.o)
 .comment       0x00000000       0x3c util-linux/volume_id/lib.a(ext.o)
 .comment       0x00000000       0x3c util-linux/volume_id/lib.a(f2fs.o)
 .comment       0x00000000       0x3c util-linux/volume_id/lib.a(fat.o)
 .comment       0x00000000       0x3c util-linux/volume_id/lib.a(hfs.o)
 .comment       0x00000000       0x3c util-linux/volume_id/lib.a(iso9660.o)
 .comment       0x00000000       0x3c util-linux/volume_id/lib.a(linux_raid.o)
 .comment       0x00000000       0x3c util-linux/volume_id/lib.a(linux_swap.o)
 .comment       0x00000000       0x3c util-linux/volume_id/lib.a(nilfs.o)
 .comment       0x00000000       0x3c util-linux/volume_id/lib.a(ntfs.o)
 .comment       0x00000000       0x3c util-linux/volume_id/lib.a(reiserfs.o)
 .comment       0x00000000       0x3c util-linux/volume_id/lib.a(udf.o)
 .comment       0x00000000       0x3c util-linux/volume_id/lib.a(util.o)
 .comment       0x00000000       0x3c archival/lib.a(bbunzip.o)
 .comment       0x00000000       0x3c archival/lib.a(gzip.o)
 .comment       0x00000000       0x3c archival/lib.a(tar.o)
 .comment       0x00000000       0x3c archival/libarchive/lib.a(data_extract_all.o)
 .comment       0x00000000       0x3c archival/libarchive/lib.a(data_extract_to_stdout.o)
 .comment       0x00000000       0x3c archival/libarchive/lib.a(data_skip.o)
 .comment       0x00000000       0x3c archival/libarchive/lib.a(decompress_bunzip2.o)
 .comment       0x00000000       0x3c archival/libarchive/lib.a(decompress_gunzip.o)
 .comment       0x00000000       0x3c archival/libarchive/lib.a(filter_accept_reject_list.o)
 .comment       0x00000000       0x3c archival/libarchive/lib.a(find_list_entry.o)
 .comment       0x00000000       0x3c archival/libarchive/lib.a(get_header_tar.o)
 .comment       0x00000000       0x3c archival/libarchive/lib.a(header_list.o)
 .comment       0x00000000       0x3c archival/libarchive/lib.a(header_verbose_list.o)
 .comment       0x00000000       0x3c archival/libarchive/lib.a(init_handle.o)
 .comment       0x00000000       0x3c archival/libarchive/lib.a(open_transformer.o)
 .comment       0x00000000       0x3c archival/libarchive/lib.a(seek_by_jump.o)
 .comment       0x00000000       0x3c archival/libarchive/lib.a(seek_by_read.o)
 .comment       0x00000000       0x3c archival/libarchive/lib.a(data_align.o)
 .comment       0x00000000       0x3c archival/libarchive/lib.a(filter_accept_all.o)
 .comment       0x00000000       0x3c archival/libarchive/lib.a(header_skip.o)
 .comment       0x00000000       0x3c console-tools/lib.a(clear.o)
 .comment       0x00000000       0x3c console-tools/lib.a(reset.o)
 .comment       0x00000000       0x3c console-tools/lib.a(resize.o)
 .comment       0x00000000       0x3c coreutils/lib.a(basename.o)
 .comment       0x00000000       0x3c coreutils/lib.a(cat.o)
 .comment       0x00000000       0x3c coreutils/lib.a(chgrp.o)
 .comment       0x00000000       0x3c coreutils/lib.a(chmod.o)
 .comment       0x00000000       0x3c coreutils/lib.a(chown.o)
 .comment       0x00000000       0x3c coreutils/lib.a(chroot.o)
 .comment       0x00000000       0x3c coreutils/lib.a(cp.o)
 .comment       0x00000000       0x3c coreutils/lib.a(cut.o)
 .comment       0x00000000       0x3c coreutils/lib.a(date.o)
 .comment       0x00000000       0x3c coreutils/lib.a(dd.o)
 .comment       0x00000000       0x3c coreutils/lib.a(df.o)
 .comment       0x00000000       0x3c coreutils/lib.a(dirname.o)
 .comment       0x00000000       0x3c coreutils/lib.a(du.o)
 .comment       0x00000000       0x3c coreutils/lib.a(echo.o)
 .comment       0x00000000       0x3c coreutils/lib.a(env.o)
 .comment       0x00000000       0x3c coreutils/lib.a(expr.o)
 .comment       0x00000000       0x3c coreutils/lib.a(false.o)
 .comment       0x00000000       0x3c coreutils/lib.a(head.o)
 .comment       0x00000000       0x3c coreutils/lib.a(hostid.o)
 .comment       0x00000000       0x3c coreutils/lib.a(id.o)
 .comment       0x00000000       0x3c coreutils/lib.a(ln.o)
 .comment       0x00000000       0x3c coreutils/lib.a(ls.o)
 .comment       0x00000000       0x3c coreutils/lib.a(md5_sha1_sum.o)
 .comment       0x00000000       0x3c coreutils/lib.a(mkdir.o)
 .comment       0x00000000       0x3c coreutils/lib.a(mkfifo.o)
 .comment       0x00000000       0x3c coreutils/lib.a(mknod.o)
 .comment       0x00000000       0x3c coreutils/lib.a(mv.o)
 .comment       0x00000000       0x3c coreutils/lib.a(nice.o)
 .comment       0x00000000       0x3c coreutils/lib.a(nohup.o)
 .comment       0x00000000       0x3c coreutils/lib.a(printf.o)
 .comment       0x00000000       0x3c coreutils/lib.a(pwd.o)
 .comment       0x00000000       0x3c coreutils/lib.a(readlink.o)
 .comment       0x00000000       0x3c coreutils/lib.a(rm.o)
 .comment       0x00000000       0x3c coreutils/lib.a(rmdir.o)
 .comment       0x00000000       0x3c coreutils/lib.a(seq.o)
 .comment       0x00000000       0x3c coreutils/lib.a(sleep.o)
 .comment       0x00000000       0x3c coreutils/lib.a(sort.o)
 .comment       0x00000000       0x3c coreutils/lib.a(stty.o)
 .comment       0x00000000       0x3c coreutils/lib.a(sync.o)
 .comment       0x00000000       0x3c coreutils/lib.a(tail.o)
 .comment       0x00000000       0x3c coreutils/lib.a(tee.o)
 .comment       0x00000000       0x3c coreutils/lib.a(test.o)
 .comment       0x00000000       0x3c coreutils/lib.a(test_ptr_hack.o)
 .comment       0x00000000       0x3c coreutils/lib.a(touch.o)
 .comment       0x00000000       0x3c coreutils/lib.a(tr.o)
 .comment       0x00000000       0x3c coreutils/lib.a(true.o)
 .comment       0x00000000       0x3c coreutils/lib.a(tty.o)
 .comment       0x00000000       0x3c coreutils/lib.a(uname.o)
 .comment       0x00000000       0x3c coreutils/lib.a(uniq.o)
 .comment       0x00000000       0x3c coreutils/lib.a(usleep.o)
 .comment       0x00000000       0x3c coreutils/lib.a(uudecode.o)
 .comment       0x00000000       0x3c coreutils/lib.a(wc.o)
 .comment       0x00000000       0x3c coreutils/lib.a(yes.o)
 .comment       0x00000000       0x3c coreutils/libcoreutils/lib.a(cp_mv_stat.o)
 .comment       0x00000000       0x3c coreutils/libcoreutils/lib.a(getopt_mk_fifo_nod.o)
 .comment       0x00000000       0x3c debianutils/lib.a(mktemp.o)
 .comment       0x00000000       0x3c debianutils/lib.a(run_parts.o)
 .comment       0x00000000       0x3c debianutils/lib.a(start_stop_daemon.o)
 .comment       0x00000000       0x3c debianutils/lib.a(which.o)
 .comment       0x00000000       0x3c editors/lib.a(awk.o)
 .comment       0x00000000       0x3c editors/lib.a(cmp.o)
 .comment       0x00000000       0x3c editors/lib.a(diff.o)
 .comment       0x00000000       0x3c editors/lib.a(sed.o)
 .comment       0x00000000       0x3c editors/lib.a(vi.o)
 .comment       0x00000000       0x3c findutils/lib.a(find.o)
 .comment       0x00000000       0x3c findutils/lib.a(grep.o)
 .comment       0x00000000       0x3c findutils/lib.a(xargs.o)
 .comment       0x00000000       0x3c init/lib.a(halt.o)
 .comment       0x00000000       0x3c init/lib.a(init.o)
 .comment       0x00000000       0x3c init/lib.a(mesg.o)
 .comment       0x00000000       0x3c libbb/lib.a(ask_confirmation.o)
 .comment       0x00000000       0x3c libbb/lib.a(bb_askpass.o)
 .comment       0x00000000       0x3c libbb/lib.a(bb_bswap_64.o)
 .comment       0x00000000       0x3c libbb/lib.a(bb_do_delay.o)
 .comment       0x00000000       0x3c libbb/lib.a(bb_pwd.o)
 .comment       0x00000000       0x3c libbb/lib.a(bb_qsort.o)
 .comment       0x00000000       0x3c libbb/lib.a(change_identity.o)
 .comment       0x00000000       0x3c libbb/lib.a(compare_string_array.o)
 .comment       0x00000000       0x3c libbb/lib.a(concat_path_file.o)
 .comment       0x00000000       0x3c libbb/lib.a(concat_subpath_file.o)
 .comment       0x00000000       0x3c libbb/lib.a(copy_file.o)
 .comment       0x00000000       0x3c libbb/lib.a(correct_password.o)
 .comment       0x00000000       0x3c libbb/lib.a(crc32.o)
 .comment       0x00000000       0x3c libbb/lib.a(device_open.o)
 .comment       0x00000000       0x3c libbb/lib.a(dump.o)
 .comment       0x00000000       0x3c libbb/lib.a(endofname.o)
 .comment       0x00000000       0x3c libbb/lib.a(execable.o)
 .comment       0x00000000       0x3c libbb/lib.a(fclose_nonstdin.o)
 .comment       0x00000000       0x3c libbb/lib.a(fflush_stdout_and_exit.o)
 .comment       0x00000000       0x3c libbb/lib.a(fgets_str.o)
 .comment       0x00000000       0x3c libbb/lib.a(find_mount_point.o)
 .comment       0x00000000       0x3c libbb/lib.a(find_pid_by_name.o)
 .comment       0x00000000       0x3c libbb/lib.a(find_root_device.o)
 .comment       0x00000000       0x3c libbb/lib.a(get_cpu_count.o)
 .comment       0x00000000       0x3c libbb/lib.a(get_line_from_file.o)
 .comment       0x00000000       0x3c libbb/lib.a(get_shell_name.o)
 .comment       0x00000000       0x3c libbb/lib.a(get_volsize.o)
 .comment       0x00000000       0x3c libbb/lib.a(getopt32.o)
 .comment       0x00000000       0x3c libbb/lib.a(getpty.o)
 .comment       0x00000000       0x3c libbb/lib.a(hash_md5_sha.o)
 .comment       0x00000000       0x3c libbb/lib.a(herror_msg.o)
 .comment       0x00000000       0x3c libbb/lib.a(human_readable.o)
 .comment       0x00000000       0x3c libbb/lib.a(in_ether.o)
 .comment       0x00000000       0x3c libbb/lib.a(inet_cksum.o)
 .comment       0x00000000       0x3c libbb/lib.a(inet_common.o)
 .comment       0x00000000       0x3c libbb/lib.a(info_msg.o)
 .comment       0x00000000       0x3c libbb/lib.a(inode_hash.o)
 .comment       0x00000000       0x3c libbb/lib.a(isdirectory.o)
 .comment       0x00000000       0x3c libbb/lib.a(kernel_version.o)
 .comment       0x00000000       0x3c libbb/lib.a(lineedit.o)
 .comment       0x00000000       0x3c libbb/lib.a(lineedit_ptr_hack.o)
 .comment       0x00000000       0x3c libbb/lib.a(llist.o)
 .comment       0x00000000       0x3c libbb/lib.a(login.o)
 .comment       0x00000000       0x3c libbb/lib.a(loop.o)
 .comment       0x00000000       0x3c libbb/lib.a(make_directory.o)
 .comment       0x00000000       0x3c libbb/lib.a(makedev.o)
 .comment       0x00000000       0x3c libbb/lib.a(match_fstype.o)
 .comment       0x00000000       0x3c libbb/lib.a(mode_string.o)
 .comment       0x00000000       0x3c libbb/lib.a(nuke_str.o)
 .comment       0x00000000       0x3c libbb/lib.a(obscure.o)
 .comment       0x00000000       0x3c libbb/lib.a(parse_config.o)
 .comment       0x00000000       0x3c libbb/lib.a(parse_mode.o)
 .comment       0x00000000       0x3c libbb/lib.a(percent_decode.o)
 .comment       0x00000000       0x3c libbb/lib.a(perror_nomsg_and_die.o)
 .comment       0x00000000       0x3c libbb/lib.a(pidfile.o)
 .comment       0x00000000       0x3c libbb/lib.a(print_flags.o)
 .comment       0x00000000       0x3c libbb/lib.a(printable.o)
 .comment       0x00000000       0x3c libbb/lib.a(printable_string.o)
 .comment       0x00000000       0x3c libbb/lib.a(process_escape_sequence.o)
 .comment       0x00000000       0x3c libbb/lib.a(procps.o)
 .comment       0x00000000       0x3c libbb/lib.a(progress.o)
 .comment       0x00000000       0x3c libbb/lib.a(pw_encrypt.o)
 .comment       0x00000000       0x3c libbb/lib.a(read_key.o)
 .comment       0x00000000       0x3c libbb/lib.a(read_printf.o)
 .comment       0x00000000       0x3c libbb/lib.a(recursive_action.o)
 .comment       0x00000000       0x3c libbb/lib.a(remove_file.o)
 .comment       0x00000000       0x3c libbb/lib.a(rtc.o)
 .comment       0x00000000       0x3c libbb/lib.a(run_shell.o)
 .comment       0x00000000       0x3c libbb/lib.a(safe_gethostname.o)
 .comment       0x00000000       0x3c libbb/lib.a(safe_poll.o)
 .comment       0x00000000       0x3c libbb/lib.a(safe_strncpy.o)
 .comment       0x00000000       0x3c libbb/lib.a(setup_environment.o)
 .comment       0x00000000       0x3c libbb/lib.a(signals.o)
 .comment       0x00000000       0x3c libbb/lib.a(simplify_path.o)
 .comment       0x00000000       0x3c libbb/lib.a(single_argv.o)
 .comment       0x00000000       0x3c libbb/lib.a(skip_whitespace.o)
 .comment       0x00000000       0x3c libbb/lib.a(speed_table.o)
 .comment       0x00000000       0x3c libbb/lib.a(str_tolower.o)
 .comment       0x00000000       0x3c libbb/lib.a(strrstr.o)
 .comment       0x00000000       0x3c libbb/lib.a(systemd_support.o)
 .comment       0x00000000       0x3c libbb/lib.a(u_signal_names.o)
 .comment       0x00000000       0x3c libbb/lib.a(udp_io.o)
 .comment       0x00000000       0x3c libbb/lib.a(update_passwd.o)
 .comment       0x00000000       0x3c libbb/lib.a(uuencode.o)
 .comment       0x00000000       0x3c libbb/lib.a(vfork_daemon_rexec.o)
 .comment       0x00000000       0x3c libbb/lib.a(wfopen.o)
 .comment       0x00000000       0x3c libbb/lib.a(wfopen_input.o)
 .comment       0x00000000       0x3c libbb/lib.a(xatonum.o)
 .comment       0x00000000       0x3c libbb/lib.a(xconnect.o)
 .comment       0x00000000       0x3c libbb/lib.a(xgetcwd.o)
 .comment       0x00000000       0x3c libbb/lib.a(xgethostbyname.o)
 .comment       0x00000000       0x3c libbb/lib.a(xreadlink.o)
 .comment       0x00000000       0x3c libbb/lib.a(xrealloc_vector.o)
 .comment       0x00000000       0x3c libbb/lib.a(xregcomp.o)
 .comment       0x00000000       0x3c libbb/lib.a(perror_nomsg.o)
 .comment       0x00000000       0x3c libpwdgrp/lib.a(uidgid_get.o)
 .comment       0x00000000       0x3c /opt/Cortina/toolchain/toolchain-arm_gcc-4.5.1+l_uClibc-0.9.32_eabi/bin/../lib/gcc/arm-openwrt-linux-uclibcgnueabi/4.5.2/libgcc.a(bpabi.o)
 .comment       0x00000000       0x3c /opt/Cortina/toolchain/toolchain-arm_gcc-4.5.1+l_uClibc-0.9.32_eabi/bin/../lib/gcc/arm-openwrt-linux-uclibcgnueabi/4.5.2/libgcc.a(_divdi3.o)
 .comment       0x00000000       0x3c /opt/Cortina/toolchain/toolchain-arm_gcc-4.5.1+l_uClibc-0.9.32_eabi/bin/../lib/gcc/arm-openwrt-linux-uclibcgnueabi/4.5.2/libgcc.a(_udivdi3.o)
 .comment       0x00000000       0x3c /opt/Cortina/toolchain/toolchain-arm_gcc-4.5.1+l_uClibc-0.9.32_eabi/bin/../lib/gcc/arm-openwrt-linux-uclibcgnueabi/4.5.2/../../../../arm-openwrt-linux-uclibcgnueabi/lib/uclibc_nonshared.a(atexit.os)
 .comment       0x00000000       0x3c /opt/Cortina/toolchain/toolchain-arm_gcc-4.5.1+l_uClibc-0.9.32_eabi/bin/../lib/gcc/arm-openwrt-linux-uclibcgnueabi/4.5.2/crtend.o
 .comment       0x00000000       0x2f /opt/Cortina/toolchain/toolchain-arm_gcc-4.5.1+l_uClibc-0.9.32_eabi/bin/../lib/gcc/arm-openwrt-linux-uclibcgnueabi/4.5.2/../../../../arm-openwrt-linux-uclibcgnueabi/lib/crtn.o

.debug
 *(SORT(.debug))

.line
 *(SORT(.line))

.debug_srcinfo
 *(SORT(.debug_srcinfo))

.debug_sfnames
 *(SORT(.debug_sfnames))

.debug_aranges  0x00000000      0x220
 *(SORT(.debug_aranges))
 .debug_aranges
                0x00000000       0x20 /opt/Cortina/toolchain/toolchain-arm_gcc-4.5.1+l_uClibc-0.9.32_eabi/bin/../lib/gcc/arm-openwrt-linux-uclibcgnueabi/4.5.2/libgcc.a(_udivsi3.o)
 .debug_aranges
                0x00000020       0x20 /opt/Cortina/toolchain/toolchain-arm_gcc-4.5.1+l_uClibc-0.9.32_eabi/bin/../lib/gcc/arm-openwrt-linux-uclibcgnueabi/4.5.2/libgcc.a(_divsi3.o)
 .debug_aranges
                0x00000040       0x20 /opt/Cortina/toolchain/toolchain-arm_gcc-4.5.1+l_uClibc-0.9.32_eabi/bin/../lib/gcc/arm-openwrt-linux-uclibcgnueabi/4.5.2/libgcc.a(_lshrdi3.o)
 .debug_aranges
                0x00000060       0x20 /opt/Cortina/toolchain/toolchain-arm_gcc-4.5.1+l_uClibc-0.9.32_eabi/bin/../lib/gcc/arm-openwrt-linux-uclibcgnueabi/4.5.2/libgcc.a(_ashrdi3.o)
 .debug_aranges
                0x00000080       0x20 /opt/Cortina/toolchain/toolchain-arm_gcc-4.5.1+l_uClibc-0.9.32_eabi/bin/../lib/gcc/arm-openwrt-linux-uclibcgnueabi/4.5.2/libgcc.a(_arm_addsubdf3.o)
 .debug_aranges
                0x000000a0       0x20 /opt/Cortina/toolchain/toolchain-arm_gcc-4.5.1+l_uClibc-0.9.32_eabi/bin/../lib/gcc/arm-openwrt-linux-uclibcgnueabi/4.5.2/libgcc.a(_arm_muldivdf3.o)
 .debug_aranges
                0x000000c0       0x20 /opt/Cortina/toolchain/toolchain-arm_gcc-4.5.1+l_uClibc-0.9.32_eabi/bin/../lib/gcc/arm-openwrt-linux-uclibcgnueabi/4.5.2/libgcc.a(_arm_cmpdf2.o)
 .debug_aranges
                0x000000e0       0x20 /opt/Cortina/toolchain/toolchain-arm_gcc-4.5.1+l_uClibc-0.9.32_eabi/bin/../lib/gcc/arm-openwrt-linux-uclibcgnueabi/4.5.2/libgcc.a(_arm_fixdfsi.o)
 .debug_aranges
                0x00000100       0x20 /opt/Cortina/toolchain/toolchain-arm_gcc-4.5.1+l_uClibc-0.9.32_eabi/bin/../lib/gcc/arm-openwrt-linux-uclibcgnueabi/4.5.2/libgcc.a(_arm_fixunsdfsi.o)
 .debug_aranges
                0x00000120       0x20 /opt/Cortina/toolchain/toolchain-arm_gcc-4.5.1+l_uClibc-0.9.32_eabi/bin/../lib/gcc/arm-openwrt-linux-uclibcgnueabi/4.5.2/libgcc.a(_arm_addsubsf3.o)
 .debug_aranges
                0x00000140       0x20 /opt/Cortina/toolchain/toolchain-arm_gcc-4.5.1+l_uClibc-0.9.32_eabi/bin/../lib/gcc/arm-openwrt-linux-uclibcgnueabi/4.5.2/libgcc.a(_arm_muldivsf3.o)
 .debug_aranges
                0x00000160       0x20 /opt/Cortina/toolchain/toolchain-arm_gcc-4.5.1+l_uClibc-0.9.32_eabi/bin/../lib/gcc/arm-openwrt-linux-uclibcgnueabi/4.5.2/libgcc.a(_aeabi_ldivmod.o)
 .debug_aranges
                0x00000180       0x20 /opt/Cortina/toolchain/toolchain-arm_gcc-4.5.1+l_uClibc-0.9.32_eabi/bin/../lib/gcc/arm-openwrt-linux-uclibcgnueabi/4.5.2/libgcc.a(_aeabi_uldivmod.o)
 .debug_aranges
                0x000001a0       0x20 /opt/Cortina/toolchain/toolchain-arm_gcc-4.5.1+l_uClibc-0.9.32_eabi/bin/../lib/gcc/arm-openwrt-linux-uclibcgnueabi/4.5.2/libgcc.a(_dvmd_lnx.o)
 .debug_aranges
                0x000001c0       0x20 /opt/Cortina/toolchain/toolchain-arm_gcc-4.5.1+l_uClibc-0.9.32_eabi/bin/../lib/gcc/arm-openwrt-linux-uclibcgnueabi/4.5.2/libgcc.a(bpabi.o)
 .debug_aranges
                0x000001e0       0x20 /opt/Cortina/toolchain/toolchain-arm_gcc-4.5.1+l_uClibc-0.9.32_eabi/bin/../lib/gcc/arm-openwrt-linux-uclibcgnueabi/4.5.2/libgcc.a(_divdi3.o)
 .debug_aranges
                0x00000200       0x20 /opt/Cortina/toolchain/toolchain-arm_gcc-4.5.1+l_uClibc-0.9.32_eabi/bin/../lib/gcc/arm-openwrt-linux-uclibcgnueabi/4.5.2/libgcc.a(_udivdi3.o)

.debug_pubnames
                0x00000000       0x84
 *(SORT(.debug_pubnames))
 .debug_pubnames
                0x00000000       0x45 /opt/Cortina/toolchain/toolchain-arm_gcc-4.5.1+l_uClibc-0.9.32_eabi/bin/../lib/gcc/arm-openwrt-linux-uclibcgnueabi/4.5.2/libgcc.a(bpabi.o)
 .debug_pubnames
                0x00000045       0x1f /opt/Cortina/toolchain/toolchain-arm_gcc-4.5.1+l_uClibc-0.9.32_eabi/bin/../lib/gcc/arm-openwrt-linux-uclibcgnueabi/4.5.2/libgcc.a(_divdi3.o)
 .debug_pubnames
                0x00000064       0x20 /opt/Cortina/toolchain/toolchain-arm_gcc-4.5.1+l_uClibc-0.9.32_eabi/bin/../lib/gcc/arm-openwrt-linux-uclibcgnueabi/4.5.2/libgcc.a(_udivdi3.o)

.debug_info     0x00000000     0x2067
 *(SORT(.debug_info) SORT(.gnu.linkonce.wi.*))
 .debug_info    0x00000000      0x16c /opt/Cortina/toolchain/toolchain-arm_gcc-4.5.1+l_uClibc-0.9.32_eabi/bin/../lib/gcc/arm-openwrt-linux-uclibcgnueabi/4.5.2/libgcc.a(_udivsi3.o)
 .debug_info    0x0000016c      0x16c /opt/Cortina/toolchain/toolchain-arm_gcc-4.5.1+l_uClibc-0.9.32_eabi/bin/../lib/gcc/arm-openwrt-linux-uclibcgnueabi/4.5.2/libgcc.a(_divsi3.o)
 .debug_info    0x000002d8      0x16c /opt/Cortina/toolchain/toolchain-arm_gcc-4.5.1+l_uClibc-0.9.32_eabi/bin/../lib/gcc/arm-openwrt-linux-uclibcgnueabi/4.5.2/libgcc.a(_lshrdi3.o)
 .debug_info    0x00000444      0x16c /opt/Cortina/toolchain/toolchain-arm_gcc-4.5.1+l_uClibc-0.9.32_eabi/bin/../lib/gcc/arm-openwrt-linux-uclibcgnueabi/4.5.2/libgcc.a(_ashrdi3.o)
 .debug_info    0x000005b0      0x16b /opt/Cortina/toolchain/toolchain-arm_gcc-4.5.1+l_uClibc-0.9.32_eabi/bin/../lib/gcc/arm-openwrt-linux-uclibcgnueabi/4.5.2/libgcc.a(_arm_addsubdf3.o)
 .debug_info    0x0000071b      0x16b /opt/Cortina/toolchain/toolchain-arm_gcc-4.5.1+l_uClibc-0.9.32_eabi/bin/../lib/gcc/arm-openwrt-linux-uclibcgnueabi/4.5.2/libgcc.a(_arm_muldivdf3.o)
 .debug_info    0x00000886      0x16b /opt/Cortina/toolchain/toolchain-arm_gcc-4.5.1+l_uClibc-0.9.32_eabi/bin/../lib/gcc/arm-openwrt-linux-uclibcgnueabi/4.5.2/libgcc.a(_arm_cmpdf2.o)
 .debug_info    0x000009f1      0x16b /opt/Cortina/toolchain/toolchain-arm_gcc-4.5.1+l_uClibc-0.9.32_eabi/bin/../lib/gcc/arm-openwrt-linux-uclibcgnueabi/4.5.2/libgcc.a(_arm_fixdfsi.o)
 .debug_info    0x00000b5c      0x16b /opt/Cortina/toolchain/toolchain-arm_gcc-4.5.1+l_uClibc-0.9.32_eabi/bin/../lib/gcc/arm-openwrt-linux-uclibcgnueabi/4.5.2/libgcc.a(_arm_fixunsdfsi.o)
 .debug_info    0x00000cc7      0x16b /opt/Cortina/toolchain/toolchain-arm_gcc-4.5.1+l_uClibc-0.9.32_eabi/bin/../lib/gcc/arm-openwrt-linux-uclibcgnueabi/4.5.2/libgcc.a(_arm_addsubsf3.o)
 .debug_info    0x00000e32      0x16b /opt/Cortina/toolchain/toolchain-arm_gcc-4.5.1+l_uClibc-0.9.32_eabi/bin/../lib/gcc/arm-openwrt-linux-uclibcgnueabi/4.5.2/libgcc.a(_arm_muldivsf3.o)
 .debug_info    0x00000f9d      0x166 /opt/Cortina/toolchain/toolchain-arm_gcc-4.5.1+l_uClibc-0.9.32_eabi/bin/../lib/gcc/arm-openwrt-linux-uclibcgnueabi/4.5.2/libgcc.a(_aeabi_ldivmod.o)
 .debug_info    0x00001103      0x166 /opt/Cortina/toolchain/toolchain-arm_gcc-4.5.1+l_uClibc-0.9.32_eabi/bin/../lib/gcc/arm-openwrt-linux-uclibcgnueabi/4.5.2/libgcc.a(_aeabi_uldivmod.o)
 .debug_info    0x00001269      0x16c /opt/Cortina/toolchain/toolchain-arm_gcc-4.5.1+l_uClibc-0.9.32_eabi/bin/../lib/gcc/arm-openwrt-linux-uclibcgnueabi/4.5.2/libgcc.a(_dvmd_lnx.o)
 .debug_info    0x000013d5       0xec /opt/Cortina/toolchain/toolchain-arm_gcc-4.5.1+l_uClibc-0.9.32_eabi/bin/../lib/gcc/arm-openwrt-linux-uclibcgnueabi/4.5.2/libgcc.a(bpabi.o)
 .debug_info    0x000014c1      0x5f2 /opt/Cortina/toolchain/toolchain-arm_gcc-4.5.1+l_uClibc-0.9.32_eabi/bin/../lib/gcc/arm-openwrt-linux-uclibcgnueabi/4.5.2/libgcc.a(_divdi3.o)
 .debug_info    0x00001ab3      0x5b4 /opt/Cortina/toolchain/toolchain-arm_gcc-4.5.1+l_uClibc-0.9.32_eabi/bin/../lib/gcc/arm-openwrt-linux-uclibcgnueabi/4.5.2/libgcc.a(_udivdi3.o)

.debug_abbrev   0x00000000      0x42b
 *(SORT(.debug_abbrev))
 .debug_abbrev  0x00000000       0x14 /opt/Cortina/toolchain/toolchain-arm_gcc-4.5.1+l_uClibc-0.9.32_eabi/bin/../lib/gcc/arm-openwrt-linux-uclibcgnueabi/4.5.2/libgcc.a(_udivsi3.o)
 .debug_abbrev  0x00000014       0x14 /opt/Cortina/toolchain/toolchain-arm_gcc-4.5.1+l_uClibc-0.9.32_eabi/bin/../lib/gcc/arm-openwrt-linux-uclibcgnueabi/4.5.2/libgcc.a(_divsi3.o)
 .debug_abbrev  0x00000028       0x14 /opt/Cortina/toolchain/toolchain-arm_gcc-4.5.1+l_uClibc-0.9.32_eabi/bin/../lib/gcc/arm-openwrt-linux-uclibcgnueabi/4.5.2/libgcc.a(_lshrdi3.o)
 .debug_abbrev  0x0000003c       0x14 /opt/Cortina/toolchain/toolchain-arm_gcc-4.5.1+l_uClibc-0.9.32_eabi/bin/../lib/gcc/arm-openwrt-linux-uclibcgnueabi/4.5.2/libgcc.a(_ashrdi3.o)
 .debug_abbrev  0x00000050       0x14 /opt/Cortina/toolchain/toolchain-arm_gcc-4.5.1+l_uClibc-0.9.32_eabi/bin/../lib/gcc/arm-openwrt-linux-uclibcgnueabi/4.5.2/libgcc.a(_arm_addsubdf3.o)
 .debug_abbrev  0x00000064       0x14 /opt/Cortina/toolchain/toolchain-arm_gcc-4.5.1+l_uClibc-0.9.32_eabi/bin/../lib/gcc/arm-openwrt-linux-uclibcgnueabi/4.5.2/libgcc.a(_arm_muldivdf3.o)
 .debug_abbrev  0x00000078       0x14 /opt/Cortina/toolchain/toolchain-arm_gcc-4.5.1+l_uClibc-0.9.32_eabi/bin/../lib/gcc/arm-openwrt-linux-uclibcgnueabi/4.5.2/libgcc.a(_arm_cmpdf2.o)
 .debug_abbrev  0x0000008c       0x14 /opt/Cortina/toolchain/toolchain-arm_gcc-4.5.1+l_uClibc-0.9.32_eabi/bin/../lib/gcc/arm-openwrt-linux-uclibcgnueabi/4.5.2/libgcc.a(_arm_fixdfsi.o)
 .debug_abbrev  0x000000a0       0x14 /opt/Cortina/toolchain/toolchain-arm_gcc-4.5.1+l_uClibc-0.9.32_eabi/bin/../lib/gcc/arm-openwrt-linux-uclibcgnueabi/4.5.2/libgcc.a(_arm_fixunsdfsi.o)
 .debug_abbrev  0x000000b4       0x14 /opt/Cortina/toolchain/toolchain-arm_gcc-4.5.1+l_uClibc-0.9.32_eabi/bin/../lib/gcc/arm-openwrt-linux-uclibcgnueabi/4.5.2/libgcc.a(_arm_addsubsf3.o)
 .debug_abbrev  0x000000c8       0x14 /opt/Cortina/toolchain/toolchain-arm_gcc-4.5.1+l_uClibc-0.9.32_eabi/bin/../lib/gcc/arm-openwrt-linux-uclibcgnueabi/4.5.2/libgcc.a(_arm_muldivsf3.o)
 .debug_abbrev  0x000000dc       0x14 /opt/Cortina/toolchain/toolchain-arm_gcc-4.5.1+l_uClibc-0.9.32_eabi/bin/../lib/gcc/arm-openwrt-linux-uclibcgnueabi/4.5.2/libgcc.a(_aeabi_ldivmod.o)
 .debug_abbrev  0x000000f0       0x14 /opt/Cortina/toolchain/toolchain-arm_gcc-4.5.1+l_uClibc-0.9.32_eabi/bin/../lib/gcc/arm-openwrt-linux-uclibcgnueabi/4.5.2/libgcc.a(_aeabi_uldivmod.o)
 .debug_abbrev  0x00000104       0x14 /opt/Cortina/toolchain/toolchain-arm_gcc-4.5.1+l_uClibc-0.9.32_eabi/bin/../lib/gcc/arm-openwrt-linux-uclibcgnueabi/4.5.2/libgcc.a(_dvmd_lnx.o)
 .debug_abbrev  0x00000118       0x6c /opt/Cortina/toolchain/toolchain-arm_gcc-4.5.1+l_uClibc-0.9.32_eabi/bin/../lib/gcc/arm-openwrt-linux-uclibcgnueabi/4.5.2/libgcc.a(bpabi.o)
 .debug_abbrev  0x00000184      0x15b /opt/Cortina/toolchain/toolchain-arm_gcc-4.5.1+l_uClibc-0.9.32_eabi/bin/../lib/gcc/arm-openwrt-linux-uclibcgnueabi/4.5.2/libgcc.a(_divdi3.o)
 .debug_abbrev  0x000002df      0x14c /opt/Cortina/toolchain/toolchain-arm_gcc-4.5.1+l_uClibc-0.9.32_eabi/bin/../lib/gcc/arm-openwrt-linux-uclibcgnueabi/4.5.2/libgcc.a(_udivdi3.o)

.debug_line     0x00000000     0x1417
 *(SORT(.debug_line))
 .debug_line    0x00000000       0xf2 /opt/Cortina/toolchain/toolchain-arm_gcc-4.5.1+l_uClibc-0.9.32_eabi/bin/../lib/gcc/arm-openwrt-linux-uclibcgnueabi/4.5.2/libgcc.a(_udivsi3.o)
 .debug_line    0x000000f2       0xfe /opt/Cortina/toolchain/toolchain-arm_gcc-4.5.1+l_uClibc-0.9.32_eabi/bin/../lib/gcc/arm-openwrt-linux-uclibcgnueabi/4.5.2/libgcc.a(_divsi3.o)
 .debug_line    0x000001f0       0xd5 /opt/Cortina/toolchain/toolchain-arm_gcc-4.5.1+l_uClibc-0.9.32_eabi/bin/../lib/gcc/arm-openwrt-linux-uclibcgnueabi/4.5.2/libgcc.a(_lshrdi3.o)
 .debug_line    0x000002c5       0xd5 /opt/Cortina/toolchain/toolchain-arm_gcc-4.5.1+l_uClibc-0.9.32_eabi/bin/../lib/gcc/arm-openwrt-linux-uclibcgnueabi/4.5.2/libgcc.a(_ashrdi3.o)
 .debug_line    0x0000039a      0x24a /opt/Cortina/toolchain/toolchain-arm_gcc-4.5.1+l_uClibc-0.9.32_eabi/bin/../lib/gcc/arm-openwrt-linux-uclibcgnueabi/4.5.2/libgcc.a(_arm_addsubdf3.o)
 .debug_line    0x000005e4      0x26b /opt/Cortina/toolchain/toolchain-arm_gcc-4.5.1+l_uClibc-0.9.32_eabi/bin/../lib/gcc/arm-openwrt-linux-uclibcgnueabi/4.5.2/libgcc.a(_arm_muldivdf3.o)
 .debug_line    0x0000084f      0x162 /opt/Cortina/toolchain/toolchain-arm_gcc-4.5.1+l_uClibc-0.9.32_eabi/bin/../lib/gcc/arm-openwrt-linux-uclibcgnueabi/4.5.2/libgcc.a(_arm_cmpdf2.o)
 .debug_line    0x000009b1       0xe4 /opt/Cortina/toolchain/toolchain-arm_gcc-4.5.1+l_uClibc-0.9.32_eabi/bin/../lib/gcc/arm-openwrt-linux-uclibcgnueabi/4.5.2/libgcc.a(_arm_fixdfsi.o)
 .debug_line    0x00000a95       0xe2 /opt/Cortina/toolchain/toolchain-arm_gcc-4.5.1+l_uClibc-0.9.32_eabi/bin/../lib/gcc/arm-openwrt-linux-uclibcgnueabi/4.5.2/libgcc.a(_arm_fixunsdfsi.o)
 .debug_line    0x00000b77      0x16e /opt/Cortina/toolchain/toolchain-arm_gcc-4.5.1+l_uClibc-0.9.32_eabi/bin/../lib/gcc/arm-openwrt-linux-uclibcgnueabi/4.5.2/libgcc.a(_arm_addsubsf3.o)
 .debug_line    0x00000ce5      0x18f /opt/Cortina/toolchain/toolchain-arm_gcc-4.5.1+l_uClibc-0.9.32_eabi/bin/../lib/gcc/arm-openwrt-linux-uclibcgnueabi/4.5.2/libgcc.a(_arm_muldivsf3.o)
 .debug_line    0x00000e74       0xd0 /opt/Cortina/toolchain/toolchain-arm_gcc-4.5.1+l_uClibc-0.9.32_eabi/bin/../lib/gcc/arm-openwrt-linux-uclibcgnueabi/4.5.2/libgcc.a(_aeabi_ldivmod.o)
 .debug_line    0x00000f44       0xd2 /opt/Cortina/toolchain/toolchain-arm_gcc-4.5.1+l_uClibc-0.9.32_eabi/bin/../lib/gcc/arm-openwrt-linux-uclibcgnueabi/4.5.2/libgcc.a(_aeabi_uldivmod.o)
 .debug_line    0x00001016       0xd5 /opt/Cortina/toolchain/toolchain-arm_gcc-4.5.1+l_uClibc-0.9.32_eabi/bin/../lib/gcc/arm-openwrt-linux-uclibcgnueabi/4.5.2/libgcc.a(_dvmd_lnx.o)
 .debug_line    0x000010eb       0xcf /opt/Cortina/toolchain/toolchain-arm_gcc-4.5.1+l_uClibc-0.9.32_eabi/bin/../lib/gcc/arm-openwrt-linux-uclibcgnueabi/4.5.2/libgcc.a(bpabi.o)
 .debug_line    0x000011ba      0x134 /opt/Cortina/toolchain/toolchain-arm_gcc-4.5.1+l_uClibc-0.9.32_eabi/bin/../lib/gcc/arm-openwrt-linux-uclibcgnueabi/4.5.2/libgcc.a(_divdi3.o)
 .debug_line    0x000012ee      0x129 /opt/Cortina/toolchain/toolchain-arm_gcc-4.5.1+l_uClibc-0.9.32_eabi/bin/../lib/gcc/arm-openwrt-linux-uclibcgnueabi/4.5.2/libgcc.a(_udivdi3.o)

.debug_frame    0x00000000      0x110
 *(SORT(.debug_frame))
 .debug_frame   0x00000000       0x20 /opt/Cortina/toolchain/toolchain-arm_gcc-4.5.1+l_uClibc-0.9.32_eabi/bin/../lib/gcc/arm-openwrt-linux-uclibcgnueabi/4.5.2/libgcc.a(_udivsi3.o)
 .debug_frame   0x00000020       0x20 /opt/Cortina/toolchain/toolchain-arm_gcc-4.5.1+l_uClibc-0.9.32_eabi/bin/../lib/gcc/arm-openwrt-linux-uclibcgnueabi/4.5.2/libgcc.a(_divsi3.o)
 .debug_frame   0x00000040       0x58 /opt/Cortina/toolchain/toolchain-arm_gcc-4.5.1+l_uClibc-0.9.32_eabi/bin/../lib/gcc/arm-openwrt-linux-uclibcgnueabi/4.5.2/libgcc.a(bpabi.o)
 .debug_frame   0x00000098       0x3c /opt/Cortina/toolchain/toolchain-arm_gcc-4.5.1+l_uClibc-0.9.32_eabi/bin/../lib/gcc/arm-openwrt-linux-uclibcgnueabi/4.5.2/libgcc.a(_divdi3.o)
 .debug_frame   0x000000d4       0x3c /opt/Cortina/toolchain/toolchain-arm_gcc-4.5.1+l_uClibc-0.9.32_eabi/bin/../lib/gcc/arm-openwrt-linux-uclibcgnueabi/4.5.2/libgcc.a(_udivdi3.o)

.debug_str      0x00000000      0x322
 *(SORT(.debug_str))
 .debug_str     0x00000000      0x132 /opt/Cortina/toolchain/toolchain-arm_gcc-4.5.1+l_uClibc-0.9.32_eabi/bin/../lib/gcc/arm-openwrt-linux-uclibcgnueabi/4.5.2/libgcc.a(bpabi.o)
 .debug_str     0x00000132      0x1e6 /opt/Cortina/toolchain/toolchain-arm_gcc-4.5.1+l_uClibc-0.9.32_eabi/bin/../lib/gcc/arm-openwrt-linux-uclibcgnueabi/4.5.2/libgcc.a(_divdi3.o)
                                0x28c (size before relaxing)
 .debug_str     0x00000318        0xa /opt/Cortina/toolchain/toolchain-arm_gcc-4.5.1+l_uClibc-0.9.32_eabi/bin/../lib/gcc/arm-openwrt-linux-uclibcgnueabi/4.5.2/libgcc.a(_udivdi3.o)
                                0x28d (size before relaxing)

.debug_loc      0x00000000     0x14cf
 *(SORT(.debug_loc))
 .debug_loc     0x00000000       0xdc /opt/Cortina/toolchain/toolchain-arm_gcc-4.5.1+l_uClibc-0.9.32_eabi/bin/../lib/gcc/arm-openwrt-linux-uclibcgnueabi/4.5.2/libgcc.a(bpabi.o)
 .debug_loc     0x000000dc      0xa30 /opt/Cortina/toolchain/toolchain-arm_gcc-4.5.1+l_uClibc-0.9.32_eabi/bin/../lib/gcc/arm-openwrt-linux-uclibcgnueabi/4.5.2/libgcc.a(_divdi3.o)
 .debug_loc     0x00000b0c      0x9c3 /opt/Cortina/toolchain/toolchain-arm_gcc-4.5.1+l_uClibc-0.9.32_eabi/bin/../lib/gcc/arm-openwrt-linux-uclibcgnueabi/4.5.2/libgcc.a(_udivdi3.o)

.debug_macinfo
 *(SORT(.debug_macinfo))

.debug_weaknames
 *(SORT(.debug_weaknames))

.debug_funcnames
 *(SORT(.debug_funcnames))

.debug_typenames
 *(SORT(.debug_typenames))

.debug_varnames
 *(SORT(.debug_varnames))

.debug_pubtypes
                0x00000000       0xb2
 *(SORT(.debug_pubtypes))
 .debug_pubtypes
                0x00000000       0x59 /opt/Cortina/toolchain/toolchain-arm_gcc-4.5.1+l_uClibc-0.9.32_eabi/bin/../lib/gcc/arm-openwrt-linux-uclibcgnueabi/4.5.2/libgcc.a(_divdi3.o)
 .debug_pubtypes
                0x00000059       0x59 /opt/Cortina/toolchain/toolchain-arm_gcc-4.5.1+l_uClibc-0.9.32_eabi/bin/../lib/gcc/arm-openwrt-linux-uclibcgnueabi/4.5.2/libgcc.a(_udivdi3.o)

.debug_ranges
 *(SORT(.debug_ranges))

.gnu.attributes
 *(SORT(.gnu.attributes))

.note.gnu.arm.ident
 *(SORT(.note.gnu.arm.ident))

/DISCARD/
 *(SORT(.note.GNU-stack))
 *(SORT(.gnu_debuglink))
 *(SORT(.gnu.lto_*))
OUTPUT(busybox_unstripped elf32-littlearm)
