Archive member included because of file (symbol)

lib_arm/libarm.a(board.o)     cpu/arm_cortexa9/start.o (start_armboot)
lib_arm/libarm.a(interrupts.o)
                              lib_arm/libarm.a(board.o) (enable_interrupts)
net/libnet.a(eth.o)           lib_arm/libarm.a(board.o) (eth_initialize)
net/libnet.a(net.o)           lib_arm/libarm.a(board.o) (copy_filename)
net/libnet.a(rarp.o)          net/libnet.a(net.o) (RarpRequest)
net/libnet.a(tftp.o)          net/libnet.a(net.o) (TftpStart)
net/libnet.a(bootp.o)         net/libnet.a(net.o) (BootpRequest)
drivers/mtd/nand/libnand.a(cs75xx_nand.o)
                              lib_arm/libarm.a(board.o) (cs75xx_nand_init)
drivers/mtd/nand/libnand.a(nand.o)
                              drivers/mtd/nand/libnand.a(cs75xx_nand.o) (nand_curr_device)
drivers/mtd/nand/libnand.a(nand_bbt.o)
                              drivers/mtd/nand/libnand.a(cs75xx_nand.o) (nand_update_bbt)
drivers/mtd/nand/libnand.a(nand_ids.o)
                              drivers/mtd/nand/libnand.a(cs75xx_nand.o) (nand_flash_ids)
drivers/net/libnet.a(g2_ni_mfe.o)
                              (__u_boot_cmd_phy_reg)
drivers/serial/libserial.a(serial_cs752x.o)
                              lib_arm/libarm.a(board.o) (serial_init)
common/libcommon.a(cmd_bdinfo.o)
                              (__u_boot_cmd_bdinfo)
common/libcommon.a(cmd_boot.o)
                              (__u_boot_cmd_go)
common/libcommon.a(cmd_bootm.o)
                              lib_arm/libarm.a(board.o) (load_addr)
common/libcommon.a(cmd_load.o)
                              (__u_boot_cmd_loadb)
common/libcommon.a(cmd_mem.o)
                              (__u_boot_cmd_md)
common/libcommon.a(cmd_nand.o)
                              (__u_boot_cmd_nand)
common/libcommon.a(cmd_net.o)
                              (__u_boot_cmd_bootp)
common/libcommon.a(cmd_nvedit.o)
                              net/libnet.a(eth.o) (get_env_id)
common/libcommon.a(cmd_recovery.o)
                              (__u_boot_cmd_recovery)
common/libcommon.a(command.o)
                              common/libcommon.a(cmd_bootm.o) (find_cmd_tbl)
common/libcommon.a(console.o)
                              lib_arm/libarm.a(board.o) (printf)
common/libcommon.a(dlmalloc.o)
                              lib_arm/libarm.a(board.o) (mem_malloc_init)
common/libcommon.a(env_common.o)
                              common/libcommon.a(cmd_nvedit.o) (env_crc_update)
common/libcommon.a(env_nand.o)
                              common/libcommon.a(env_common.o) (env_get_char_spec)
common/libcommon.a(exports.o)
                              lib_arm/libarm.a(board.o) (jumptable_init)
common/libcommon.a(image.o)   common/libcommon.a(cmd_bootm.o) (image_check_hcrc)
common/libcommon.a(main.o)    common/libcommon.a(cmd_mem.o) (readline)
common/libcommon.a(stdio.o)   common/libcommon.a(console.o) (stdio_get_list)
common/libcommon.a(xyzModem.o)
                              common/libcommon.a(cmd_load.o) (xyzModem_stream_open)
drivers/net/rtl83xx-1.3.0/librtl83xx.a(rtl83xx_main.o)
                              drivers/net/libnet.a(g2_ni_mfe.o) (rtl83xx_init)
drivers/net/rtl83xx-1.3.0/librtl83xx.a(rtk_api.o)
                              drivers/net/rtl83xx-1.3.0/librtl83xx.a(rtl83xx_main.o) (rtk_port_macForceLinkExt0_set)
drivers/net/rtl83xx-1.3.0/librtl83xx.a(rtl8370_asicdrv.o)
                              drivers/net/rtl83xx-1.3.0/librtl83xx.a(rtk_api.o) (rtl8370_setAsicRegBit)
drivers/net/rtl83xx-1.3.0/librtl83xx.a(rtl8370_asicdrv_port.o)
                              drivers/net/rtl83xx-1.3.0/librtl83xx.a(rtk_api.o) (rtl8370_setAsicPortForceLink)
drivers/net/rtl83xx-1.3.0/librtl83xx.a(rtl8370_asicdrv_phy.o)
                              drivers/net/rtl83xx-1.3.0/librtl83xx.a(rtk_api.o) (rtl8370_setAsicPHYReg)
drivers/net/rtl83xx-1.3.0/librtl83xx.a(rtl8370_asicdrv_lut.o)
                              drivers/net/rtl83xx-1.3.0/librtl83xx.a(rtk_api.o) (rtl8370_setAsicLutLearnLimitNo)
drivers/net/rtl83xx-1.3.0/librtl83xx.a(smi.o)
                              drivers/net/rtl83xx-1.3.0/librtl83xx.a(rtl83xx_main.o) (smi_read)
board/futuretek/ftm-100s/libftm-100s.a(ftm_100s.o)
                              drivers/serial/libserial.a(serial_cs752x.o) (get_platform_clk)
board/futuretek/ftm-100s/libftm-100s.a(watchdog.o)
                              board/futuretek/ftm-100s/libftm-100s.a(ftm_100s.o) (g2_wdt_set_heartbeat)
board/futuretek/ftm-100s/libftm-100s.a(lowlevel_init.o)
                              cpu/arm_cortexa9/start.o (lowlevel_init)
board/futuretek/ftm-100s/libftm-100s.a(cmd_ftm_100s.o)
                              (__u_boot_cmd_sb_display)
board/futuretek/ftm-100s/libftm-100s.a(csmi_uboot_cmds.o)
                              board/futuretek/ftm-100s/libftm-100s.a(cmd_ftm_100s.o) (csmi_uboot_cmds_initialize)
board/futuretek/ftm-100s/libftm-100s.a(csmi_user.o)
                              board/futuretek/ftm-100s/libftm-100s.a(csmi_uboot_cmds.o) (csmi_sb_freeup)
lib_generic/libgeneric.a(crc16.o)
                              common/libcommon.a(xyzModem.o) (cyg_crc16)
lib_generic/libgeneric.a(crc32.o)
                              common/libcommon.a(cmd_mem.o) (crc32)
lib_generic/libgeneric.a(display_options.o)
                              lib_arm/libarm.a(board.o) (print_size)
lib_generic/libgeneric.a(gunzip.o)
                              common/libcommon.a(cmd_bootm.o) (gunzip)
lib_generic/libgeneric.a(lmb.o)
                              common/libcommon.a(cmd_bootm.o) (lmb_init)
lib_generic/libgeneric.a(md5.o)
                              board/futuretek/ftm-100s/libftm-100s.a(csmi_user.o) (md5)
lib_generic/libgeneric.a(string.o)
                              net/libnet.a(net.o) (strcpy)
lib_generic/libgeneric.a(vsprintf.o)
                              lib_arm/libarm.a(board.o) (simple_strtoul)
lib_generic/libgeneric.a(zlib.o)
                              lib_generic/libgeneric.a(gunzip.o) (inflateInit2_)
lib_generic/libgeneric.a(ctype.o)
                              lib_generic/libgeneric.a(display_options.o) (_ctype)
cpu/arm_cortexa9/libarm_cortexa9.a(cpu.o)
                              common/libcommon.a(cmd_boot.o) (do_reset)
cpu/arm_cortexa9/goldengate/libgoldengate.a(timer.o)
                              drivers/mtd/nand/libnand.a(cs75xx_nand.o) (udelay)
lib_arm/libarm.a(bootm.o)     common/libcommon.a(cmd_bootm.o) (do_bootm_linux)
lib_arm/libarm.a(cache.o)     common/libcommon.a(cmd_load.o) (flush_cache)
lib_arm/libarm.a(cache-cp15.o)
                              board/futuretek/ftm-100s/libftm-100s.a(ftm_100s.o) (icache_enable)
drivers/mtd/nand/libnand.a(nand_util.o)
                              common/libcommon.a(cmd_nand.o) (nand_erase_opts)
lib_generic/libgeneric.a(div64.o)
                              drivers/mtd/nand/libnand.a(nand_util.o) (__div64_32)
/opt/Cortina/toolchain/toolchain-arm_gcc-4.5.1+l_uClibc-0.9.32_eabi/bin/../lib/gcc/arm-openwrt-linux-uclibcgnueabi/4.5.2/libgcc.a(_udivsi3.o)
                              net/libnet.a(bootp.o) (__aeabi_uidiv)
/opt/Cortina/toolchain/toolchain-arm_gcc-4.5.1+l_uClibc-0.9.32_eabi/bin/../lib/gcc/arm-openwrt-linux-uclibcgnueabi/4.5.2/libgcc.a(_divsi3.o)
                              drivers/mtd/nand/libnand.a(cs75xx_nand.o) (__aeabi_idiv)
/opt/Cortina/toolchain/toolchain-arm_gcc-4.5.1+l_uClibc-0.9.32_eabi/bin/../lib/gcc/arm-openwrt-linux-uclibcgnueabi/4.5.2/libgcc.a(_lshrdi3.o)
                              drivers/mtd/nand/libnand.a(cs75xx_nand.o) (__aeabi_llsr)
/opt/Cortina/toolchain/toolchain-arm_gcc-4.5.1+l_uClibc-0.9.32_eabi/bin/../lib/gcc/arm-openwrt-linux-uclibcgnueabi/4.5.2/libgcc.a(_ashrdi3.o)
                              drivers/mtd/nand/libnand.a(cs75xx_nand.o) (__aeabi_lasr)
/opt/Cortina/toolchain/toolchain-arm_gcc-4.5.1+l_uClibc-0.9.32_eabi/bin/../lib/gcc/arm-openwrt-linux-uclibcgnueabi/4.5.2/libgcc.a(_ashldi3.o)
                              drivers/mtd/nand/libnand.a(cs75xx_nand.o) (__aeabi_llsl)
/opt/Cortina/toolchain/toolchain-arm_gcc-4.5.1+l_uClibc-0.9.32_eabi/bin/../lib/gcc/arm-openwrt-linux-uclibcgnueabi/4.5.2/libgcc.a(_dvmd_lnx.o)
                              /opt/Cortina/toolchain/toolchain-arm_gcc-4.5.1+l_uClibc-0.9.32_eabi/bin/../lib/gcc/arm-openwrt-linux-uclibcgnueabi/4.5.2/libgcc.a(_udivsi3.o) (__aeabi_idiv0)

Memory Configuration

Name             Origin             Length             Attributes
*default*        0x00000000         0xffffffff

Linker script and memory map

                0x04000000                . = 0x4000000
                0x04000000                . = ALIGN (0x4)

.text           0x04000000    0x1cda0
 cpu/arm_cortexa9/start.o(.text)
 .text          0x04000000      0x460 cpu/arm_cortexa9/start.o
                0x04000000                _start
                0x04000040                _end_vect
                0x04000044                _armboot_start
                0x04000048                _bss_start
                0x0400004c                _bss_end
 *(.text)
 .text          0x04000460      0x234 lib_arm/libarm.a(board.o)
                0x0400050c                coloured_LED_init
                0x0400050c                __coloured_LED_init
                0x04000510                red_LED_on
                0x04000510                __red_LED_on
                0x04000514                __red_LED_off
                0x04000514                red_LED_off
                0x04000518                green_LED_on
                0x04000518                __green_LED_on
                0x0400051c                __green_LED_off
                0x0400051c                green_LED_off
                0x04000520                __yellow_LED_on
                0x04000520                yellow_LED_on
                0x04000524                __yellow_LED_off
                0x04000524                yellow_LED_off
                0x04000528                blue_LED_on
                0x04000528                __blue_LED_on
                0x0400052c                blue_LED_off
                0x0400052c                __blue_LED_off
                0x04000530                hang
                0x04000544                start_armboot
 .text          0x04000694      0x264 lib_arm/libarm.a(interrupts.o)
                0x04000694                enable_interrupts
                0x04000698                disable_interrupts
                0x040006a0                bad_mode
                0x040006bc                show_regs
                0x040007fc                do_undefined_instruction
                0x04000820                do_software_interrupt
                0x04000844                do_prefetch_abort
                0x04000868                do_data_abort
                0x0400088c                do_not_used
                0x040008b0                do_fiq
                0x040008d4                do_irq
 .text          0x040008f8      0x758 net/libnet.a(eth.o)
                0x040008f8                eth_parse_enetaddr
                0x0400094c                eth_getenv_enetaddr
                0x040009a8                eth_setenv_enetaddr
                0x040009dc                eth_getenv_enetaddr_by_index
                0x04000a20                cpu_eth_init
                0x04000a28                eth_get_dev
                0x04000a38                eth_get_dev_by_name
                0x04000a8c                eth_get_dev_by_index
                0x04000ad8                eth_get_dev_index
                0x04000b28                eth_register
                0x04000bb0                eth_initialize
                0x04000d94                eth_halt
                0x04000dc4                eth_send
                0x04000dfc                eth_rx
                0x04000e28                eth_try_another
                0x04000ed0                eth_init
                0x04000f94                eth_set_current
                0x04001030                eth_get_name
 .text          0x04001050     0x12ec net/libnet.a(net.o)
                0x040010d8                NetSetHandler
                0x040010e8                NetSetTimeout
                0x04001118                NetStartAgain
                0x04001220                NetSendPacket
                0x04001224                NetCksum
                0x04001258                NetCksumOk
                0x04001278                NetEthHdrSize
                0x040012b4                NetSetEther
                0x04001358                NetReceive
                0x040018f8                ArpRequest
                0x040019f0                ArpTimeoutCheck
                0x04001a60                PingSend
                0x04001b88                NetSetIP
                0x04001c80                NetSendUDPPacket
                0x04001db8                copy_filename
                0x04001dfc                ip_to_string
                0x04001e38                string_to_ip
                0x04001ea0                VLAN_to_string
                0x04001eec                string_to_VLAN
                0x04001f38                getenv_IPaddr
                0x04001f48                getenv_VLAN
                0x04001f58                NetLoop
 .text          0x0400233c      0x170 net/libnet.a(rarp.o)
                0x0400237c                RarpRequest
 .text          0x040024ac      0x71c net/libnet.a(tftp.o)
                0x04002938                TftpStart
 .text          0x04002bc8      0x604 net/libnet.a(bootp.o)
                0x04002f94                BootpRequest
 .text          0x040031cc     0x4d50 drivers/mtd/nand/libnand.a(cs75xx_nand.o)
                0x0400325c                cs75xx_nand_enable_hwecc
                0x04006d78                cs75xx_nand_erase_nand
                0x04007318                board_nand_init
                0x04007430                cs75xx_nand_scan_tail
                0x040077bc                cs75xx_nand_scan_ident
                0x04007c88                cs75xx_nand_scan
                0x04007ca8                cs75xx_nand_init
 .text          0x04007f1c        0x0 drivers/mtd/nand/libnand.a(nand.o)
 .text          0x04007f1c     0x16dc drivers/mtd/nand/libnand.a(nand_bbt.o)
                0x04008da4                nand_update_bbt
                0x04009064                nand_scan_bbt
                0x040094f0                nand_default_bbt
                0x040095a4                nand_isbad_bbt
 .text          0x040095f8        0x0 drivers/mtd/nand/libnand.a(nand_ids.o)
 .text          0x040095f8      0xb60 drivers/net/libnet.a(g2_ni_mfe.o)
                0x040095f8                g2_ni_halt
                0x040095fc                g2_ni_init
                0x040098d4                g2_ni_recv
                0x040099fc                reg_read
                0x04009a04                reg_write
                0x04009a0c                g2_ni_reset
                0x04009a6c                g2_phy_write
                0x04009b10                g2_phy_read
                0x04009bb0                do_phy_test
                0x04009cfc                do_phy_reg
                0x04009e44                g2_phy_disable
                0x04009eac                g2_eth_initialize
 .text          0x0400a158      0x1b8 drivers/serial/libserial.a(serial_cs752x.o)
                0x0400a188                serial_init
                0x0400a200                serial_putc
                0x0400a224                serial_puts
                0x0400a244                serial_getc
                0x0400a2a8                serial_getc_with_timeout
                0x0400a2ec                serial_tstc
                0x0400a30c                serial_setbrg
 .text          0x0400a310       0xe8 common/libcommon.a(cmd_bdinfo.o)
                0x0400a310                do_bdinfo
 .text          0x0400a3f8       0x8c common/libcommon.a(cmd_boot.o)
                0x0400a3f8                do_go_exec
                0x0400a410                do_go
 .text          0x0400a484      0xc1c common/libcommon.a(cmd_bootm.o)
                0x0400a6ec                do_iminfo
                0x0400ac2c                board_lmb_reserve
                0x0400ac2c                __board_lmb_reserve
                0x0400ac30                arch_lmb_reserve
                0x0400ac30                __arch_lmb_reserve
                0x0400ac34                arch_preboot_os
                0x0400ac34                __arch_preboot_os
                0x0400ac38                do_bootm_subcommand
                0x0400ae08                do_bootm
 .text          0x0400b0a0      0x970 common/libcommon.a(cmd_load.o)
                0x0400b1f4                send_pad
                0x0400b220                ktrans
                0x0400b240                chk1
                0x0400b268                s1_sendpacket
                0x0400b28c                send_ack
                0x0400b2e8                send_nack
                0x0400b344                k_data_init
                0x0400b364                k_data_save
                0x0400b388                k_data_restore
                0x0400b3ac                k_data_char
                0x0400b3fc                handle_send_packet
                0x0400b5c0                do_load_serial_bin
 .text          0x0400ba10      0x914 common/libcommon.a(cmd_mem.o)
                0x0400ba10                do_mem_crc
                0x0400bac0                do_mem_base
                0x0400bb00                do_mem_mtest
                0x0400bca0                do_mem_loop
                0x0400bd98                do_mem_cp
                0x0400be70                do_mem_cmp
                0x0400bffc                do_mem_mw
                0x0400c208                do_mem_nm
                0x0400c22c                do_mem_mm
                0x0400c250                do_mem_md
 .text          0x0400c324      0xfec common/libcommon.a(cmd_nand.o)
                0x0400c3c8                do_nandboot
                0x0400ca18                do_nand
                0x0400d1a8                _nand_erase
                0x0400d228                _nand_read
                0x0400d29c                _nand_write
 .text          0x0400d310      0x39c common/libcommon.a(cmd_net.o)
                0x0400d310                do_ping
                0x0400d688                do_rarpb
                0x0400d694                do_tftpb
                0x0400d6a0                do_bootp
 .text          0x0400d6ac      0x7f4 common/libcommon.a(cmd_nvedit.o)
                0x0400d6ac                do_saveenv
                0x0400d6d8                get_env_id
                0x0400d6e8                envmatch
                0x0400d74c                getenv_r
                0x0400d7f4                getenv
                0x0400d868                _do_setenv
                0x0400dca8                do_setenv
                0x0400dcd4                setenv
                0x0400de10                do_printenv
 .text          0x0400dea0      0xc8c common/libcommon.a(cmd_recovery.o)
                0x0400e074                do_savefs
                0x0400eb1c                do_recovery
 .text          0x0400eb2c      0x35c common/libcommon.a(command.o)
                0x0400eb2c                do_version
                0x0400eb4c                find_cmd_tbl
                0x0400ebe0                find_cmd
                0x0400ec08                cmd_usage
                0x0400ec68                _do_help
                0x0400edf0                do_help
                0x0400ee38                cmd_get_data_size
 .text          0x0400ee88      0x558 common/libcommon.a(console.o)
                0x0400ef2c                serial_printf
                0x0400ef70                fgetc
                0x0400ef9c                ftstc
                0x0400efc8                fputc
                0x0400eff0                fputs
                0x0400f018                fprintf
                0x0400f060                getc
                0x0400f078                tstc
                0x0400f090                putc
                0x0400f0ac                puts
                0x0400f0c8                printf
                0x0400f10c                vprintf
                0x0400f140                ctrlc
                0x0400f18c                disable_ctrlc
                0x0400f1a4                had_ctrlc
                0x0400f1b4                clear_ctrlc
                0x0400f1c8                dbg
                0x0400f1d4                search_device
                0x0400f1fc                console_assign
                0x0400f23c                console_init_f
                0x0400f24c                stdio_print_current_devices
                0x0400f300                console_init_r
 .text          0x0400f3e0      0xfec common/libcommon.a(dlmalloc.o)
                0x0400f3e0                sbrk
                0x0400f418                mem_malloc_init
                0x0400f438                malloc_trim
                0x0400f508                free
                0x0400f728                cfree
                0x0400f72c                malloc
                0x0400fcb4                calloc
                0x0400fd94                memalign
                0x0400fea4                pvalloc
                0x0400febc                valloc
                0x0400fec8                realloc
                0x04010318                malloc_usable_size
                0x04010358                mallopt
 .text          0x040103cc      0x13c common/libcommon.a(env_common.o)
                0x040103cc                env_crc_update
                0x040103f8                env_get_char_memory
                0x0401041c                env_get_char
                0x0401044c                env_get_addr
                0x04010470                set_default_env
                0x040104b4                env_relocate
 .text          0x04010508      0x29c common/libcommon.a(env_nand.o)
                0x04010520                env_get_char_spec
                0x0401052c                env_init
                0x04010548                writeenv
                0x04010600                saveenv
                0x040106a0                readenv
                0x04010758                env_relocate_spec
 .text          0x040107a4       0xe8 common/libcommon.a(exports.o)
                0x040107a8                get_version
                0x040107b0                jumptable_init
 .text          0x0401088c      0x728 common/libcommon.a(image.o)
                0x040108b8                image_check_hcrc
                0x04010908                image_check_dcrc
                0x04010948                image_multi_count
                0x0401096c                image_multi_getimg
                0x040109f0                getenv_yesno
                0x04010a18                getenv_bootm_low
                0x04010a4c                getenv_bootm_size
                0x04010a80                memmove_wd
                0x04010a84                genimg_print_size
                0x04010ab0                get_table_entry_name
                0x04010adc                genimg_get_os_name
                0x04010af4                genimg_get_arch_name
                0x04010b0c                genimg_get_type_name
                0x04010b24                genimg_get_comp_name
                0x04010b3c                image_print_contents
                0x04010cb4                get_table_entry_id
                0x04010d00                genimg_get_os_id
                0x04010d18                genimg_get_arch_id
                0x04010d30                genimg_get_type_id
                0x04010d48                genimg_get_comp_id
                0x04010d60                genimg_get_format
                0x04010d78                genimg_get_image
                0x04010d7c                genimg_has_config
                0x04010d84                boot_get_ramdisk
 .text          0x04010fb4      0x8a4 common/libcommon.a(main.o)
                0x0401108c                __show_boot_progress
                0x04011090                readline_into_buffer
                0x0401125c                readline
                0x04011270                parse_line
                0x04011300                run_command
                0x04011674                main_loop
                0x040117dc                do_run
 .text          0x04011858      0x174 common/libcommon.a(stdio.o)
                0x04011858                stdio_get_list
                0x04011864                stdio_get_by_name
                0x040118b8                stdio_clone
                0x04011900                stdio_register
                0x04011944                stdio_init
 .text          0x040119cc      0x8bc common/libcommon.a(xyzModem.o)
                0x040119cc                CYGACC_COMM_IF_GETC_TIMEOUT
                0x04011cb8                CYGACC_COMM_IF_PUTC
                0x04011cc0                parse_num
                0x04011dec                xyzModem_stream_open
                0x04011f34                xyzModem_stream_read
                0x04012184                xyzModem_stream_close
                0x040121d4                xyzModem_stream_terminate
                0x04012268                xyzModem_error
 .text          0x04012288      0x45c drivers/net/rtl83xx-1.3.0/librtl83xx.a(rtl83xx_main.o)
                0x04012288                do_sw_reg
                0x04012360                do_sw_link
                0x040124e0                do_sw_delay
                0x040125f4                rtl83xx_disble_phy
                0x04012610                rtl83xx_init
                0x040126d4                do_sw_init
 .text          0x040126e4      0xec0 drivers/net/rtl83xx-1.3.0/librtl83xx.a(rtk_api.o)
                0x04012ebc                rtk_port_macForceLink_set
                0x04012fc0                rtk_port_macForceLink_get
                0x04013024                rtk_port_macForceLinkExt0_set
                0x0401313c                rtk_port_macForceLinkExt0_get
                0x040131b0                rtk_port_macForceLinkExt1_set
                0x040132c8                rtk_port_macForceLinkExt1_get
                0x0401333c                rtk_port_rgmiiDelayExt0_set
                0x0401339c                rtk_port_rgmiiDelayExt0_get
                0x040133d0                rtk_port_rgmiiDelayExt1_set
                0x04013430                rtk_port_rgmiiDelayExt1_get
                0x04013464                rtk_port_phyEnableAll_set
                0x04013478                rtk_port_phyEnableAll_get
                0x0401347c                rtk_switch_init
 .text          0x040135a4      0x1c4 drivers/net/rtl83xx-1.3.0/librtl83xx.a(rtl8370_asicdrv.o)
                0x040135a4                rtl8370_setAsicRegBit
                0x0401360c                rtl8370_getAsicRegBit
                0x04013640                rtl8370_setAsicRegBits
                0x040136cc                rtl8370_getAsicRegBits
                0x0401372c                rtl8370_setAsicReg
                0x04013744                rtl8370_getAsicReg
 .text          0x04013768      0x734 drivers/net/rtl83xx-1.3.0/librtl83xx.a(rtl8370_asicdrv_port.o)
                0x04013768                rtl8370_setAsicPortForceFlush
                0x04013784                rtl8370_getAsicPortForceFlush
                0x04013790                rtl8370_setAsicPortDisableAging
                0x040137c0                rtl8370_getAsicPortDisableAging
                0x040137e4                rtl8370_setAsicPortUnknownDaBehavior
                0x04013804                rtl8370_getAsicPortUnknownDaBehavior
                0x04013814                rtl8370_setAsicPortUnknownSaBehavior
                0x04013834                rtl8370_getAsicPortUnknownSaBehavior
                0x04013844                rtl8370_setAsicPortUnmatchedSaBehavior
                0x04013864                rtl8370_getAsicPortUnmatchedSaBehavior
                0x04013874                rtl8370_setAsicPortUnknownDaFloodingPortmask
                0x04013890                rtl8370_getAsicPortUnknownDaFloodingPortmask
                0x0401389c                rtl8370_setAsicPortUnknownMulticastFloodingPortmask
                0x040138b8                rtl8370_getAsicPortUnknownMulticastFloodingPortmask
                0x040138c4                rtl8370_setAsicPortBcastFloodingPortmask
                0x040138e0                rtl8370_getAsicPortBcastFloodingPortmask
                0x040138ec                rtl8370_setAsicPortBlockSpa
                0x0401391c                rtl8370_getAsicPortBlockSpa
                0x04013940                rtl8370_setAsicPortForceLink
                0x0401398c                rtl8370_getAsicPortForceLink
                0x040139ec                rtl8370_getAsicPortStatus
                0x04013a4c                rtl8370_setAsicPortForceLinkExt
                0x04013a98                rtl8370_getAsicPortForceLinkExt
                0x04013af8                rtl8370_setAsicPortExtMode
                0x04013bf0                rtl8370_getAsicPortExtMode
                0x04013c18                rtl8370_setAsicPortEnableAll
                0x04013c3c                rtl8370_getAsicPortEnableAll
                0x04013c74                rtl8370_setAsicPortRTCT
                0x04013cf8                rtl8370_getAsicPortRTCTResult
 .text          0x04013e9c       0x60 drivers/net/rtl83xx-1.3.0/librtl83xx.a(rtl8370_asicdrv_phy.o)
                0x04013e9c                rtl8370_setAsicPHYReg
                0x04013ecc                rtl8370_getAsicPHYReg
 .text          0x04013efc       0x28 drivers/net/rtl83xx-1.3.0/librtl83xx.a(rtl8370_asicdrv_lut.o)
                0x04013efc                rtl8370_setAsicLutLearnLimitNo
 .text          0x04013f24       0xb0 drivers/net/rtl83xx-1.3.0/librtl83xx.a(smi.o)
                0x04013f38                smi_reset
                0x04013f40                smi_init
                0x04013f48                smi_read
                0x04013f90                smi_write
 .text          0x04013fd4      0x21c board/futuretek/ftm-100s/libftm-100s.a(ftm_100s.o)
                0x04013fd4                show_boot_progress
                0x04013fd8                get_platform_clk
                0x04014038                board_init
                0x04014078                board_eth_init
                0x04014098                misc_init_r
                0x040140c8                dram_init
                0x04014190                interrupt_init
                0x04014198                reset_cpu
 .text          0x040141f0      0x104 board/futuretek/ftm-100s/libftm-100s.a(watchdog.o)
                0x040141f0                g2_wdt_set_heartbeat
                0x04014214                g2_wdt_init
                0x04014278                g2_wdt_keepalive
                0x040142b4                g2_wdt_start
                0x040142cc                g2_wdt_stop
 .text          0x040142f4        0x4 board/futuretek/ftm-100s/libftm-100s.a(lowlevel_init.o)
                0x040142f4                lowlevel_init
 .text          0x040142f8      0x604 board/futuretek/ftm-100s/libftm-100s.a(cmd_ftm_100s.o)
                0x040144dc                csmi_init
                0x0401456c                do_sb_process
                0x04014618                do_sb_set_flags
                0x040146c8                do_sb_display
                0x04014730                boot_kernel
                0x0401477c                upgrade_flash
 .text          0x040148fc      0xaa8 board/futuretek/ftm-100s/libftm-100s.a(csmi_uboot_cmds.o)
                0x040149e4                csmi_uboot_cmds_initialize
                0x04014a48                csmi_uboot_cmds_sb_display
                0x04014a88                csmi_uboot_cmds_sb_set_flags
                0x04014b30                csmi_uboot_cmds_boot_index
                0x04014c04                csmi_uboot_cmds_sb_process
 .text          0x040153a4     0x186c board/futuretek/ftm-100s/libftm-100s.a(csmi_user.o)
                0x04015494                csmi_sb_create
                0x04015504                csmi_sb_freeup
                0x040155a0                csmi_sb_check_magic
                0x040155b8                csmi_sb_valid
                0x040155c8                csmi_sb_commit
                0x040155d8                csmi_sb_active
                0x040155e8                csmi_sb_rsvd
                0x04015614                csmi_sb_set_valid
                0x0401562c                csmi_sb_set_commit
                0x04015644                csmi_sb_set_active
                0x0401565c                csmi_sb_set_rsvd
                0x04015698                csmi_sb_set_root
                0x040156b8                csmi_sb_size
                0x040156e0                csmi_sb_root
                0x040156ec                csmi_sb_first_file
                0x04015730                csmi_sb_next_file
                0x0401577c                csmi_sb_named_file_handle
                0x040157c0                csmi_sb_rootfs_file_handle
                0x04015808                csmi_sb_kernel_file_handle
                0x04015850                csmi_sb_first_mtdpart
                0x04015894                csmi_sb_next_mtdpart
                0x040158e0                csmi_sb_mtdparts
                0x04015a60                csmi_sb_rootfs
                0x04015b4c                csmi_sb_kernel
                0x04015c38                csmi_sb_named_mtdpart_handle
                0x04015c7c                csmi_sb_rootfs_mtdpart_handle
                0x04015cc4                csmi_sb_kernel_mtdpart_handle
                0x04015d0c                csmi_sb_file_name
                0x04015d10                csmi_sb_file_md5
                0x04015d1c                csmi_sb_file_version
                0x04015d44                csmi_sb_file_flags
                0x04015d6c                csmi_sb_file_size
                0x04015d94                csmi_sb_file_is
                0x04015dbc                csmi_sb_file_type
                0x04015dc8                csmi_sb_file_mountpoint
                0x04015dd4                csmi_sb_file_mountopts
                0x04015de0                csmi_sb_mtdpart_name
                0x04015de4                csmi_sb_mtdpart_size
                0x04015df0                csmi_sb_mtdpart_filesize
                0x04015e18                csmi_sb_mtdpart_offset
                0x04015e24                csmi_sb_mtdpart_is
                0x04015e4c                csmi_sb_mtdpart_type
                0x04015e58                csmi_sb_mtdpart_flags
                0x04015e80                csmi_sb_mtdpart_mountpoint
                0x04015e8c                csmi_sb_mtdpart_mountopts
                0x04015e98                csmi_sb_mtdpart_md5
                0x04015ea4                csmi_sb_add_file
                0x04016174                csmi_sb_add_mtdpart
                0x04016454                csmi_sb_md5_string
                0x04016498                csmi_sb_check_md5_mem
                0x0401651c                csmi_sb_read_mem
                0x04016618                csmi_sb_print
                0x04016ac4                csmi_sb_file_is_str
                0x04016ae0                csmi_sb_new_md5
                0x04016ae4                csmi_sb_check_managed
                0x04016b70                csmi_sb_file_set_md5
                0x04016b84                csmi_sb_file_set_size
                0x04016bac                csmi_sb_file_set_version
                0x04016bd4                csmi_sb_mtdpart_set_md5
                0x04016be8                csmi_sb_mtdpart_set_filesize
 .text          0x04016c10       0x44 lib_generic/libgeneric.a(crc16.o)
                0x04016c10                cyg_crc16
 .text          0x04016c54      0x204 lib_generic/libgeneric.a(crc32.o)
                0x04016c54                crc32
                0x04016d58                crc32_no_comp
                0x04016e54                crc32_wd
 .text          0x04016e58      0x238 lib_generic/libgeneric.a(display_options.o)
                0x04016e58                display_options
                0x04016e78                print_size
                0x04016f3c                print_buffer
 .text          0x04017090      0x1b0 lib_generic/libgeneric.a(gunzip.o)
                0x04017090                zfree
                0x04017098                zalloc
                0x040170a8                zunzip
                0x04017194                gunzip
 .text          0x04017240      0x548 lib_generic/libgeneric.a(lmb.o)
                0x0401740c                lmb_dump_all
                0x04017410                lmb_init
                0x04017438                lmb_add
                0x0401743c                lmb_free
                0x04017560                lmb_reserve
                0x04017568                lmb_overlaps_region
                0x040175bc                __lmb_alloc_base
                0x040176ec                lmb_alloc_base
                0x04017720                lmb_alloc
                0x04017728                lmb_is_reserved
 .text          0x04017788      0xce0 lib_generic/libgeneric.a(md5.o)
                0x04018380                md5
                0x040183f4                md5_wd
 .text          0x04018468      0x5a8 lib_generic/libgeneric.a(string.o)
                0x04018468                strcpy
                0x04018480                strncpy
                0x040184a4                strcat
                0x040184d0                strncat
                0x04018518                strcmp
                0x04018540                strncmp
                0x0401857c                strchr
                0x040185b0                strlen
                0x040185cc                strrchr
                0x04018608                strnlen
                0x04018630                strdup
                0x04018664                strspn
                0x040186a4                strpbrk
                0x040186e0                strtok
                0x04018758                strsep
                0x0401878c                strswab
                0x040187d8                memset
                0x04018840                bcopy
                0x04018864                memcpy
                0x040188d0                memmove
                0x0401891c                memcmp
                0x04018954                memscan
                0x0401897c                strstr
                0x040189dc                memchr
 .text          0x04018a10      0xbfc lib_generic/libgeneric.a(vsprintf.o)
                0x04018e5c                simple_strtoul
                0x04018f08                simple_strtol
                0x04018f30                ustrtoul
                0x04018fa4                vsprintf
                0x0401959c                sprintf
                0x040195c0                panic
 .text          0x0401960c     0x2630 lib_generic/libgeneric.a(zlib.o)
                0x0401960c                zcfree
                0x04019614                zcalloc
                0x0401961c                inflate_fast
                0x04019b0c                inflate_table
                0x0401a088                inflateReset
                0x0401a128                inflateInit2_
                0x0401a22c                inflateInit_
                0x0401a240                inflateEnd
                0x0401a2cc                adler32
                0x0401a5a8                inflate
 .text          0x0401bc3c        0x0 lib_generic/libgeneric.a(ctype.o)
 .text          0x0401bc3c       0x48 cpu/arm_cortexa9/libarm_cortexa9.a(cpu.o)
                0x0401bc3c                cpu_init
                0x0401bc44                cleanup_before_linux
                0x0401bc6c                do_reset
 .text          0x0401bc84      0x1c8 cpu/arm_cortexa9/goldengate/libgoldengate.a(timer.o)
                0x0401bc84                set_timer
                0x0401bc94                udelay
                0x0401bcf4                reset_timer_masked
                0x0401bd38                reset_timer
                0x0401bd3c                timer_init
                0x0401bd90                get_timer_masked
                0x0401be1c                get_timer
                0x0401be30                udelay_masked
                0x0401be34                get_ticks
                0x0401be44                get_tbclk
 .text          0x0401be4c      0x1bc lib_arm/libarm.a(bootm.o)
                0x0401be4c                do_bootm_linux
 .text          0x0401c008        0x4 lib_arm/libarm.a(cache.o)
                0x0401c008                flush_cache
 .text          0x0401c00c       0xa4 lib_arm/libarm.a(cache-cp15.o)
                0x0401c058                icache_enable
                0x0401c070                icache_disable
                0x0401c078                icache_status
                0x0401c084                dcache_enable
                0x0401c09c                dcache_disable
                0x0401c0a4                dcache_status
 .text          0x0401c0b0      0x744 drivers/mtd/nand/libnand.a(nand_util.o)
                0x0401c148                nand_erase_opts
                0x0401c450                nand_write_skip_bad
                0x0401c638                nand_read_skip_bad
 .text          0x0401c7f4       0xe0 lib_generic/libgeneric.a(div64.o)
                0x0401c7f4                __div64_32
 .text          0x0401c8d4       0x1c /home/xtra/Work/ftm-100s/u-boot/lib_arm/eabi_compat.o
                0x0401c8d4                raise
 .text          0x0401c8f0      0x20c /opt/Cortina/toolchain/toolchain-arm_gcc-4.5.1+l_uClibc-0.9.32_eabi/bin/../lib/gcc/arm-openwrt-linux-uclibcgnueabi/4.5.2/libgcc.a(_udivsi3.o)
                0x0401c8f0                __udivsi3
                0x0401c8f0                __aeabi_uidiv
                0x0401cadc                __aeabi_uidivmod
 .text          0x0401cafc      0x240 /opt/Cortina/toolchain/toolchain-arm_gcc-4.5.1+l_uClibc-0.9.32_eabi/bin/../lib/gcc/arm-openwrt-linux-uclibcgnueabi/4.5.2/libgcc.a(_divsi3.o)
                0x0401cafc                __aeabi_idiv
                0x0401cafc                __divsi3
                0x0401cd1c                __aeabi_idivmod
 .text          0x0401cd3c       0x1c /opt/Cortina/toolchain/toolchain-arm_gcc-4.5.1+l_uClibc-0.9.32_eabi/bin/../lib/gcc/arm-openwrt-linux-uclibcgnueabi/4.5.2/libgcc.a(_lshrdi3.o)
                0x0401cd3c                __aeabi_llsr
                0x0401cd3c                __lshrdi3
 .text          0x0401cd58       0x1c /opt/Cortina/toolchain/toolchain-arm_gcc-4.5.1+l_uClibc-0.9.32_eabi/bin/../lib/gcc/arm-openwrt-linux-uclibcgnueabi/4.5.2/libgcc.a(_ashrdi3.o)
                0x0401cd58                __ashrdi3
                0x0401cd58                __aeabi_lasr
 .text          0x0401cd74       0x1c /opt/Cortina/toolchain/toolchain-arm_gcc-4.5.1+l_uClibc-0.9.32_eabi/bin/../lib/gcc/arm-openwrt-linux-uclibcgnueabi/4.5.2/libgcc.a(_ashldi3.o)
                0x0401cd74                __ashldi3
                0x0401cd74                __aeabi_llsl
 .text          0x0401cd90       0x10 /opt/Cortina/toolchain/toolchain-arm_gcc-4.5.1+l_uClibc-0.9.32_eabi/bin/../lib/gcc/arm-openwrt-linux-uclibcgnueabi/4.5.2/libgcc.a(_dvmd_lnx.o)
                0x0401cd90                __aeabi_ldiv0
                0x0401cd90                __aeabi_idiv0

.glue_7         0x0401cda0        0x0
 .glue_7        0x00000000        0x0 linker stubs

.glue_7t        0x0401cda0        0x0
 .glue_7t       0x00000000        0x0 linker stubs

.vfp11_veneer   0x0401cda0        0x0
 .vfp11_veneer  0x00000000        0x0 linker stubs

.v4_bx          0x0401cda0        0x0
 .v4_bx         0x00000000        0x0 linker stubs

.rodata         0x0401cda0     0x2844
 *(.rodata)
 .rodata        0x0401cda0       0x48 lib_arm/libarm.a(board.o)
                0x0401cda0                version_string
 .rodata        0x0401cde8       0x80 lib_arm/libarm.a(interrupts.o)
 .rodata        0x0401ce68        0x7 net/libnet.a(eth.o)
 .rodata        0x0401ce6f        0x7 net/libnet.a(net.o)
 .rodata        0x0401ce76       0xbe drivers/mtd/nand/libnand.a(cs75xx_nand.o)
 .rodata        0x0401cf34        0x8 drivers/net/libnet.a(g2_ni_mfe.o)
 .rodata        0x0401cf3c       0x4c common/libcommon.a(cmd_bootm.o)
 .rodata        0x0401cf88       0x58 common/libcommon.a(command.o)
 .rodata        0x0401cfe0       0x20 common/libcommon.a(xyzModem.o)
 .rodata        0x0401d000     0x158c drivers/net/rtl83xx-1.3.0/librtl83xx.a(rtk_api.o)
 .rodata        0x0401e58c       0x54 board/futuretek/ftm-100s/libftm-100s.a(ftm_100s.o)
 .rodata        0x0401e5e0       0x14 board/futuretek/ftm-100s/libftm-100s.a(csmi_user.o)
 .rodata        0x0401e5f4      0x200 lib_generic/libgeneric.a(crc16.o)
 .rodata        0x0401e7f4      0x400 lib_generic/libgeneric.a(crc32.o)
 .rodata        0x0401ebf4       0x21 lib_generic/libgeneric.a(vsprintf.o)
                0x0401ebf4                hex_asc
 *fill*         0x0401ec15        0x3 00
 .rodata        0x0401ec18      0x9cc lib_generic/libgeneric.a(zlib.o)
                0x0401f5bc                z_errmsg

.rodata.str1.1  0x0401f5e4     0x50af
 .rodata.str1.1
                0x0401f5e4       0x6b lib_arm/libarm.a(board.o)
                                 0x6d (size before relaxing)
 .rodata.str1.1
                0x0401f64f      0x264 lib_arm/libarm.a(interrupts.o)
                                0x27b (size before relaxing)
 .rodata.str1.1
                0x0401f8b3       0xb0 net/libnet.a(eth.o)
                                 0xc7 (size before relaxing)
 .rodata.str1.1
                0x0401f963      0x20c net/libnet.a(net.o)
                                0x217 (size before relaxing)
 .rodata.str1.1
                0x0401fb6f       0x43 net/libnet.a(rarp.o)
 .rodata.str1.1
                0x0401fbb2      0x1a8 net/libnet.a(tftp.o)
                                0x1f6 (size before relaxing)
 .rodata.str1.1
                0x0401fd5a       0x70 net/libnet.a(bootp.o)
                                 0xa9 (size before relaxing)
 .rodata.str1.1
                0x0401fdca      0x567 drivers/mtd/nand/libnand.a(cs75xx_nand.o)
 .rodata.str1.1
                0x04020331      0x300 drivers/mtd/nand/libnand.a(nand_bbt.o)
 .rodata.str1.1
                0x04020631      0x32d drivers/mtd/nand/libnand.a(nand_ids.o)
                                0x358 (size before relaxing)
 .rodata.str1.1
                0x0402095e      0x1c8 drivers/net/libnet.a(g2_ni_mfe.o)
                                0x1e5 (size before relaxing)
 .rodata.str1.1
                0x04020b26       0xaa common/libcommon.a(cmd_bdinfo.o)
                                 0xb3 (size before relaxing)
 .rodata.str1.1
                0x04020bd0       0xef common/libcommon.a(cmd_boot.o)
                                 0xf0 (size before relaxing)
 .rodata.str1.1
                0x04020cbf      0x7a5 common/libcommon.a(cmd_bootm.o)
                                0x7f4 (size before relaxing)
 .rodata.str1.1
                0x04021464      0x219 common/libcommon.a(cmd_load.o)
                                0x22f (size before relaxing)
 .rodata.str1.1
                0x0402167d      0x486 common/libcommon.a(cmd_mem.o)
                                0x491 (size before relaxing)
 .rodata.str1.1
                0x04021b03      0x76c common/libcommon.a(cmd_nand.o)
                                0x7a9 (size before relaxing)
 .rodata.str1.1
                0x0402226f      0x187 common/libcommon.a(cmd_net.o)
                                0x1c0 (size before relaxing)
 .rodata.str1.1
                0x040223f6      0x2e6 common/libcommon.a(cmd_nvedit.o)
                                0x343 (size before relaxing)
 .rodata.str1.1
                0x040226dc      0x581 common/libcommon.a(cmd_recovery.o)
                                0x5c9 (size before relaxing)
 .rodata.str1.1
                0x04022c5d      0x1fd common/libcommon.a(command.o)
                                0x210 (size before relaxing)
 .rodata.str1.1
                0x04022e5a       0x70 common/libcommon.a(console.o)
                                 0x74 (size before relaxing)
 .rodata.str1.1
                0x04022eca       0x33 common/libcommon.a(env_common.o)
 .rodata.str1.1
                0x04022efd       0x65 common/libcommon.a(env_nand.o)
                                 0x74 (size before relaxing)
 .rodata.str1.1
                0x04022f62      0x425 common/libcommon.a(image.o)
                                0x4a2 (size before relaxing)
 .rodata.str1.1
                0x04023387       0xb1 common/libcommon.a(main.o)
                                 0xcd (size before relaxing)
 .rodata.str1.1
                0x04023438        0x7 common/libcommon.a(stdio.o)
                                 0x1b (size before relaxing)
 .rodata.str1.1
                0x0402343f       0xe3 common/libcommon.a(xyzModem.o)
                                 0xe5 (size before relaxing)
 .rodata.str1.1
                0x04023522      0x3bb drivers/net/rtl83xx-1.3.0/librtl83xx.a(rtl83xx_main.o)
 .rodata.str1.1
                0x040238dd       0xa6 drivers/net/rtl83xx-1.3.0/librtl83xx.a(rtk_api.o)
 .rodata.str1.1
                0x00000000       0xa6 board/futuretek/ftm-100s/libftm-100s.a(ftm_100s.o)
                                  0x9 (size before relaxing)
 .rodata.str1.1
                0x04023983      0x206 board/futuretek/ftm-100s/libftm-100s.a(cmd_ftm_100s.o)
                                0x231 (size before relaxing)
 .rodata.str1.1
                0x04023b89      0x2cb board/futuretek/ftm-100s/libftm-100s.a(csmi_uboot_cmds.o)
                                0x2d8 (size before relaxing)
 .rodata.str1.1
                0x04023e54      0x2a2 board/futuretek/ftm-100s/libftm-100s.a(csmi_user.o)
                                0x2ec (size before relaxing)
 .rodata.str1.1
                0x040240f6       0x11 lib_generic/libgeneric.a(display_options.o)
                                 0x36 (size before relaxing)
 .rodata.str1.1
                0x04024107       0x85 lib_generic/libgeneric.a(gunzip.o)
 .rodata.str1.1
                0x0402418c       0x34 lib_generic/libgeneric.a(lmb.o)
 .rodata.str1.1
                0x040241c0        0xe lib_generic/libgeneric.a(vsprintf.o)
 .rodata.str1.1
                0x040241ce      0x21c lib_generic/libgeneric.a(zlib.o)
                                0x21d (size before relaxing)
 .rodata.str1.1
                0x040243ea       0x42 lib_arm/libarm.a(bootm.o)
                                 0x4b (size before relaxing)
 .rodata.str1.1
                0x0402442c      0x24c drivers/mtd/nand/libnand.a(nand_util.o)
                                0x24e (size before relaxing)
 .rodata.str1.1
                0x04024678       0x1b /home/xtra/Work/ftm-100s/u-boot/lib_arm/eabi_compat.o
                0x04024694                . = ALIGN (0x4)

.data           0x04024694     0x133c
 *(.data)
 .data          0x04024694        0x0 cpu/arm_cortexa9/start.o
 .data          0x04024694       0x28 lib_arm/libarm.a(board.o)
                0x04024694                init_sequence
 .data          0x040246bc        0x0 lib_arm/libarm.a(interrupts.o)
 .data          0x040246bc        0x0 net/libnet.a(eth.o)
 .data          0x040246bc        0xa net/libnet.a(net.o)
                0x040246bc                NetOurVLAN
                0x040246be                NetOurNativeVLAN
                0x040246c0                NetBcastAddr
 .data          0x040246c6        0x0 net/libnet.a(rarp.o)
 *fill*         0x040246c6        0x2 00
 .data          0x040246c8       0x18 net/libnet.a(tftp.o)
                0x040246d8                TftpRRQTimeoutMSecs
                0x040246dc                TftpRRQTimeoutCountMax
 .data          0x040246e0        0x0 net/libnet.a(bootp.o)
 .data          0x040246e0      0x390 drivers/mtd/nand/libnand.a(cs75xx_nand.o)
 .data          0x04024a70        0x4 drivers/mtd/nand/libnand.a(nand.o)
                0x04024a70                nand_curr_device
 .data          0x04024a74      0x128 drivers/mtd/nand/libnand.a(nand_bbt.o)
 .data          0x04024b9c      0x510 drivers/mtd/nand/libnand.a(nand_ids.o)
                0x04024b9c                nand_flash_ids
                0x0402504c                nand_manuf_ids
 .data          0x040250ac        0x0 drivers/net/libnet.a(g2_ni_mfe.o)
 .data          0x040250ac        0x0 drivers/serial/libserial.a(serial_cs752x.o)
 .data          0x040250ac        0x0 common/libcommon.a(cmd_bdinfo.o)
 .data          0x040250ac        0x0 common/libcommon.a(cmd_boot.o)
 .data          0x040250ac       0x94 common/libcommon.a(cmd_bootm.o)
                0x040250ac                load_addr
                0x040250b0                cmd_bootm_sub
 .data          0x04025140        0x0 common/libcommon.a(cmd_load.o)
 .data          0x04025140        0x4 common/libcommon.a(cmd_mem.o)
                0x04025140                dp_last_length
 .data          0x04025144        0x0 common/libcommon.a(cmd_nand.o)
 .data          0x04025144        0x0 common/libcommon.a(cmd_net.o)
 .data          0x04025144        0x4 common/libcommon.a(cmd_nvedit.o)
 .data          0x04025148        0x4 common/libcommon.a(cmd_recovery.o)
                0x04025148                verbose
 .data          0x0402514c        0x0 common/libcommon.a(command.o)
 .data          0x0402514c        0x0 common/libcommon.a(console.o)
 .data          0x0402514c      0x414 common/libcommon.a(dlmalloc.o)
 .data          0x04025560      0x14f common/libcommon.a(env_common.o)
                0x04025560                default_environment
 *fill*         0x040256af        0x1 00
 .data          0x040256b0        0x4 common/libcommon.a(env_nand.o)
                0x040256b0                env_name_spec
 .data          0x040256b4        0x0 common/libcommon.a(exports.o)
 .data          0x040256b4      0x1f8 common/libcommon.a(image.o)
 .data          0x040258ac        0xd common/libcommon.a(main.o)
 *fill*         0x040258b9        0x3 00
 .data          0x040258bc        0xc common/libcommon.a(stdio.o)
                0x040258bc                stdio_names
 .data          0x040258c8        0x0 common/libcommon.a(xyzModem.o)
 .data          0x040258c8        0x0 drivers/net/rtl83xx-1.3.0/librtl83xx.a(rtl83xx_main.o)
 .data          0x040258c8        0x0 drivers/net/rtl83xx-1.3.0/librtl83xx.a(rtk_api.o)
 .data          0x040258c8        0x0 drivers/net/rtl83xx-1.3.0/librtl83xx.a(rtl8370_asicdrv.o)
 .data          0x040258c8        0x0 drivers/net/rtl83xx-1.3.0/librtl83xx.a(rtl8370_asicdrv_port.o)
 .data          0x040258c8        0x0 drivers/net/rtl83xx-1.3.0/librtl83xx.a(rtl8370_asicdrv_phy.o)
 .data          0x040258c8        0x0 drivers/net/rtl83xx-1.3.0/librtl83xx.a(rtl8370_asicdrv_lut.o)
 .data          0x040258c8        0x0 drivers/net/rtl83xx-1.3.0/librtl83xx.a(smi.o)
 .data          0x040258c8        0x0 board/futuretek/ftm-100s/libftm-100s.a(ftm_100s.o)
 .data          0x040258c8        0x8 board/futuretek/ftm-100s/libftm-100s.a(watchdog.o)
 .data          0x040258d0        0x0 board/futuretek/ftm-100s/libftm-100s.a(lowlevel_init.o)
 .data          0x040258d0        0x0 board/futuretek/ftm-100s/libftm-100s.a(cmd_ftm_100s.o)
 .data          0x040258d0        0x0 board/futuretek/ftm-100s/libftm-100s.a(csmi_uboot_cmds.o)
 .data          0x040258d0        0x0 board/futuretek/ftm-100s/libftm-100s.a(csmi_user.o)
 .data          0x040258d0        0x0 lib_generic/libgeneric.a(crc16.o)
 .data          0x040258d0        0x0 lib_generic/libgeneric.a(crc32.o)
 .data          0x040258d0        0x0 lib_generic/libgeneric.a(display_options.o)
 .data          0x040258d0        0x0 lib_generic/libgeneric.a(gunzip.o)
 .data          0x040258d0        0x0 lib_generic/libgeneric.a(lmb.o)
 .data          0x040258d0        0x0 lib_generic/libgeneric.a(md5.o)
 .data          0x040258d0        0x0 lib_generic/libgeneric.a(string.o)
 .data          0x040258d0        0x0 lib_generic/libgeneric.a(vsprintf.o)
 .data          0x040258d0        0x0 lib_generic/libgeneric.a(zlib.o)
 .data          0x040258d0      0x100 lib_generic/libgeneric.a(ctype.o)
                0x040258d0                _ctype
 .data          0x040259d0        0x0 cpu/arm_cortexa9/libarm_cortexa9.a(cpu.o)
 .data          0x040259d0        0x0 cpu/arm_cortexa9/goldengate/libgoldengate.a(timer.o)
 .data          0x040259d0        0x0 lib_arm/libarm.a(bootm.o)
 .data          0x040259d0        0x0 lib_arm/libarm.a(cache.o)
 .data          0x040259d0        0x0 lib_arm/libarm.a(cache-cp15.o)
 .data          0x040259d0        0x0 drivers/mtd/nand/libnand.a(nand_util.o)
 .data          0x040259d0        0x0 lib_generic/libgeneric.a(div64.o)
 .data          0x040259d0        0x0 /home/xtra/Work/ftm-100s/u-boot/lib_arm/eabi_compat.o
 .data          0x040259d0        0x0 /opt/Cortina/toolchain/toolchain-arm_gcc-4.5.1+l_uClibc-0.9.32_eabi/bin/../lib/gcc/arm-openwrt-linux-uclibcgnueabi/4.5.2/libgcc.a(_udivsi3.o)
 .data          0x040259d0        0x0 /opt/Cortina/toolchain/toolchain-arm_gcc-4.5.1+l_uClibc-0.9.32_eabi/bin/../lib/gcc/arm-openwrt-linux-uclibcgnueabi/4.5.2/libgcc.a(_divsi3.o)
 .data          0x040259d0        0x0 /opt/Cortina/toolchain/toolchain-arm_gcc-4.5.1+l_uClibc-0.9.32_eabi/bin/../lib/gcc/arm-openwrt-linux-uclibcgnueabi/4.5.2/libgcc.a(_lshrdi3.o)
 .data          0x040259d0        0x0 /opt/Cortina/toolchain/toolchain-arm_gcc-4.5.1+l_uClibc-0.9.32_eabi/bin/../lib/gcc/arm-openwrt-linux-uclibcgnueabi/4.5.2/libgcc.a(_ashrdi3.o)
 .data          0x040259d0        0x0 /opt/Cortina/toolchain/toolchain-arm_gcc-4.5.1+l_uClibc-0.9.32_eabi/bin/../lib/gcc/arm-openwrt-linux-uclibcgnueabi/4.5.2/libgcc.a(_ashldi3.o)
 .data          0x040259d0        0x0 /opt/Cortina/toolchain/toolchain-arm_gcc-4.5.1+l_uClibc-0.9.32_eabi/bin/../lib/gcc/arm-openwrt-linux-uclibcgnueabi/4.5.2/libgcc.a(_dvmd_lnx.o)
                0x040259d0                . = ALIGN (0x4)

.got
 *(.got)
                0x040259d0                . = .
                0x040259d0                __u_boot_cmd_start = .

.u_boot_cmd     0x040259d0      0x3d8
 *(.u_boot_cmd)
 .u_boot_cmd    0x040259d0       0x30 drivers/net/libnet.a(g2_ni_mfe.o)
                0x040259d0                __u_boot_cmd_phy_reg
                0x040259e8                __u_boot_cmd_phy_test
 .u_boot_cmd    0x04025a00       0x18 common/libcommon.a(cmd_bdinfo.o)
                0x04025a00                __u_boot_cmd_bdinfo
 .u_boot_cmd    0x04025a18       0x30 common/libcommon.a(cmd_boot.o)
                0x04025a18                __u_boot_cmd_go
                0x04025a30                __u_boot_cmd_reset
 .u_boot_cmd    0x04025a48       0x30 common/libcommon.a(cmd_bootm.o)
                0x04025a48                __u_boot_cmd_bootm
                0x04025a60                __u_boot_cmd_iminfo
 .u_boot_cmd    0x04025a78       0x30 common/libcommon.a(cmd_load.o)
                0x04025a78                __u_boot_cmd_loadb
                0x04025a90                __u_boot_cmd_loady
 .u_boot_cmd    0x04025aa8       0xf0 common/libcommon.a(cmd_mem.o)
                0x04025aa8                __u_boot_cmd_md
                0x04025ac0                __u_boot_cmd_mm
                0x04025ad8                __u_boot_cmd_nm
                0x04025af0                __u_boot_cmd_mw
                0x04025b08                __u_boot_cmd_cp
                0x04025b20                __u_boot_cmd_cmp
                0x04025b38                __u_boot_cmd_crc32
                0x04025b50                __u_boot_cmd_base
                0x04025b68                __u_boot_cmd_loop
                0x04025b80                __u_boot_cmd_mtest
 .u_boot_cmd    0x04025b98       0x30 common/libcommon.a(cmd_nand.o)
                0x04025b98                __u_boot_cmd_nand
                0x04025bb0                __u_boot_cmd_nboot
 .u_boot_cmd    0x04025bc8       0x60 common/libcommon.a(cmd_net.o)
                0x04025bc8                __u_boot_cmd_bootp
                0x04025be0                __u_boot_cmd_tftpboot
                0x04025bf8                __u_boot_cmd_rarpboot
                0x04025c10                __u_boot_cmd_ping
 .u_boot_cmd    0x04025c28       0x60 common/libcommon.a(cmd_nvedit.o)
                0x04025c28                __u_boot_cmd_saveenv
                0x04025c40                __u_boot_cmd_printenv
                0x04025c58                __u_boot_cmd_setenv
                0x04025c70                __u_boot_cmd_run
 .u_boot_cmd    0x04025c88       0x30 common/libcommon.a(cmd_recovery.o)
                0x04025c88                __u_boot_cmd_recovery
                0x04025ca0                __u_boot_cmd_savefs
 .u_boot_cmd    0x04025cb8       0x48 common/libcommon.a(command.o)
                0x04025cb8                __u_boot_cmd_version
                0x04025cd0                __u_boot_cmd_help
                0x04025ce8                __u_boot_cmd_question_mark
 .u_boot_cmd    0x04025d00       0x60 drivers/net/rtl83xx-1.3.0/librtl83xx.a(rtl83xx_main.o)
                0x04025d00                __u_boot_cmd_sw_init
                0x04025d18                __u_boot_cmd_sw_delay
                0x04025d30                __u_boot_cmd_sw_link
                0x04025d48                __u_boot_cmd_sw_reg
 .u_boot_cmd    0x04025d60       0x48 board/futuretek/ftm-100s/libftm-100s.a(cmd_ftm_100s.o)
                0x04025d60                __u_boot_cmd_sb_display
                0x04025d78                __u_boot_cmd_sb_set_flags
                0x04025d90                __u_boot_cmd_sb_process
                0x04025da8                __u_boot_cmd_end = .
                0x04025da8                . = ALIGN (0x4)
                0x04025da8                __bss_start = .

.bss            0x04028000    0x280ac
 *(.bss)
 .bss           0x04028000        0x0 cpu/arm_cortexa9/start.o
 .bss           0x04028000        0x4 lib_arm/libarm.a(board.o)
                0x04028000                monitor_flash_len
 .bss           0x04028004        0x0 lib_arm/libarm.a(interrupts.o)
 .bss           0x04028004       0x14 net/libnet.a(eth.o)
 .bss           0x04028018     0x25e4 net/libnet.a(net.o)
                0x04028018                NetState
                0x0402801c                NetPingIP
                0x04028038                NetRestartWrap
                0x04028040                NetOurEther
                0x04028048                NetRxPacket
                0x0402804c                NetRxPacketLen
                0x04028050                NetOurIP
                0x04028054                NetArpWaitPacketIP
                0x04028058                NetArpWaitPacketMAC
                0x0402805c                NetArpWaitReplyIP
                0x04028060                NetArpWaitTxPacket
                0x04028064                NetArpWaitTxPacketSize
                0x04028068                NetServerIP
                0x0402806c                NetServerEther
                0x04028074                NetTxPacket
                0x04028078                NetOurSubnetMask
                0x0402807c                NetOurGatewayIP
                0x04028080                NetArpWaitTimerStart
                0x04028084                NetArpWaitTry
                0x0402808e                NetEtherNullAddr
                0x04028094                NetIPID
                0x0402809a                PktBuf
                0x04029ebc                NetRxPackets
                0x04029ecc                NetArpWaitPacketBuf
                0x0402a4f0                NetBootFileXferSize
                0x0402a4f4                NetOurDNSIP
                0x0402a4f8                NetOurNISDomain
                0x0402a518                NetOurHostName
                0x0402a538                NetOurRootPath
                0x0402a578                NetBootFileSize
                0x0402a57a                BootFile
 .bss           0x0402a5fc        0x4 net/libnet.a(rarp.o)
                0x0402a5fc                RarpTry
 .bss           0x0402a600       0xb4 net/libnet.a(tftp.o)
 .bss           0x0402a6b4        0x8 net/libnet.a(bootp.o)
                0x0402a6b4                BootpID
                0x0402a6b8                BootpTry
 *fill*         0x0402a6bc        0x4 00
 .bss           0x0402a6c0      0x560 drivers/mtd/nand/libnand.a(cs75xx_nand.o)
                0x0402a8a0                flash_status
                0x0402a8a4                flash_type
                0x0402a8a8                nf_cnt
                0x0402a8ac                nf_cmd
                0x0402a8b0                nf_addr1
                0x0402a8b4                nf_addr2
                0x0402a8b8                nf_access
                0x0402a8bc                flash_start
                0x0402a8c0                ecc_reset
                0x0402a8cc                flash_int_sts
                0x0402a8d0                ecc_ctl
                0x0402a8d4                dma_txq5_ctrl
                0x0402a8d8                dma_ssp_txq5_intsts
                0x0402a8dc                dma_ssp_rxq5_intsts
                0x0402a8e0                dma_txq5_wptr
                0x0402a8e4                tx_desc
                0x0402a8e8                dma_rxq5_rptr
                0x0402a8ec                rx_desc
                0x0402a8f0                fifo_ctl
                0x0402a8f4                ecc_sts
                0x0402a8f8                ecc_gen0
                0x0402a8fc                ecc_oob
                0x0402a900                bch_ctrl
                0x0402aacc                global_strap
                0x0402aad0                nf_data
                0x0402aad4                ecc_gen1
                0x0402aad8                ecc_gen2
                0x0402aadc                ecc_gen3
                0x0402aae0                ecc_gen4
                0x0402aae4                ecc_gen5
                0x0402aae8                ecc_gen6
                0x0402aaec                ecc_gen7
                0x0402aaf0                ecc_gen8
                0x0402aaf4                ecc_gen9
                0x0402aaf8                ecc_gen10
                0x0402aafc                ecc_gen11
                0x0402ab00                ecc_gen12
                0x0402ab04                ecc_gen13
                0x0402ab08                ecc_gen14
                0x0402ab0c                ecc_gen15
                0x0402ab10                fifo_sts
                0x0402ab14                fifo_addr
                0x0402ab18                dido_data
                0x0402ab1c                flash_int_mask
                0x0402ab20                bch_sts
                0x0402ab24                bch_err_loc01
                0x0402ab28                bch_err_loc23
                0x0402ab2c                bch_err_loc45
                0x0402ab30                bch_err_loc67
                0x0402ab34                bch_oob0
                0x0402ab38                bch_oob1
                0x0402ab3c                bch_oob2
                0x0402ab40                bch_oob3
                0x0402ab44                bch_oob4
                0x0402ab48                bch_gen00
                0x0402ab4c                bch_gen01
                0x0402ab50                bch_gen02
                0x0402ab54                bch_gen03
                0x0402ab58                bch_gen04
                0x0402ab5c                bch_gen10
                0x0402ab60                bch_gen11
                0x0402ab64                bch_gen12
                0x0402ab68                bch_gen13
                0x0402ab6c                bch_gen20
                0x0402ab70                bch_gen21
                0x0402ab74                bch_gen22
                0x0402ab78                bch_gen23
                0x0402ab7c                bch_gen30
                0x0402ab80                bch_gen31
                0x0402ab84                bch_gen32
                0x0402ab88                bch_gen33
                0x0402ab8c                bch_gen40
                0x0402ab90                bch_gen41
                0x0402ab94                bch_gen42
                0x0402ab98                bch_gen43
                0x0402ab9c                bch_gen50
                0x0402aba0                bch_gen51
                0x0402aba4                bch_gen52
                0x0402aba8                bch_gen53
                0x0402abac                bch_gen60
                0x0402abb0                bch_gen61
                0x0402abb4                bch_gen62
                0x0402abb8                bch_gen63
                0x0402abbc                bch_gen70
                0x0402abc0                bch_gen71
                0x0402abc4                bch_gen72
                0x0402abc8                bch_gen73
                0x0402abcc                dma_rxdma_ctrl
                0x0402abd0                dma_txdma_ctrl
                0x0402abd4                dma_rxq5_pktcnt_read
                0x0402abd8                dma_txq5_pktcnt_read
                0x0402abdc                dma_rxq5_base_depth
                0x0402abe0                dma_rxq5_wptr
                0x0402abe4                dma_txq5_base_depth
                0x0402abe8                dma_txq5_rptr
                0x0402abec                dma_rxq5_threshold
                0x0402abf0                dma_rxq5_pktcnt
                0x0402abf4                dma_rxq5_drop_pktcnt
                0x0402abf8                dma_txq5_pktcnt
                0x0402abfc                dma_ssp0_intsts
                0x0402ac00                dma_ssp0_int_enable
                0x0402ac04                dma_ssp1_intsts
                0x0402ac08                dma_ssp1_int_enable
                0x0402ac0c                dma_ssp_desc_intsts
                0x0402ac10                dma_ssp_desc_int_enable
                0x0402ac14                dma_ssp_rxq5_int_enable
                0x0402ac18                dma_ssp_txq5_int_enable
                0x0402ac1c                tmp_access
 .bss           0x0402ac20       0xb0 drivers/mtd/nand/libnand.a(nand.o)
                0x0402ac20                nand_info
 .bss           0x0402acd0        0x0 drivers/mtd/nand/libnand.a(nand_bbt.o)
 .bss           0x0402acd0        0x0 drivers/mtd/nand/libnand.a(nand_ids.o)
 .bss           0x0402acd0        0x4 drivers/net/libnet.a(g2_ni_mfe.o)
 .bss           0x0402acd4       0x18 drivers/serial/libserial.a(serial_cs752x.o)
                0x0402ace8                gs2_flag
 .bss           0x0402acec        0x0 common/libcommon.a(cmd_bdinfo.o)
 .bss           0x0402acec        0x0 common/libcommon.a(cmd_boot.o)
 .bss           0x0402acec      0x12c common/libcommon.a(cmd_bootm.o)
 .bss           0x0402ae18       0x60 common/libcommon.a(cmd_load.o)
                0x0402ae24                his_pad_count
                0x0402ae28                his_pad_char
                0x0402ae41                his_eol
                0x0402ae48                os_data_init
                0x0402ae58                os_data_char
                0x0402ae5c                his_quote
                0x0402ae60                send_ptr
                0x0402ae64                send_parms
 .bss           0x0402ae78       0x14 common/libcommon.a(cmd_mem.o)
                0x0402ae7c                mm_last_addr
                0x0402ae80                mm_last_size
                0x0402ae84                dp_last_addr
                0x0402ae88                dp_last_size
 .bss           0x0402ae8c        0x0 common/libcommon.a(cmd_nand.o)
 .bss           0x0402ae8c        0x0 common/libcommon.a(cmd_net.o)
 .bss           0x0402ae8c        0x0 common/libcommon.a(cmd_nvedit.o)
 .bss           0x0402ae8c    0x20004 common/libcommon.a(cmd_recovery.o)
                0x0402ae8c                error
                0x0402ae90                _flash_buff
 .bss           0x0404ae90        0x0 common/libcommon.a(command.o)
 .bss           0x0404ae90        0x8 common/libcommon.a(console.o)
 .bss           0x0404ae98       0x44 common/libcommon.a(dlmalloc.o)
                0x0404ae98                mem_malloc_brk
                0x0404ae9c                mem_malloc_start
                0x0404aea0                mem_malloc_end
 .bss           0x0404aedc        0x0 common/libcommon.a(env_common.o)
 .bss           0x0404aedc        0x4 common/libcommon.a(env_nand.o)
                0x0404aedc                env_ptr
 .bss           0x0404aee0        0x0 common/libcommon.a(exports.o)
 .bss           0x0404aee0        0x0 common/libcommon.a(image.o)
 .bss           0x0404aee0      0x800 common/libcommon.a(main.o)
                0x0404aee0                console_buffer
 .bss           0x0404b6e0       0x48 common/libcommon.a(stdio.o)
                0x0404b71c                stdio_devices
 .bss           0x0404b728      0x43c common/libcommon.a(xyzModem.o)
 .bss           0x0404bb64        0x0 drivers/net/rtl83xx-1.3.0/librtl83xx.a(rtl83xx_main.o)
 .bss           0x0404bb64        0x0 drivers/net/rtl83xx-1.3.0/librtl83xx.a(rtk_api.o)
 .bss           0x0404bb64        0x0 drivers/net/rtl83xx-1.3.0/librtl83xx.a(rtl8370_asicdrv.o)
 .bss           0x0404bb64        0x0 drivers/net/rtl83xx-1.3.0/librtl83xx.a(rtl8370_asicdrv_port.o)
 .bss           0x0404bb64        0x0 drivers/net/rtl83xx-1.3.0/librtl83xx.a(rtl8370_asicdrv_phy.o)
 .bss           0x0404bb64        0x0 drivers/net/rtl83xx-1.3.0/librtl83xx.a(rtl8370_asicdrv_lut.o)
 .bss           0x0404bb64        0x0 drivers/net/rtl83xx-1.3.0/librtl83xx.a(smi.o)
 *fill*         0x0404bb64      0x49c 00
 .bss           0x0404c000     0x4000 board/futuretek/ftm-100s/libftm-100s.a(ftm_100s.o)
 .bss           0x04050000       0x10 board/futuretek/ftm-100s/libftm-100s.a(watchdog.o)
 .bss           0x04050010        0x0 board/futuretek/ftm-100s/libftm-100s.a(lowlevel_init.o)
 .bss           0x04050010       0x14 board/futuretek/ftm-100s/libftm-100s.a(cmd_ftm_100s.o)
 .bss           0x04050024       0x24 board/futuretek/ftm-100s/libftm-100s.a(csmi_uboot_cmds.o)
 .bss           0x04050048       0x34 board/futuretek/ftm-100s/libftm-100s.a(csmi_user.o)
 .bss           0x0405007c        0x0 lib_generic/libgeneric.a(crc16.o)
 .bss           0x0405007c        0x0 lib_generic/libgeneric.a(crc32.o)
 .bss           0x0405007c        0x0 lib_generic/libgeneric.a(display_options.o)
 .bss           0x0405007c        0x0 lib_generic/libgeneric.a(gunzip.o)
 .bss           0x0405007c        0x0 lib_generic/libgeneric.a(lmb.o)
 .bss           0x0405007c        0x0 lib_generic/libgeneric.a(md5.o)
 .bss           0x0405007c        0x4 lib_generic/libgeneric.a(string.o)
                0x0405007c                ___strtok
 .bss           0x04050080        0x0 lib_generic/libgeneric.a(vsprintf.o)
 .bss           0x04050080        0x0 lib_generic/libgeneric.a(zlib.o)
 .bss           0x04050080        0x0 lib_generic/libgeneric.a(ctype.o)
 .bss           0x04050080        0x0 cpu/arm_cortexa9/libarm_cortexa9.a(cpu.o)
 .bss           0x04050080       0x28 cpu/arm_cortexa9/goldengate/libgoldengate.a(timer.o)
 .bss           0x040500a8        0x4 lib_arm/libarm.a(bootm.o)
 .bss           0x040500ac        0x0 lib_arm/libarm.a(cache.o)
 .bss           0x040500ac        0x0 lib_arm/libarm.a(cache-cp15.o)
 .bss           0x040500ac        0x0 drivers/mtd/nand/libnand.a(nand_util.o)
 .bss           0x040500ac        0x0 lib_generic/libgeneric.a(div64.o)
 .bss           0x040500ac        0x0 /home/xtra/Work/ftm-100s/u-boot/lib_arm/eabi_compat.o
 .bss           0x040500ac        0x0 /opt/Cortina/toolchain/toolchain-arm_gcc-4.5.1+l_uClibc-0.9.32_eabi/bin/../lib/gcc/arm-openwrt-linux-uclibcgnueabi/4.5.2/libgcc.a(_udivsi3.o)
 .bss           0x040500ac        0x0 /opt/Cortina/toolchain/toolchain-arm_gcc-4.5.1+l_uClibc-0.9.32_eabi/bin/../lib/gcc/arm-openwrt-linux-uclibcgnueabi/4.5.2/libgcc.a(_divsi3.o)
 .bss           0x040500ac        0x0 /opt/Cortina/toolchain/toolchain-arm_gcc-4.5.1+l_uClibc-0.9.32_eabi/bin/../lib/gcc/arm-openwrt-linux-uclibcgnueabi/4.5.2/libgcc.a(_lshrdi3.o)
 .bss           0x040500ac        0x0 /opt/Cortina/toolchain/toolchain-arm_gcc-4.5.1+l_uClibc-0.9.32_eabi/bin/../lib/gcc/arm-openwrt-linux-uclibcgnueabi/4.5.2/libgcc.a(_ashrdi3.o)
 .bss           0x040500ac        0x0 /opt/Cortina/toolchain/toolchain-arm_gcc-4.5.1+l_uClibc-0.9.32_eabi/bin/../lib/gcc/arm-openwrt-linux-uclibcgnueabi/4.5.2/libgcc.a(_ashldi3.o)
 .bss           0x040500ac        0x0 /opt/Cortina/toolchain/toolchain-arm_gcc-4.5.1+l_uClibc-0.9.32_eabi/bin/../lib/gcc/arm-openwrt-linux-uclibcgnueabi/4.5.2/libgcc.a(_dvmd_lnx.o)
                0x040500ac                _end = .
Address of section .text set to 0x4000000
LOAD cpu/arm_cortexa9/start.o
START GROUP
LOAD lib_generic/libgeneric.a
LOAD lib_generic/lzma/liblzma.a
LOAD lib_generic/lzo/liblzo.a
LOAD lib_openssl/libopenssl.a
LOAD cpu/arm_cortexa9/libarm_cortexa9.a
LOAD cpu/arm_cortexa9/goldengate/libgoldengate.a
LOAD lib_arm/libarm.a
LOAD fs/cramfs/libcramfs.a
LOAD fs/fat/libfat.a
LOAD fs/fdos/libfdos.a
LOAD fs/jffs2/libjffs2.a
LOAD fs/reiserfs/libreiserfs.a
LOAD fs/ext2/libext2fs.a
LOAD fs/yaffs2/libyaffs2.a
LOAD fs/ubifs/libubifs.a
LOAD net/libnet.a
LOAD disk/libdisk.a
LOAD drivers/bios_emulator/libatibiosemu.a
LOAD drivers/block/libblock.a
LOAD drivers/dma/libdma.a
LOAD drivers/fpga/libfpga.a
LOAD drivers/gpio/libgpio.a
LOAD drivers/hwmon/libhwmon.a
LOAD drivers/i2c/libi2c.a
LOAD drivers/input/libinput.a
LOAD drivers/misc/libmisc.a
LOAD drivers/mmc/libmmc.a
LOAD drivers/mtd/libmtd.a
LOAD drivers/mtd/nand/libnand.a
LOAD drivers/mtd/onenand/libonenand.a
LOAD drivers/mtd/ubi/libubi.a
LOAD drivers/mtd/spi/libspi_flash.a
LOAD drivers/net/libnet.a
LOAD drivers/net/phy/libphy.a
LOAD drivers/net/sk98lin/libsk98lin.a
LOAD drivers/pci/libpci.a
LOAD drivers/pcmcia/libpcmcia.a
LOAD drivers/power/libpower.a
LOAD drivers/spi/libspi.a
LOAD drivers/rtc/librtc.a
LOAD drivers/serial/libserial.a
LOAD drivers/twserial/libtws.a
LOAD drivers/usb/gadget/libusb_gadget.a
LOAD drivers/usb/host/libusb_host.a
LOAD drivers/usb/musb/libusb_musb.a
LOAD drivers/video/libvideo.a
LOAD drivers/watchdog/libwatchdog.a
LOAD common/libcommon.a
LOAD libfdt/libfdt.a
LOAD api/libapi.a
LOAD post/libpost.a
LOAD drivers/net/rtl83xx-1.3.0/librtl83xx.a
LOAD board/futuretek/ftm-100s/libftm-100s.a
END GROUP
LOAD /home/xtra/Work/ftm-100s/u-boot/lib_arm/eabi_compat.o
LOAD /opt/Cortina/toolchain/toolchain-arm_gcc-4.5.1+l_uClibc-0.9.32_eabi/bin/../lib/gcc/arm-openwrt-linux-uclibcgnueabi/4.5.2/libgcc.a
OUTPUT(u-boot elf32-littlearm)

.ARM.attributes
                0x00000000       0x2d
 .ARM.attributes
                0x00000000       0x1d cpu/arm_cortexa9/start.o
 .ARM.attributes
                0x0000001d       0x2d lib_arm/libarm.a(board.o)
 .ARM.attributes
                0x0000004a       0x2d lib_arm/libarm.a(interrupts.o)
 .ARM.attributes
                0x00000077       0x2d net/libnet.a(eth.o)
 .ARM.attributes
                0x000000a4       0x2d net/libnet.a(net.o)
 .ARM.attributes
                0x000000d1       0x2d net/libnet.a(rarp.o)
 .ARM.attributes
                0x000000fe       0x2d net/libnet.a(tftp.o)
 .ARM.attributes
                0x0000012b       0x2d net/libnet.a(bootp.o)
 .ARM.attributes
                0x00000158       0x2d drivers/mtd/nand/libnand.a(cs75xx_nand.o)
 .ARM.attributes
                0x00000185       0x2d drivers/mtd/nand/libnand.a(nand.o)
 .ARM.attributes
                0x000001b2       0x2d drivers/mtd/nand/libnand.a(nand_bbt.o)
 .ARM.attributes
                0x000001df       0x2d drivers/mtd/nand/libnand.a(nand_ids.o)
 .ARM.attributes
                0x0000020c       0x2d drivers/net/libnet.a(g2_ni_mfe.o)
 .ARM.attributes
                0x00000239       0x2d drivers/serial/libserial.a(serial_cs752x.o)
 .ARM.attributes
                0x00000266       0x2d common/libcommon.a(cmd_bdinfo.o)
 .ARM.attributes
                0x00000293       0x2d common/libcommon.a(cmd_boot.o)
 .ARM.attributes
                0x000002c0       0x2d common/libcommon.a(cmd_bootm.o)
 .ARM.attributes
                0x000002ed       0x2d common/libcommon.a(cmd_load.o)
 .ARM.attributes
                0x0000031a       0x2d common/libcommon.a(cmd_mem.o)
 .ARM.attributes
                0x00000347       0x2d common/libcommon.a(cmd_nand.o)
 .ARM.attributes
                0x00000374       0x2d common/libcommon.a(cmd_net.o)
 .ARM.attributes
                0x000003a1       0x2d common/libcommon.a(cmd_nvedit.o)
 .ARM.attributes
                0x000003ce       0x2d common/libcommon.a(cmd_recovery.o)
 .ARM.attributes
                0x000003fb       0x2d common/libcommon.a(command.o)
 .ARM.attributes
                0x00000428       0x2d common/libcommon.a(console.o)
 .ARM.attributes
                0x00000455       0x2d common/libcommon.a(dlmalloc.o)
 .ARM.attributes
                0x00000482       0x2d common/libcommon.a(env_common.o)
 .ARM.attributes
                0x000004af       0x2d common/libcommon.a(env_nand.o)
 .ARM.attributes
                0x000004dc       0x2d common/libcommon.a(exports.o)
 .ARM.attributes
                0x00000509       0x2d common/libcommon.a(image.o)
 .ARM.attributes
                0x00000536       0x2d common/libcommon.a(main.o)
 .ARM.attributes
                0x00000563       0x2d common/libcommon.a(stdio.o)
 .ARM.attributes
                0x00000590       0x2d common/libcommon.a(xyzModem.o)
 .ARM.attributes
                0x000005bd       0x2d drivers/net/rtl83xx-1.3.0/librtl83xx.a(rtl83xx_main.o)
 .ARM.attributes
                0x000005ea       0x2d drivers/net/rtl83xx-1.3.0/librtl83xx.a(rtk_api.o)
 .ARM.attributes
                0x00000617       0x2d drivers/net/rtl83xx-1.3.0/librtl83xx.a(rtl8370_asicdrv.o)
 .ARM.attributes
                0x00000644       0x2d drivers/net/rtl83xx-1.3.0/librtl83xx.a(rtl8370_asicdrv_port.o)
 .ARM.attributes
                0x00000671       0x2d drivers/net/rtl83xx-1.3.0/librtl83xx.a(rtl8370_asicdrv_phy.o)
 .ARM.attributes
                0x0000069e       0x2d drivers/net/rtl83xx-1.3.0/librtl83xx.a(rtl8370_asicdrv_lut.o)
 .ARM.attributes
                0x000006cb       0x2d drivers/net/rtl83xx-1.3.0/librtl83xx.a(smi.o)
 .ARM.attributes
                0x000006f8       0x2d board/futuretek/ftm-100s/libftm-100s.a(ftm_100s.o)
 .ARM.attributes
                0x00000725       0x2d board/futuretek/ftm-100s/libftm-100s.a(watchdog.o)
 .ARM.attributes
                0x00000752       0x1d board/futuretek/ftm-100s/libftm-100s.a(lowlevel_init.o)
 .ARM.attributes
                0x0000076f       0x2d board/futuretek/ftm-100s/libftm-100s.a(cmd_ftm_100s.o)
 .ARM.attributes
                0x0000079c       0x2d board/futuretek/ftm-100s/libftm-100s.a(csmi_uboot_cmds.o)
 .ARM.attributes
                0x000007c9       0x2d board/futuretek/ftm-100s/libftm-100s.a(csmi_user.o)
 .ARM.attributes
                0x000007f6       0x2d lib_generic/libgeneric.a(crc16.o)
 .ARM.attributes
                0x00000823       0x2d lib_generic/libgeneric.a(crc32.o)
 .ARM.attributes
                0x00000850       0x2d lib_generic/libgeneric.a(display_options.o)
 .ARM.attributes
                0x0000087d       0x2d lib_generic/libgeneric.a(gunzip.o)
 .ARM.attributes
                0x000008aa       0x2d lib_generic/libgeneric.a(lmb.o)
 .ARM.attributes
                0x000008d7       0x2d lib_generic/libgeneric.a(md5.o)
 .ARM.attributes
                0x00000904       0x2d lib_generic/libgeneric.a(string.o)
 .ARM.attributes
                0x00000931       0x2d lib_generic/libgeneric.a(vsprintf.o)
 .ARM.attributes
                0x0000095e       0x2d lib_generic/libgeneric.a(zlib.o)
 .ARM.attributes
                0x0000098b       0x2d lib_generic/libgeneric.a(ctype.o)
 .ARM.attributes
                0x000009b8       0x2d cpu/arm_cortexa9/libarm_cortexa9.a(cpu.o)
 .ARM.attributes
                0x000009e5       0x2d cpu/arm_cortexa9/goldengate/libgoldengate.a(timer.o)
 .ARM.attributes
                0x00000a12       0x2d lib_arm/libarm.a(bootm.o)
 .ARM.attributes
                0x00000a3f       0x2d lib_arm/libarm.a(cache.o)
 .ARM.attributes
                0x00000a6c       0x2d lib_arm/libarm.a(cache-cp15.o)
 .ARM.attributes
                0x00000a99       0x2d drivers/mtd/nand/libnand.a(nand_util.o)
 .ARM.attributes
                0x00000ac6       0x2d lib_generic/libgeneric.a(div64.o)
 .ARM.attributes
                0x00000af3       0x2d /home/xtra/Work/ftm-100s/u-boot/lib_arm/eabi_compat.o
 .ARM.attributes
                0x00000b20       0x23 /opt/Cortina/toolchain/toolchain-arm_gcc-4.5.1+l_uClibc-0.9.32_eabi/bin/../lib/gcc/arm-openwrt-linux-uclibcgnueabi/4.5.2/libgcc.a(_udivsi3.o)
 .ARM.attributes
                0x00000b43       0x23 /opt/Cortina/toolchain/toolchain-arm_gcc-4.5.1+l_uClibc-0.9.32_eabi/bin/../lib/gcc/arm-openwrt-linux-uclibcgnueabi/4.5.2/libgcc.a(_divsi3.o)
 .ARM.attributes
                0x00000b66       0x23 /opt/Cortina/toolchain/toolchain-arm_gcc-4.5.1+l_uClibc-0.9.32_eabi/bin/../lib/gcc/arm-openwrt-linux-uclibcgnueabi/4.5.2/libgcc.a(_lshrdi3.o)
 .ARM.attributes
                0x00000b89       0x23 /opt/Cortina/toolchain/toolchain-arm_gcc-4.5.1+l_uClibc-0.9.32_eabi/bin/../lib/gcc/arm-openwrt-linux-uclibcgnueabi/4.5.2/libgcc.a(_ashrdi3.o)
 .ARM.attributes
                0x00000bac       0x23 /opt/Cortina/toolchain/toolchain-arm_gcc-4.5.1+l_uClibc-0.9.32_eabi/bin/../lib/gcc/arm-openwrt-linux-uclibcgnueabi/4.5.2/libgcc.a(_ashldi3.o)
 .ARM.attributes
                0x00000bcf       0x23 /opt/Cortina/toolchain/toolchain-arm_gcc-4.5.1+l_uClibc-0.9.32_eabi/bin/../lib/gcc/arm-openwrt-linux-uclibcgnueabi/4.5.2/libgcc.a(_dvmd_lnx.o)

.comment        0x00000000       0x3b
 .comment       0x00000000       0x3b lib_arm/libarm.a(board.o)
                                 0x3c (size before relaxing)
 .comment       0x00000000       0x3c lib_arm/libarm.a(interrupts.o)
 .comment       0x00000000       0x3c net/libnet.a(eth.o)
 .comment       0x00000000       0x3c net/libnet.a(net.o)
 .comment       0x00000000       0x3c net/libnet.a(rarp.o)
 .comment       0x00000000       0x3c net/libnet.a(tftp.o)
 .comment       0x00000000       0x3c net/libnet.a(bootp.o)
 .comment       0x00000000       0x3c drivers/mtd/nand/libnand.a(cs75xx_nand.o)
 .comment       0x00000000       0x3c drivers/mtd/nand/libnand.a(nand.o)
 .comment       0x00000000       0x3c drivers/mtd/nand/libnand.a(nand_bbt.o)
 .comment       0x00000000       0x3c drivers/mtd/nand/libnand.a(nand_ids.o)
 .comment       0x00000000       0x3c drivers/net/libnet.a(g2_ni_mfe.o)
 .comment       0x00000000       0x3c drivers/serial/libserial.a(serial_cs752x.o)
 .comment       0x00000000       0x3c common/libcommon.a(cmd_bdinfo.o)
 .comment       0x00000000       0x3c common/libcommon.a(cmd_boot.o)
 .comment       0x00000000       0x3c common/libcommon.a(cmd_bootm.o)
 .comment       0x00000000       0x3c common/libcommon.a(cmd_load.o)
 .comment       0x00000000       0x3c common/libcommon.a(cmd_mem.o)
 .comment       0x00000000       0x3c common/libcommon.a(cmd_nand.o)
 .comment       0x00000000       0x3c common/libcommon.a(cmd_net.o)
 .comment       0x00000000       0x3c common/libcommon.a(cmd_nvedit.o)
 .comment       0x00000000       0x3c common/libcommon.a(cmd_recovery.o)
 .comment       0x00000000       0x3c common/libcommon.a(command.o)
 .comment       0x00000000       0x3c common/libcommon.a(console.o)
 .comment       0x00000000       0x3c common/libcommon.a(dlmalloc.o)
 .comment       0x00000000       0x3c common/libcommon.a(env_common.o)
 .comment       0x00000000       0x3c common/libcommon.a(env_nand.o)
 .comment       0x00000000       0x3c common/libcommon.a(exports.o)
 .comment       0x00000000       0x3c common/libcommon.a(image.o)
 .comment       0x00000000       0x3c common/libcommon.a(main.o)
 .comment       0x00000000       0x3c common/libcommon.a(stdio.o)
 .comment       0x00000000       0x3c common/libcommon.a(xyzModem.o)
 .comment       0x00000000       0x3c drivers/net/rtl83xx-1.3.0/librtl83xx.a(rtl83xx_main.o)
 .comment       0x00000000       0x3c drivers/net/rtl83xx-1.3.0/librtl83xx.a(rtk_api.o)
 .comment       0x00000000       0x3c drivers/net/rtl83xx-1.3.0/librtl83xx.a(rtl8370_asicdrv.o)
 .comment       0x00000000       0x3c drivers/net/rtl83xx-1.3.0/librtl83xx.a(rtl8370_asicdrv_port.o)
 .comment       0x00000000       0x3c drivers/net/rtl83xx-1.3.0/librtl83xx.a(rtl8370_asicdrv_phy.o)
 .comment       0x00000000       0x3c drivers/net/rtl83xx-1.3.0/librtl83xx.a(rtl8370_asicdrv_lut.o)
 .comment       0x00000000       0x3c drivers/net/rtl83xx-1.3.0/librtl83xx.a(smi.o)
 .comment       0x00000000       0x3c board/futuretek/ftm-100s/libftm-100s.a(ftm_100s.o)
 .comment       0x00000000       0x3c board/futuretek/ftm-100s/libftm-100s.a(watchdog.o)
 .comment       0x00000000       0x3c board/futuretek/ftm-100s/libftm-100s.a(cmd_ftm_100s.o)
 .comment       0x00000000       0x3c board/futuretek/ftm-100s/libftm-100s.a(csmi_uboot_cmds.o)
 .comment       0x00000000       0x3c board/futuretek/ftm-100s/libftm-100s.a(csmi_user.o)
 .comment       0x00000000       0x3c lib_generic/libgeneric.a(crc16.o)
 .comment       0x00000000       0x3c lib_generic/libgeneric.a(crc32.o)
 .comment       0x00000000       0x3c lib_generic/libgeneric.a(display_options.o)
 .comment       0x00000000       0x3c lib_generic/libgeneric.a(gunzip.o)
 .comment       0x00000000       0x3c lib_generic/libgeneric.a(lmb.o)
 .comment       0x00000000       0x3c lib_generic/libgeneric.a(md5.o)
 .comment       0x00000000       0x3c lib_generic/libgeneric.a(string.o)
 .comment       0x00000000       0x3c lib_generic/libgeneric.a(vsprintf.o)
 .comment       0x00000000       0x3c lib_generic/libgeneric.a(zlib.o)
 .comment       0x00000000       0x3c lib_generic/libgeneric.a(ctype.o)
 .comment       0x00000000       0x3c cpu/arm_cortexa9/libarm_cortexa9.a(cpu.o)
 .comment       0x00000000       0x3c cpu/arm_cortexa9/goldengate/libgoldengate.a(timer.o)
 .comment       0x00000000       0x3c lib_arm/libarm.a(bootm.o)
 .comment       0x00000000       0x3c lib_arm/libarm.a(cache.o)
 .comment       0x00000000       0x3c lib_arm/libarm.a(cache-cp15.o)
 .comment       0x00000000       0x3c drivers/mtd/nand/libnand.a(nand_util.o)
 .comment       0x00000000       0x3c lib_generic/libgeneric.a(div64.o)
 .comment       0x00000000       0x3c /home/xtra/Work/ftm-100s/u-boot/lib_arm/eabi_compat.o

.note.GNU-stack
                0x00000000        0x0
 .note.GNU-stack
                0x00000000        0x0 lib_arm/libarm.a(board.o)
 .note.GNU-stack
                0x00000000        0x0 lib_arm/libarm.a(interrupts.o)
 .note.GNU-stack
                0x00000000        0x0 net/libnet.a(eth.o)
 .note.GNU-stack
                0x00000000        0x0 net/libnet.a(net.o)
 .note.GNU-stack
                0x00000000        0x0 net/libnet.a(rarp.o)
 .note.GNU-stack
                0x00000000        0x0 net/libnet.a(tftp.o)
 .note.GNU-stack
                0x00000000        0x0 net/libnet.a(bootp.o)
 .note.GNU-stack
                0x00000000        0x0 drivers/mtd/nand/libnand.a(cs75xx_nand.o)
 .note.GNU-stack
                0x00000000        0x0 drivers/mtd/nand/libnand.a(nand.o)
 .note.GNU-stack
                0x00000000        0x0 drivers/mtd/nand/libnand.a(nand_bbt.o)
 .note.GNU-stack
                0x00000000        0x0 drivers/mtd/nand/libnand.a(nand_ids.o)
 .note.GNU-stack
                0x00000000        0x0 drivers/net/libnet.a(g2_ni_mfe.o)
 .note.GNU-stack
                0x00000000        0x0 drivers/serial/libserial.a(serial_cs752x.o)
 .note.GNU-stack
                0x00000000        0x0 common/libcommon.a(cmd_bdinfo.o)
 .note.GNU-stack
                0x00000000        0x0 common/libcommon.a(cmd_boot.o)
 .note.GNU-stack
                0x00000000        0x0 common/libcommon.a(cmd_bootm.o)
 .note.GNU-stack
                0x00000000        0x0 common/libcommon.a(cmd_load.o)
 .note.GNU-stack
                0x00000000        0x0 common/libcommon.a(cmd_mem.o)
 .note.GNU-stack
                0x00000000        0x0 common/libcommon.a(cmd_nand.o)
 .note.GNU-stack
                0x00000000        0x0 common/libcommon.a(cmd_net.o)
 .note.GNU-stack
                0x00000000        0x0 common/libcommon.a(cmd_nvedit.o)
 .note.GNU-stack
                0x00000000        0x0 common/libcommon.a(cmd_recovery.o)
 .note.GNU-stack
                0x00000000        0x0 common/libcommon.a(command.o)
 .note.GNU-stack
                0x00000000        0x0 common/libcommon.a(console.o)
 .note.GNU-stack
                0x00000000        0x0 common/libcommon.a(dlmalloc.o)
 .note.GNU-stack
                0x00000000        0x0 common/libcommon.a(env_common.o)
 .note.GNU-stack
                0x00000000        0x0 common/libcommon.a(env_nand.o)
 .note.GNU-stack
                0x00000000        0x0 common/libcommon.a(exports.o)
 .note.GNU-stack
                0x00000000        0x0 common/libcommon.a(image.o)
 .note.GNU-stack
                0x00000000        0x0 common/libcommon.a(main.o)
 .note.GNU-stack
                0x00000000        0x0 common/libcommon.a(stdio.o)
 .note.GNU-stack
                0x00000000        0x0 common/libcommon.a(xyzModem.o)
 .note.GNU-stack
                0x00000000        0x0 drivers/net/rtl83xx-1.3.0/librtl83xx.a(rtl83xx_main.o)
 .note.GNU-stack
                0x00000000        0x0 drivers/net/rtl83xx-1.3.0/librtl83xx.a(rtk_api.o)
 .note.GNU-stack
                0x00000000        0x0 drivers/net/rtl83xx-1.3.0/librtl83xx.a(rtl8370_asicdrv.o)
 .note.GNU-stack
                0x00000000        0x0 drivers/net/rtl83xx-1.3.0/librtl83xx.a(rtl8370_asicdrv_port.o)
 .note.GNU-stack
                0x00000000        0x0 drivers/net/rtl83xx-1.3.0/librtl83xx.a(rtl8370_asicdrv_phy.o)
 .note.GNU-stack
                0x00000000        0x0 drivers/net/rtl83xx-1.3.0/librtl83xx.a(rtl8370_asicdrv_lut.o)
 .note.GNU-stack
                0x00000000        0x0 drivers/net/rtl83xx-1.3.0/librtl83xx.a(smi.o)
 .note.GNU-stack
                0x00000000        0x0 board/futuretek/ftm-100s/libftm-100s.a(ftm_100s.o)
 .note.GNU-stack
                0x00000000        0x0 board/futuretek/ftm-100s/libftm-100s.a(watchdog.o)
 .note.GNU-stack
                0x00000000        0x0 board/futuretek/ftm-100s/libftm-100s.a(cmd_ftm_100s.o)
 .note.GNU-stack
                0x00000000        0x0 board/futuretek/ftm-100s/libftm-100s.a(csmi_uboot_cmds.o)
 .note.GNU-stack
                0x00000000        0x0 board/futuretek/ftm-100s/libftm-100s.a(csmi_user.o)
 .note.GNU-stack
                0x00000000        0x0 lib_generic/libgeneric.a(crc16.o)
 .note.GNU-stack
                0x00000000        0x0 lib_generic/libgeneric.a(crc32.o)
 .note.GNU-stack
                0x00000000        0x0 lib_generic/libgeneric.a(display_options.o)
 .note.GNU-stack
                0x00000000        0x0 lib_generic/libgeneric.a(gunzip.o)
 .note.GNU-stack
                0x00000000        0x0 lib_generic/libgeneric.a(lmb.o)
 .note.GNU-stack
                0x00000000        0x0 lib_generic/libgeneric.a(md5.o)
 .note.GNU-stack
                0x00000000        0x0 lib_generic/libgeneric.a(string.o)
 .note.GNU-stack
                0x00000000        0x0 lib_generic/libgeneric.a(vsprintf.o)
 .note.GNU-stack
                0x00000000        0x0 lib_generic/libgeneric.a(zlib.o)
 .note.GNU-stack
                0x00000000        0x0 lib_generic/libgeneric.a(ctype.o)
 .note.GNU-stack
                0x00000000        0x0 cpu/arm_cortexa9/libarm_cortexa9.a(cpu.o)
 .note.GNU-stack
                0x00000000        0x0 cpu/arm_cortexa9/goldengate/libgoldengate.a(timer.o)
 .note.GNU-stack
                0x00000000        0x0 lib_arm/libarm.a(bootm.o)
 .note.GNU-stack
                0x00000000        0x0 lib_arm/libarm.a(cache.o)
 .note.GNU-stack
                0x00000000        0x0 lib_arm/libarm.a(cache-cp15.o)
 .note.GNU-stack
                0x00000000        0x0 drivers/mtd/nand/libnand.a(nand_util.o)
 .note.GNU-stack
                0x00000000        0x0 lib_generic/libgeneric.a(div64.o)
 .note.GNU-stack
                0x00000000        0x0 /home/xtra/Work/ftm-100s/u-boot/lib_arm/eabi_compat.o
 .note.GNU-stack
                0x00000000        0x0 /opt/Cortina/toolchain/toolchain-arm_gcc-4.5.1+l_uClibc-0.9.32_eabi/bin/../lib/gcc/arm-openwrt-linux-uclibcgnueabi/4.5.2/libgcc.a(_udivsi3.o)
 .note.GNU-stack
                0x00000000        0x0 /opt/Cortina/toolchain/toolchain-arm_gcc-4.5.1+l_uClibc-0.9.32_eabi/bin/../lib/gcc/arm-openwrt-linux-uclibcgnueabi/4.5.2/libgcc.a(_divsi3.o)
 .note.GNU-stack
                0x00000000        0x0 /opt/Cortina/toolchain/toolchain-arm_gcc-4.5.1+l_uClibc-0.9.32_eabi/bin/../lib/gcc/arm-openwrt-linux-uclibcgnueabi/4.5.2/libgcc.a(_lshrdi3.o)
 .note.GNU-stack
                0x00000000        0x0 /opt/Cortina/toolchain/toolchain-arm_gcc-4.5.1+l_uClibc-0.9.32_eabi/bin/../lib/gcc/arm-openwrt-linux-uclibcgnueabi/4.5.2/libgcc.a(_ashrdi3.o)
 .note.GNU-stack
                0x00000000        0x0 /opt/Cortina/toolchain/toolchain-arm_gcc-4.5.1+l_uClibc-0.9.32_eabi/bin/../lib/gcc/arm-openwrt-linux-uclibcgnueabi/4.5.2/libgcc.a(_ashldi3.o)
 .note.GNU-stack
                0x00000000        0x0 /opt/Cortina/toolchain/toolchain-arm_gcc-4.5.1+l_uClibc-0.9.32_eabi/bin/../lib/gcc/arm-openwrt-linux-uclibcgnueabi/4.5.2/libgcc.a(_dvmd_lnx.o)

.debug_line     0x00000000     0xa146
 .debug_line    0x00000000       0xc5 cpu/arm_cortexa9/start.o
 .debug_line    0x000000c5      0x187 lib_arm/libarm.a(board.o)
 .debug_line    0x0000024c       0xc0 lib_arm/libarm.a(interrupts.o)
 .debug_line    0x0000030c      0x236 net/libnet.a(eth.o)
 .debug_line    0x00000542      0x632 net/libnet.a(net.o)
 .debug_line    0x00000b74      0x128 net/libnet.a(rarp.o)
 .debug_line    0x00000c9c      0x2a4 net/libnet.a(tftp.o)
 .debug_line    0x00000f40      0x2bf net/libnet.a(bootp.o)
 .debug_line    0x000011ff     0x14d8 drivers/mtd/nand/libnand.a(cs75xx_nand.o)
 .debug_line    0x000026d7      0x152 drivers/mtd/nand/libnand.a(nand.o)
 .debug_line    0x00002829      0x5b4 drivers/mtd/nand/libnand.a(nand_bbt.o)
 .debug_line    0x00002ddd       0x67 drivers/mtd/nand/libnand.a(nand_ids.o)
 .debug_line    0x00002e44      0x4d4 drivers/net/libnet.a(g2_ni_mfe.o)
 .debug_line    0x00003318      0x131 drivers/serial/libserial.a(serial_cs752x.o)
 .debug_line    0x00003449      0x107 common/libcommon.a(cmd_bdinfo.o)
 .debug_line    0x00003550       0xc2 common/libcommon.a(cmd_boot.o)
 .debug_line    0x00003612      0x3dc common/libcommon.a(cmd_bootm.o)
 .debug_line    0x000039ee      0x2f5 common/libcommon.a(cmd_load.o)
 .debug_line    0x00003ce3      0x2b6 common/libcommon.a(cmd_mem.o)
 .debug_line    0x00003f99      0x47d common/libcommon.a(cmd_nand.o)
 .debug_line    0x00004416      0x13f common/libcommon.a(cmd_net.o)
 .debug_line    0x00004555      0x37c common/libcommon.a(cmd_nvedit.o)
 .debug_line    0x000048d1      0x38d common/libcommon.a(cmd_recovery.o)
 .debug_line    0x00004c5e      0x13c common/libcommon.a(command.o)
 .debug_line    0x00004d9a      0x2d0 common/libcommon.a(console.o)
 .debug_line    0x0000506a      0x4c9 common/libcommon.a(dlmalloc.o)
 .debug_line    0x00005533      0x144 common/libcommon.a(env_common.o)
 .debug_line    0x00005677      0x22b common/libcommon.a(env_nand.o)
 .debug_line    0x000058a2      0x10e common/libcommon.a(exports.o)
 .debug_line    0x000059b0      0x36a common/libcommon.a(image.o)
 .debug_line    0x00005d1a      0x25a common/libcommon.a(main.o)
 .debug_line    0x00005f74      0x180 common/libcommon.a(stdio.o)
 .debug_line    0x000060f4      0x2bc common/libcommon.a(xyzModem.o)
 .debug_line    0x000063b0      0x14e drivers/net/rtl83xx-1.3.0/librtl83xx.a(rtl83xx_main.o)
 .debug_line    0x000064fe      0x308 drivers/net/rtl83xx-1.3.0/librtl83xx.a(rtk_api.o)
 .debug_line    0x00006806       0xf4 drivers/net/rtl83xx-1.3.0/librtl83xx.a(rtl8370_asicdrv.o)
 .debug_line    0x000068fa      0x21b drivers/net/rtl83xx-1.3.0/librtl83xx.a(rtl8370_asicdrv_port.o)
 .debug_line    0x00006b15       0x7a drivers/net/rtl83xx-1.3.0/librtl83xx.a(rtl8370_asicdrv_phy.o)
 .debug_line    0x00006b8f       0x6d drivers/net/rtl83xx-1.3.0/librtl83xx.a(rtl8370_asicdrv_lut.o)
 .debug_line    0x00006bfc       0x79 drivers/net/rtl83xx-1.3.0/librtl83xx.a(smi.o)
 .debug_line    0x00006c75      0x16e board/futuretek/ftm-100s/libftm-100s.a(ftm_100s.o)
 .debug_line    0x00006de3       0x6c board/futuretek/ftm-100s/libftm-100s.a(watchdog.o)
 .debug_line    0x00006e4f       0x3f board/futuretek/ftm-100s/libftm-100s.a(lowlevel_init.o)
 .debug_line    0x00006e8e      0x2f6 board/futuretek/ftm-100s/libftm-100s.a(cmd_ftm_100s.o)
 .debug_line    0x00007184      0x21b board/futuretek/ftm-100s/libftm-100s.a(csmi_uboot_cmds.o)
 .debug_line    0x0000739f      0x533 board/futuretek/ftm-100s/libftm-100s.a(csmi_user.o)
 .debug_line    0x000078d2       0xc2 lib_generic/libgeneric.a(crc16.o)
 .debug_line    0x00007994      0x152 lib_generic/libgeneric.a(crc32.o)
 .debug_line    0x00007ae6      0x132 lib_generic/libgeneric.a(display_options.o)
 .debug_line    0x00007c18       0xd4 lib_generic/libgeneric.a(gunzip.o)
 .debug_line    0x00007cec      0x27b lib_generic/libgeneric.a(lmb.o)
 .debug_line    0x00007f67      0x2b1 lib_generic/libgeneric.a(md5.o)
 .debug_line    0x00008218      0x2d1 lib_generic/libgeneric.a(string.o)
 .debug_line    0x000084e9      0x44c lib_generic/libgeneric.a(vsprintf.o)
 .debug_line    0x00008935      0x937 lib_generic/libgeneric.a(zlib.o)
 .debug_line    0x0000926c       0x61 lib_generic/libgeneric.a(ctype.o)
 .debug_line    0x000092cd       0xb8 cpu/arm_cortexa9/libarm_cortexa9.a(cpu.o)
 .debug_line    0x00009385       0xca cpu/arm_cortexa9/goldengate/libgoldengate.a(timer.o)
 .debug_line    0x0000944f      0x178 lib_arm/libarm.a(bootm.o)
 .debug_line    0x000095c7       0x38 lib_arm/libarm.a(cache.o)
 .debug_line    0x000095ff      0x130 lib_arm/libarm.a(cache-cp15.o)
 .debug_line    0x0000972f      0x3ca drivers/mtd/nand/libnand.a(nand_util.o)
 .debug_line    0x00009af9       0xc8 lib_generic/libgeneric.a(div64.o)
 .debug_line    0x00009bc1       0x41 /home/xtra/Work/ftm-100s/u-boot/lib_arm/eabi_compat.o
 .debug_line    0x00009c02       0xf2 /opt/Cortina/toolchain/toolchain-arm_gcc-4.5.1+l_uClibc-0.9.32_eabi/bin/../lib/gcc/arm-openwrt-linux-uclibcgnueabi/4.5.2/libgcc.a(_udivsi3.o)
 .debug_line    0x00009cf4       0xfe /opt/Cortina/toolchain/toolchain-arm_gcc-4.5.1+l_uClibc-0.9.32_eabi/bin/../lib/gcc/arm-openwrt-linux-uclibcgnueabi/4.5.2/libgcc.a(_divsi3.o)
 .debug_line    0x00009df2       0xd5 /opt/Cortina/toolchain/toolchain-arm_gcc-4.5.1+l_uClibc-0.9.32_eabi/bin/../lib/gcc/arm-openwrt-linux-uclibcgnueabi/4.5.2/libgcc.a(_lshrdi3.o)
 .debug_line    0x00009ec7       0xd5 /opt/Cortina/toolchain/toolchain-arm_gcc-4.5.1+l_uClibc-0.9.32_eabi/bin/../lib/gcc/arm-openwrt-linux-uclibcgnueabi/4.5.2/libgcc.a(_ashrdi3.o)
 .debug_line    0x00009f9c       0xd5 /opt/Cortina/toolchain/toolchain-arm_gcc-4.5.1+l_uClibc-0.9.32_eabi/bin/../lib/gcc/arm-openwrt-linux-uclibcgnueabi/4.5.2/libgcc.a(_ashldi3.o)
 .debug_line    0x0000a071       0xd5 /opt/Cortina/toolchain/toolchain-arm_gcc-4.5.1+l_uClibc-0.9.32_eabi/bin/../lib/gcc/arm-openwrt-linux-uclibcgnueabi/4.5.2/libgcc.a(_dvmd_lnx.o)

.debug_info     0x00000000    0x2c9bf
 .debug_info    0x00000000       0x61 cpu/arm_cortexa9/start.o
 .debug_info    0x00000061      0x4a4 lib_arm/libarm.a(board.o)
 .debug_info    0x00000505      0x260 lib_arm/libarm.a(interrupts.o)
 .debug_info    0x00000765      0x896 net/libnet.a(eth.o)
 .debug_info    0x00000ffb     0x1a24 net/libnet.a(net.o)
 .debug_info    0x00002a1f      0x2b2 net/libnet.a(rarp.o)
 .debug_info    0x00002cd1      0x5dc net/libnet.a(tftp.o)
 .debug_info    0x000032ad      0xa7b net/libnet.a(bootp.o)
 .debug_info    0x00003d28     0x9086 drivers/mtd/nand/libnand.a(cs75xx_nand.o)
 .debug_info    0x0000cdae     0x11c7 drivers/mtd/nand/libnand.a(nand.o)
 .debug_info    0x0000df75     0x208b drivers/mtd/nand/libnand.a(nand_bbt.o)
 .debug_info    0x00010000      0x14f drivers/mtd/nand/libnand.a(nand_ids.o)
 .debug_info    0x0001014f     0x16d1 drivers/net/libnet.a(g2_ni_mfe.o)
 .debug_info    0x00011820      0x502 drivers/serial/libserial.a(serial_cs752x.o)
 .debug_info    0x00011d22      0x4c7 common/libcommon.a(cmd_bdinfo.o)
 .debug_info    0x000121e9      0x251 common/libcommon.a(cmd_boot.o)
 .debug_info    0x0001243a     0x1256 common/libcommon.a(cmd_bootm.o)
 .debug_info    0x00013690      0xaa9 common/libcommon.a(cmd_load.o)
 .debug_info    0x00014139      0xafe common/libcommon.a(cmd_mem.o)
 .debug_info    0x00014c37     0x1999 common/libcommon.a(cmd_nand.o)
 .debug_info    0x000165d0      0x5e2 common/libcommon.a(cmd_net.o)
 .debug_info    0x00016bb2      0x8f7 common/libcommon.a(cmd_nvedit.o)
 .debug_info    0x000174a9     0x12d1 common/libcommon.a(cmd_recovery.o)
 .debug_info    0x0001877a      0x517 common/libcommon.a(command.o)
 .debug_info    0x00018c91      0xabb common/libcommon.a(console.o)
 .debug_info    0x0001974c      0xcb9 common/libcommon.a(dlmalloc.o)
 .debug_info    0x0001a405      0x3b4 common/libcommon.a(env_common.o)
 .debug_info    0x0001a7b9      0xe18 common/libcommon.a(env_nand.o)
 .debug_info    0x0001b5d1      0x2ec common/libcommon.a(exports.o)
 .debug_info    0x0001b8bd     0x11cd common/libcommon.a(image.o)
 .debug_info    0x0001ca8a      0x6e2 common/libcommon.a(main.o)
 .debug_info    0x0001d16c      0x5a5 common/libcommon.a(stdio.o)
 .debug_info    0x0001d711      0x933 common/libcommon.a(xyzModem.o)
 .debug_info    0x0001e044      0x793 drivers/net/rtl83xx-1.3.0/librtl83xx.a(rtl83xx_main.o)
 .debug_info    0x0001e7d7      0xe79 drivers/net/rtl83xx-1.3.0/librtl83xx.a(rtk_api.o)
 .debug_info    0x0001f650      0x843 drivers/net/rtl83xx-1.3.0/librtl83xx.a(rtl8370_asicdrv.o)
 .debug_info    0x0001fe93     0x10cf drivers/net/rtl83xx-1.3.0/librtl83xx.a(rtl8370_asicdrv_port.o)
 .debug_info    0x00020f62      0x5eb drivers/net/rtl83xx-1.3.0/librtl83xx.a(rtl8370_asicdrv_phy.o)
 .debug_info    0x0002154d      0x56a drivers/net/rtl83xx-1.3.0/librtl83xx.a(rtl8370_asicdrv_lut.o)
 .debug_info    0x00021ab7      0x6ee drivers/net/rtl83xx-1.3.0/librtl83xx.a(smi.o)
 .debug_info    0x000221a5      0x51b board/futuretek/ftm-100s/libftm-100s.a(ftm_100s.o)
 .debug_info    0x000226c0      0x19f board/futuretek/ftm-100s/libftm-100s.a(watchdog.o)
 .debug_info    0x0002285f       0x71 board/futuretek/ftm-100s/libftm-100s.a(lowlevel_init.o)
 .debug_info    0x000228d0      0xf22 board/futuretek/ftm-100s/libftm-100s.a(cmd_ftm_100s.o)
 .debug_info    0x000237f2      0x77a board/futuretek/ftm-100s/libftm-100s.a(csmi_uboot_cmds.o)
 .debug_info    0x00023f6c     0x1bba board/futuretek/ftm-100s/libftm-100s.a(csmi_user.o)
 .debug_info    0x00025b26      0x10b lib_generic/libgeneric.a(crc16.o)
 .debug_info    0x00025c31      0x1d0 lib_generic/libgeneric.a(crc32.o)
 .debug_info    0x00025e01      0x283 lib_generic/libgeneric.a(display_options.o)
 .debug_info    0x00026084      0x3ee lib_generic/libgeneric.a(gunzip.o)
 .debug_info    0x00026472      0x93f lib_generic/libgeneric.a(lmb.o)
 .debug_info    0x00026db1      0x37d lib_generic/libgeneric.a(md5.o)
 .debug_info    0x0002712e      0x941 lib_generic/libgeneric.a(string.o)
 .debug_info    0x00027a6f      0xb2c lib_generic/libgeneric.a(vsprintf.o)
 .debug_info    0x0002859b      0xfcc lib_generic/libgeneric.a(zlib.o)
 .debug_info    0x00029567       0x63 lib_generic/libgeneric.a(ctype.o)
 .debug_info    0x000295ca      0x1db cpu/arm_cortexa9/libarm_cortexa9.a(cpu.o)
 .debug_info    0x000297a5      0x294 cpu/arm_cortexa9/goldengate/libgoldengate.a(timer.o)
 .debug_info    0x00029a39      0xb2a lib_arm/libarm.a(bootm.o)
 .debug_info    0x0002a563       0xa2 lib_arm/libarm.a(cache.o)
 .debug_info    0x0002a605      0x328 lib_arm/libarm.a(cache-cp15.o)
 .debug_info    0x0002a92d     0x1632 drivers/mtd/nand/libnand.a(nand_util.o)
 .debug_info    0x0002bf5f      0x13c lib_generic/libgeneric.a(div64.o)
 .debug_info    0x0002c09b       0x9c /home/xtra/Work/ftm-100s/u-boot/lib_arm/eabi_compat.o
 .debug_info    0x0002c137      0x16c /opt/Cortina/toolchain/toolchain-arm_gcc-4.5.1+l_uClibc-0.9.32_eabi/bin/../lib/gcc/arm-openwrt-linux-uclibcgnueabi/4.5.2/libgcc.a(_udivsi3.o)
 .debug_info    0x0002c2a3      0x16c /opt/Cortina/toolchain/toolchain-arm_gcc-4.5.1+l_uClibc-0.9.32_eabi/bin/../lib/gcc/arm-openwrt-linux-uclibcgnueabi/4.5.2/libgcc.a(_divsi3.o)
 .debug_info    0x0002c40f      0x16c /opt/Cortina/toolchain/toolchain-arm_gcc-4.5.1+l_uClibc-0.9.32_eabi/bin/../lib/gcc/arm-openwrt-linux-uclibcgnueabi/4.5.2/libgcc.a(_lshrdi3.o)
 .debug_info    0x0002c57b      0x16c /opt/Cortina/toolchain/toolchain-arm_gcc-4.5.1+l_uClibc-0.9.32_eabi/bin/../lib/gcc/arm-openwrt-linux-uclibcgnueabi/4.5.2/libgcc.a(_ashrdi3.o)
 .debug_info    0x0002c6e7      0x16c /opt/Cortina/toolchain/toolchain-arm_gcc-4.5.1+l_uClibc-0.9.32_eabi/bin/../lib/gcc/arm-openwrt-linux-uclibcgnueabi/4.5.2/libgcc.a(_ashldi3.o)
 .debug_info    0x0002c853      0x16c /opt/Cortina/toolchain/toolchain-arm_gcc-4.5.1+l_uClibc-0.9.32_eabi/bin/../lib/gcc/arm-openwrt-linux-uclibcgnueabi/4.5.2/libgcc.a(_dvmd_lnx.o)

.debug_abbrev   0x00000000     0x8069
 .debug_abbrev  0x00000000       0x14 cpu/arm_cortexa9/start.o
 .debug_abbrev  0x00000014      0x1c0 lib_arm/libarm.a(board.o)
 .debug_abbrev  0x000001d4       0xf5 lib_arm/libarm.a(interrupts.o)
 .debug_abbrev  0x000002c9      0x2e8 net/libnet.a(eth.o)
 .debug_abbrev  0x000005b1      0x4e5 net/libnet.a(net.o)
 .debug_abbrev  0x00000a96      0x11b net/libnet.a(rarp.o)
 .debug_abbrev  0x00000bb1      0x1ff net/libnet.a(tftp.o)
 .debug_abbrev  0x00000db0      0x32f net/libnet.a(bootp.o)
 .debug_abbrev  0x000010df      0x54f drivers/mtd/nand/libnand.a(cs75xx_nand.o)
 .debug_abbrev  0x0000162e      0x16b drivers/mtd/nand/libnand.a(nand.o)
 .debug_abbrev  0x00001799      0x3ad drivers/mtd/nand/libnand.a(nand_bbt.o)
 .debug_abbrev  0x00001b46       0x83 drivers/mtd/nand/libnand.a(nand_ids.o)
 .debug_abbrev  0x00001bc9      0x433 drivers/net/libnet.a(g2_ni_mfe.o)
 .debug_abbrev  0x00001ffc      0x23b drivers/serial/libserial.a(serial_cs752x.o)
 .debug_abbrev  0x00002237      0x1e1 common/libcommon.a(cmd_bdinfo.o)
 .debug_abbrev  0x00002418       0xe7 common/libcommon.a(cmd_boot.o)
 .debug_abbrev  0x000024ff      0x3de common/libcommon.a(cmd_bootm.o)
 .debug_abbrev  0x000028dd      0x314 common/libcommon.a(cmd_load.o)
 .debug_abbrev  0x00002bf1      0x1bc common/libcommon.a(cmd_mem.o)
 .debug_abbrev  0x00002dad      0x3b8 common/libcommon.a(cmd_nand.o)
 .debug_abbrev  0x00003165      0x1d6 common/libcommon.a(cmd_net.o)
 .debug_abbrev  0x0000333b      0x267 common/libcommon.a(cmd_nvedit.o)
 .debug_abbrev  0x000035a2      0x307 common/libcommon.a(cmd_recovery.o)
 .debug_abbrev  0x000038a9      0x1e6 common/libcommon.a(command.o)
 .debug_abbrev  0x00003a8f      0x37b common/libcommon.a(console.o)
 .debug_abbrev  0x00003e0a      0x290 common/libcommon.a(dlmalloc.o)
 .debug_abbrev  0x0000409a      0x18f common/libcommon.a(env_common.o)
 .debug_abbrev  0x00004229      0x331 common/libcommon.a(env_nand.o)
 .debug_abbrev  0x0000455a      0x12b common/libcommon.a(exports.o)
 .debug_abbrev  0x00004685      0x422 common/libcommon.a(image.o)
 .debug_abbrev  0x00004aa7      0x272 common/libcommon.a(main.o)
 .debug_abbrev  0x00004d19      0x1e8 common/libcommon.a(stdio.o)
 .debug_abbrev  0x00004f01      0x2a2 common/libcommon.a(xyzModem.o)
 .debug_abbrev  0x000051a3      0x195 drivers/net/rtl83xx-1.3.0/librtl83xx.a(rtl83xx_main.o)
 .debug_abbrev  0x00005338      0x1ab drivers/net/rtl83xx-1.3.0/librtl83xx.a(rtk_api.o)
 .debug_abbrev  0x000054e3      0x133 drivers/net/rtl83xx-1.3.0/librtl83xx.a(rtl8370_asicdrv.o)
 .debug_abbrev  0x00005616      0x157 drivers/net/rtl83xx-1.3.0/librtl83xx.a(rtl8370_asicdrv_port.o)
 .debug_abbrev  0x0000576d       0x8f drivers/net/rtl83xx-1.3.0/librtl83xx.a(rtl8370_asicdrv_phy.o)
 .debug_abbrev  0x000057fc       0x75 drivers/net/rtl83xx-1.3.0/librtl83xx.a(rtl8370_asicdrv_lut.o)
 .debug_abbrev  0x00005871      0x132 drivers/net/rtl83xx-1.3.0/librtl83xx.a(smi.o)
 .debug_abbrev  0x000059a3      0x2ba board/futuretek/ftm-100s/libftm-100s.a(ftm_100s.o)
 .debug_abbrev  0x00005c5d       0xe0 board/futuretek/ftm-100s/libftm-100s.a(watchdog.o)
 .debug_abbrev  0x00005d3d       0x14 board/futuretek/ftm-100s/libftm-100s.a(lowlevel_init.o)
 .debug_abbrev  0x00005d51      0x2b9 board/futuretek/ftm-100s/libftm-100s.a(cmd_ftm_100s.o)
 .debug_abbrev  0x0000600a      0x1dd board/futuretek/ftm-100s/libftm-100s.a(csmi_uboot_cmds.o)
 .debug_abbrev  0x000061e7      0x397 board/futuretek/ftm-100s/libftm-100s.a(csmi_user.o)
 .debug_abbrev  0x0000657e       0xbd lib_generic/libgeneric.a(crc16.o)
 .debug_abbrev  0x0000663b       0xd4 lib_generic/libgeneric.a(crc32.o)
 .debug_abbrev  0x0000670f       0xf1 lib_generic/libgeneric.a(display_options.o)
 .debug_abbrev  0x00006800      0x165 lib_generic/libgeneric.a(gunzip.o)
 .debug_abbrev  0x00006965      0x310 lib_generic/libgeneric.a(lmb.o)
 .debug_abbrev  0x00006c75      0x1a2 lib_generic/libgeneric.a(md5.o)
 .debug_abbrev  0x00006e17      0x1c0 lib_generic/libgeneric.a(string.o)
 .debug_abbrev  0x00006fd7      0x302 lib_generic/libgeneric.a(vsprintf.o)
 .debug_abbrev  0x000072d9      0x284 lib_generic/libgeneric.a(zlib.o)
 .debug_abbrev  0x0000755d       0x53 lib_generic/libgeneric.a(ctype.o)
 .debug_abbrev  0x000075b0      0x104 cpu/arm_cortexa9/libarm_cortexa9.a(cpu.o)
 .debug_abbrev  0x000076b4      0x15c cpu/arm_cortexa9/goldengate/libgoldengate.a(timer.o)
 .debug_abbrev  0x00007810      0x247 lib_arm/libarm.a(bootm.o)
 .debug_abbrev  0x00007a57       0x4e lib_arm/libarm.a(cache.o)
 .debug_abbrev  0x00007aa5      0x175 lib_arm/libarm.a(cache-cp15.o)
 .debug_abbrev  0x00007c1a      0x2f2 drivers/mtd/nand/libnand.a(nand_util.o)
 .debug_abbrev  0x00007f0c       0x95 lib_generic/libgeneric.a(div64.o)
 .debug_abbrev  0x00007fa1       0x50 /home/xtra/Work/ftm-100s/u-boot/lib_arm/eabi_compat.o
 .debug_abbrev  0x00007ff1       0x14 /opt/Cortina/toolchain/toolchain-arm_gcc-4.5.1+l_uClibc-0.9.32_eabi/bin/../lib/gcc/arm-openwrt-linux-uclibcgnueabi/4.5.2/libgcc.a(_udivsi3.o)
 .debug_abbrev  0x00008005       0x14 /opt/Cortina/toolchain/toolchain-arm_gcc-4.5.1+l_uClibc-0.9.32_eabi/bin/../lib/gcc/arm-openwrt-linux-uclibcgnueabi/4.5.2/libgcc.a(_divsi3.o)
 .debug_abbrev  0x00008019       0x14 /opt/Cortina/toolchain/toolchain-arm_gcc-4.5.1+l_uClibc-0.9.32_eabi/bin/../lib/gcc/arm-openwrt-linux-uclibcgnueabi/4.5.2/libgcc.a(_lshrdi3.o)
 .debug_abbrev  0x0000802d       0x14 /opt/Cortina/toolchain/toolchain-arm_gcc-4.5.1+l_uClibc-0.9.32_eabi/bin/../lib/gcc/arm-openwrt-linux-uclibcgnueabi/4.5.2/libgcc.a(_ashrdi3.o)
 .debug_abbrev  0x00008041       0x14 /opt/Cortina/toolchain/toolchain-arm_gcc-4.5.1+l_uClibc-0.9.32_eabi/bin/../lib/gcc/arm-openwrt-linux-uclibcgnueabi/4.5.2/libgcc.a(_ashldi3.o)
 .debug_abbrev  0x00008055       0x14 /opt/Cortina/toolchain/toolchain-arm_gcc-4.5.1+l_uClibc-0.9.32_eabi/bin/../lib/gcc/arm-openwrt-linux-uclibcgnueabi/4.5.2/libgcc.a(_dvmd_lnx.o)

.debug_aranges  0x00000000      0x860
 .debug_aranges
                0x00000000       0x20 cpu/arm_cortexa9/start.o
 .debug_aranges
                0x00000020       0x20 lib_arm/libarm.a(board.o)
 .debug_aranges
                0x00000040       0x20 lib_arm/libarm.a(interrupts.o)
 .debug_aranges
                0x00000060       0x20 net/libnet.a(eth.o)
 .debug_aranges
                0x00000080       0x20 net/libnet.a(net.o)
 .debug_aranges
                0x000000a0       0x20 net/libnet.a(rarp.o)
 .debug_aranges
                0x000000c0       0x20 net/libnet.a(tftp.o)
 .debug_aranges
                0x000000e0       0x20 net/libnet.a(bootp.o)
 .debug_aranges
                0x00000100       0x20 drivers/mtd/nand/libnand.a(cs75xx_nand.o)
 .debug_aranges
                0x00000120       0x20 drivers/mtd/nand/libnand.a(nand_bbt.o)
 .debug_aranges
                0x00000140       0x20 drivers/net/libnet.a(g2_ni_mfe.o)
 .debug_aranges
                0x00000160       0x20 drivers/serial/libserial.a(serial_cs752x.o)
 .debug_aranges
                0x00000180       0x20 common/libcommon.a(cmd_bdinfo.o)
 .debug_aranges
                0x000001a0       0x20 common/libcommon.a(cmd_boot.o)
 .debug_aranges
                0x000001c0       0x20 common/libcommon.a(cmd_bootm.o)
 .debug_aranges
                0x000001e0       0x20 common/libcommon.a(cmd_load.o)
 .debug_aranges
                0x00000200       0x20 common/libcommon.a(cmd_mem.o)
 .debug_aranges
                0x00000220       0x20 common/libcommon.a(cmd_nand.o)
 .debug_aranges
                0x00000240       0x20 common/libcommon.a(cmd_net.o)
 .debug_aranges
                0x00000260       0x20 common/libcommon.a(cmd_nvedit.o)
 .debug_aranges
                0x00000280       0x20 common/libcommon.a(cmd_recovery.o)
 .debug_aranges
                0x000002a0       0x20 common/libcommon.a(command.o)
 .debug_aranges
                0x000002c0       0x20 common/libcommon.a(console.o)
 .debug_aranges
                0x000002e0       0x20 common/libcommon.a(dlmalloc.o)
 .debug_aranges
                0x00000300       0x20 common/libcommon.a(env_common.o)
 .debug_aranges
                0x00000320       0x20 common/libcommon.a(env_nand.o)
 .debug_aranges
                0x00000340       0x20 common/libcommon.a(exports.o)
 .debug_aranges
                0x00000360       0x20 common/libcommon.a(image.o)
 .debug_aranges
                0x00000380       0x20 common/libcommon.a(main.o)
 .debug_aranges
                0x000003a0       0x20 common/libcommon.a(stdio.o)
 .debug_aranges
                0x000003c0       0x20 common/libcommon.a(xyzModem.o)
 .debug_aranges
                0x000003e0       0x20 drivers/net/rtl83xx-1.3.0/librtl83xx.a(rtl83xx_main.o)
 .debug_aranges
                0x00000400       0x20 drivers/net/rtl83xx-1.3.0/librtl83xx.a(rtk_api.o)
 .debug_aranges
                0x00000420       0x20 drivers/net/rtl83xx-1.3.0/librtl83xx.a(rtl8370_asicdrv.o)
 .debug_aranges
                0x00000440       0x20 drivers/net/rtl83xx-1.3.0/librtl83xx.a(rtl8370_asicdrv_port.o)
 .debug_aranges
                0x00000460       0x20 drivers/net/rtl83xx-1.3.0/librtl83xx.a(rtl8370_asicdrv_phy.o)
 .debug_aranges
                0x00000480       0x20 drivers/net/rtl83xx-1.3.0/librtl83xx.a(rtl8370_asicdrv_lut.o)
 .debug_aranges
                0x000004a0       0x20 drivers/net/rtl83xx-1.3.0/librtl83xx.a(smi.o)
 .debug_aranges
                0x000004c0       0x20 board/futuretek/ftm-100s/libftm-100s.a(ftm_100s.o)
 .debug_aranges
                0x000004e0       0x20 board/futuretek/ftm-100s/libftm-100s.a(watchdog.o)
 .debug_aranges
                0x00000500       0x20 board/futuretek/ftm-100s/libftm-100s.a(lowlevel_init.o)
 .debug_aranges
                0x00000520       0x20 board/futuretek/ftm-100s/libftm-100s.a(cmd_ftm_100s.o)
 .debug_aranges
                0x00000540       0x20 board/futuretek/ftm-100s/libftm-100s.a(csmi_uboot_cmds.o)
 .debug_aranges
                0x00000560       0x20 board/futuretek/ftm-100s/libftm-100s.a(csmi_user.o)
 .debug_aranges
                0x00000580       0x20 lib_generic/libgeneric.a(crc16.o)
 .debug_aranges
                0x000005a0       0x20 lib_generic/libgeneric.a(crc32.o)
 .debug_aranges
                0x000005c0       0x20 lib_generic/libgeneric.a(display_options.o)
 .debug_aranges
                0x000005e0       0x20 lib_generic/libgeneric.a(gunzip.o)
 .debug_aranges
                0x00000600       0x20 lib_generic/libgeneric.a(lmb.o)
 .debug_aranges
                0x00000620       0x20 lib_generic/libgeneric.a(md5.o)
 .debug_aranges
                0x00000640       0x20 lib_generic/libgeneric.a(string.o)
 .debug_aranges
                0x00000660       0x20 lib_generic/libgeneric.a(vsprintf.o)
 .debug_aranges
                0x00000680       0x20 lib_generic/libgeneric.a(zlib.o)
 .debug_aranges
                0x000006a0       0x20 cpu/arm_cortexa9/libarm_cortexa9.a(cpu.o)
 .debug_aranges
                0x000006c0       0x20 cpu/arm_cortexa9/goldengate/libgoldengate.a(timer.o)
 .debug_aranges
                0x000006e0       0x20 lib_arm/libarm.a(bootm.o)
 .debug_aranges
                0x00000700       0x20 lib_arm/libarm.a(cache.o)
 .debug_aranges
                0x00000720       0x20 lib_arm/libarm.a(cache-cp15.o)
 .debug_aranges
                0x00000740       0x20 drivers/mtd/nand/libnand.a(nand_util.o)
 .debug_aranges
                0x00000760       0x20 lib_generic/libgeneric.a(div64.o)
 .debug_aranges
                0x00000780       0x20 /home/xtra/Work/ftm-100s/u-boot/lib_arm/eabi_compat.o
 .debug_aranges
                0x000007a0       0x20 /opt/Cortina/toolchain/toolchain-arm_gcc-4.5.1+l_uClibc-0.9.32_eabi/bin/../lib/gcc/arm-openwrt-linux-uclibcgnueabi/4.5.2/libgcc.a(_udivsi3.o)
 .debug_aranges
                0x000007c0       0x20 /opt/Cortina/toolchain/toolchain-arm_gcc-4.5.1+l_uClibc-0.9.32_eabi/bin/../lib/gcc/arm-openwrt-linux-uclibcgnueabi/4.5.2/libgcc.a(_divsi3.o)
 .debug_aranges
                0x000007e0       0x20 /opt/Cortina/toolchain/toolchain-arm_gcc-4.5.1+l_uClibc-0.9.32_eabi/bin/../lib/gcc/arm-openwrt-linux-uclibcgnueabi/4.5.2/libgcc.a(_lshrdi3.o)
 .debug_aranges
                0x00000800       0x20 /opt/Cortina/toolchain/toolchain-arm_gcc-4.5.1+l_uClibc-0.9.32_eabi/bin/../lib/gcc/arm-openwrt-linux-uclibcgnueabi/4.5.2/libgcc.a(_ashrdi3.o)
 .debug_aranges
                0x00000820       0x20 /opt/Cortina/toolchain/toolchain-arm_gcc-4.5.1+l_uClibc-0.9.32_eabi/bin/../lib/gcc/arm-openwrt-linux-uclibcgnueabi/4.5.2/libgcc.a(_ashldi3.o)
 .debug_aranges
                0x00000840       0x20 /opt/Cortina/toolchain/toolchain-arm_gcc-4.5.1+l_uClibc-0.9.32_eabi/bin/../lib/gcc/arm-openwrt-linux-uclibcgnueabi/4.5.2/libgcc.a(_dvmd_lnx.o)

.debug_loc      0x00000000    0x1dd7f
 .debug_loc     0x00000000      0x14c lib_arm/libarm.a(board.o)
 .debug_loc     0x0000014c      0x21d lib_arm/libarm.a(interrupts.o)
 .debug_loc     0x00000369      0x638 net/libnet.a(eth.o)
 .debug_loc     0x000009a1     0x1002 net/libnet.a(net.o)
 .debug_loc     0x000019a3      0x12d net/libnet.a(rarp.o)
 .debug_loc     0x00001ad0      0x425 net/libnet.a(tftp.o)
 .debug_loc     0x00001ef5      0x5e3 net/libnet.a(bootp.o)
 .debug_loc     0x000024d8     0x4b93 drivers/mtd/nand/libnand.a(cs75xx_nand.o)
 .debug_loc     0x0000706b     0x1cf0 drivers/mtd/nand/libnand.a(nand_bbt.o)
 .debug_loc     0x00008d5b     0x1242 drivers/net/libnet.a(g2_ni_mfe.o)
 .debug_loc     0x00009f9d      0x1d8 drivers/serial/libserial.a(serial_cs752x.o)
 .debug_loc     0x0000a175      0x10e common/libcommon.a(cmd_bdinfo.o)
 .debug_loc     0x0000a283      0x185 common/libcommon.a(cmd_boot.o)
 .debug_loc     0x0000a408      0x963 common/libcommon.a(cmd_bootm.o)
 .debug_loc     0x0000ad6b      0x9d0 common/libcommon.a(cmd_load.o)
 .debug_loc     0x0000b73b      0xebd common/libcommon.a(cmd_mem.o)
 .debug_loc     0x0000c5f8      0xce2 common/libcommon.a(cmd_nand.o)
 .debug_loc     0x0000d2da      0x2ad common/libcommon.a(cmd_net.o)
 .debug_loc     0x0000d587      0x9c1 common/libcommon.a(cmd_nvedit.o)
 .debug_loc     0x0000df48      0x808 common/libcommon.a(cmd_recovery.o)
 .debug_loc     0x0000e750      0x530 common/libcommon.a(command.o)
 .debug_loc     0x0000ec80      0x5f3 common/libcommon.a(console.o)
 .debug_loc     0x0000f273     0x14cb common/libcommon.a(dlmalloc.o)
 .debug_loc     0x0001073e       0xcd common/libcommon.a(env_common.o)
 .debug_loc     0x0001080b      0x3b2 common/libcommon.a(env_nand.o)
 .debug_loc     0x00010bbd       0x28 common/libcommon.a(exports.o)
 .debug_loc     0x00010be5      0x976 common/libcommon.a(image.o)
 .debug_loc     0x0001155b      0x9e5 common/libcommon.a(main.o)
 .debug_loc     0x00011f40      0x1d6 common/libcommon.a(stdio.o)
 .debug_loc     0x00012116      0xa98 common/libcommon.a(xyzModem.o)
 .debug_loc     0x00012bae      0x483 drivers/net/rtl83xx-1.3.0/librtl83xx.a(rtl83xx_main.o)
 .debug_loc     0x00013031      0xab6 drivers/net/rtl83xx-1.3.0/librtl83xx.a(rtk_api.o)
 .debug_loc     0x00013ae7      0x403 drivers/net/rtl83xx-1.3.0/librtl83xx.a(rtl8370_asicdrv.o)
 .debug_loc     0x00013eea      0x96c drivers/net/rtl83xx-1.3.0/librtl83xx.a(rtl8370_asicdrv_port.o)
 .debug_loc     0x00014856       0xd8 drivers/net/rtl83xx-1.3.0/librtl83xx.a(rtl8370_asicdrv_phy.o)
 .debug_loc     0x0001492e       0x31 drivers/net/rtl83xx-1.3.0/librtl83xx.a(rtl8370_asicdrv_lut.o)
 .debug_loc     0x0001495f      0x11a drivers/net/rtl83xx-1.3.0/librtl83xx.a(smi.o)
 .debug_loc     0x00014a79      0x275 board/futuretek/ftm-100s/libftm-100s.a(ftm_100s.o)
 .debug_loc     0x00014cee       0x9b board/futuretek/ftm-100s/libftm-100s.a(watchdog.o)
 .debug_loc     0x00014d89      0x6ac board/futuretek/ftm-100s/libftm-100s.a(cmd_ftm_100s.o)
 .debug_loc     0x00015435      0x72f board/futuretek/ftm-100s/libftm-100s.a(csmi_uboot_cmds.o)
 .debug_loc     0x00015b64     0x14e6 board/futuretek/ftm-100s/libftm-100s.a(csmi_user.o)
 .debug_loc     0x0001704a       0x9f lib_generic/libgeneric.a(crc16.o)
 .debug_loc     0x000170e9      0x24d lib_generic/libgeneric.a(crc32.o)
 .debug_loc     0x00017336      0x2e2 lib_generic/libgeneric.a(display_options.o)
 .debug_loc     0x00017618      0x264 lib_generic/libgeneric.a(gunzip.o)
 .debug_loc     0x0001787c      0xc32 lib_generic/libgeneric.a(lmb.o)
 .debug_loc     0x000184ae      0x672 lib_generic/libgeneric.a(md5.o)
 .debug_loc     0x00018b20      0xb2b lib_generic/libgeneric.a(string.o)
 .debug_loc     0x0001964b     0x12eb lib_generic/libgeneric.a(vsprintf.o)
 .debug_loc     0x0001a936     0x25fc lib_generic/libgeneric.a(zlib.o)
 .debug_loc     0x0001cf32       0x8c cpu/arm_cortexa9/libarm_cortexa9.a(cpu.o)
 .debug_loc     0x0001cfbe      0x169 cpu/arm_cortexa9/goldengate/libgoldengate.a(timer.o)
 .debug_loc     0x0001d127      0x196 lib_arm/libarm.a(bootm.o)
 .debug_loc     0x0001d2bd       0xef lib_arm/libarm.a(cache-cp15.o)
 .debug_loc     0x0001d3ac      0x7c8 drivers/mtd/nand/libnand.a(nand_util.o)
 .debug_loc     0x0001db74      0x1cd lib_generic/libgeneric.a(div64.o)
 .debug_loc     0x0001dd41       0x3e /home/xtra/Work/ftm-100s/u-boot/lib_arm/eabi_compat.o

.debug_pubnames
                0x00000000     0x3968
 .debug_pubnames
                0x00000000      0x11f lib_arm/libarm.a(board.o)
 .debug_pubnames
                0x0000011f       0xdf lib_arm/libarm.a(interrupts.o)
 .debug_pubnames
                0x000001fe      0x160 net/libnet.a(eth.o)
 .debug_pubnames
                0x0000035e      0x401 net/libnet.a(net.o)
 .debug_pubnames
                0x0000075f       0x2e net/libnet.a(rarp.o)
 .debug_pubnames
                0x0000078d       0x53 net/libnet.a(tftp.o)
 .debug_pubnames
                0x000007e0       0x3c net/libnet.a(bootp.o)
 .debug_pubnames
                0x0000081c      0x777 drivers/mtd/nand/libnand.a(cs75xx_nand.o)
 .debug_pubnames
                0x00000f93       0x3c drivers/mtd/nand/libnand.a(nand.o)
 .debug_pubnames
                0x00000fcf       0x60 drivers/mtd/nand/libnand.a(nand_bbt.o)
 .debug_pubnames
                0x0000102f       0x38 drivers/mtd/nand/libnand.a(nand_ids.o)
 .debug_pubnames
                0x00001067      0x106 drivers/net/libnet.a(g2_ni_mfe.o)
 .debug_pubnames
                0x0000116d       0xa5 drivers/serial/libserial.a(serial_cs752x.o)
 .debug_pubnames
                0x00001212       0x3f common/libcommon.a(cmd_bdinfo.o)
 .debug_pubnames
                0x00001251       0x56 common/libcommon.a(cmd_boot.o)
 .debug_pubnames
                0x000012a7       0xe0 common/libcommon.a(cmd_bootm.o)
 .debug_pubnames
                0x00001387      0x181 common/libcommon.a(cmd_load.o)
 .debug_pubnames
                0x00001508      0x1d1 common/libcommon.a(cmd_mem.o)
 .debug_pubnames
                0x000016d9       0x8a common/libcommon.a(cmd_nand.o)
 .debug_pubnames
                0x00001763       0xa6 common/libcommon.a(cmd_net.o)
 .debug_pubnames
                0x00001809       0xf4 common/libcommon.a(cmd_nvedit.o)
 .debug_pubnames
                0x000018fd       0x88 common/libcommon.a(cmd_recovery.o)
 .debug_pubnames
                0x00001985       0xca common/libcommon.a(command.o)
 .debug_pubnames
                0x00001a4f      0x147 common/libcommon.a(console.o)
 .debug_pubnames
                0x00001b96       0xfd common/libcommon.a(dlmalloc.o)
 .debug_pubnames
                0x00001c93       0xa3 common/libcommon.a(env_common.o)
 .debug_pubnames
                0x00001d36       0x95 common/libcommon.a(env_nand.o)
 .debug_pubnames
                0x00001dcb       0x3c common/libcommon.a(exports.o)
 .debug_pubnames
                0x00001e07      0x22c common/libcommon.a(image.o)
 .debug_pubnames
                0x00002033       0x9c common/libcommon.a(main.o)
 .debug_pubnames
                0x000020cf       0x96 common/libcommon.a(stdio.o)
 .debug_pubnames
                0x00002165       0xd5 common/libcommon.a(xyzModem.o)
 .debug_pubnames
                0x0000223a       0xda drivers/net/rtl83xx-1.3.0/librtl83xx.a(rtl83xx_main.o)
 .debug_pubnames
                0x00002314      0x1a6 drivers/net/rtl83xx-1.3.0/librtl83xx.a(rtk_api.o)
 .debug_pubnames
                0x000024ba       0xaa drivers/net/rtl83xx-1.3.0/librtl83xx.a(rtl8370_asicdrv.o)
 .debug_pubnames
                0x00002564      0x46a drivers/net/rtl83xx-1.3.0/librtl83xx.a(rtl8370_asicdrv_port.o)
 .debug_pubnames
                0x000029ce       0x46 drivers/net/rtl83xx-1.3.0/librtl83xx.a(rtl8370_asicdrv_phy.o)
 .debug_pubnames
                0x00002a14       0x35 drivers/net/rtl83xx-1.3.0/librtl83xx.a(rtl8370_asicdrv_lut.o)
 .debug_pubnames
                0x00002a49       0x48 drivers/net/rtl83xx-1.3.0/librtl83xx.a(smi.o)
 .debug_pubnames
                0x00002a91       0xa6 board/futuretek/ftm-100s/libftm-100s.a(ftm_100s.o)
 .debug_pubnames
                0x00002b37       0x71 board/futuretek/ftm-100s/libftm-100s.a(watchdog.o)
 .debug_pubnames
                0x00002ba8       0xd0 board/futuretek/ftm-100s/libftm-100s.a(cmd_ftm_100s.o)
 .debug_pubnames
                0x00002c78       0xaf board/futuretek/ftm-100s/libftm-100s.a(csmi_uboot_cmds.o)
 .debug_pubnames
                0x00002d27      0x5b8 board/futuretek/ftm-100s/libftm-100s.a(csmi_user.o)
 .debug_pubnames
                0x000032df       0x20 lib_generic/libgeneric.a(crc16.o)
 .debug_pubnames
                0x000032ff       0x3b lib_generic/libgeneric.a(crc32.o)
 .debug_pubnames
                0x0000333a       0x46 lib_generic/libgeneric.a(display_options.o)
 .debug_pubnames
                0x00003380       0x3d lib_generic/libgeneric.a(gunzip.o)
 .debug_pubnames
                0x000033bd       0xbb lib_generic/libgeneric.a(lmb.o)
 .debug_pubnames
                0x00003478       0x25 lib_generic/libgeneric.a(md5.o)
 .debug_pubnames
                0x0000349d      0x130 lib_generic/libgeneric.a(string.o)
 .debug_pubnames
                0x000035cd       0x73 lib_generic/libgeneric.a(vsprintf.o)
 .debug_pubnames
                0x00003640       0xb4 lib_generic/libgeneric.a(zlib.o)
 .debug_pubnames
                0x000036f4       0x1d lib_generic/libgeneric.a(ctype.o)
 .debug_pubnames
                0x00003711       0x45 cpu/arm_cortexa9/libarm_cortexa9.a(cpu.o)
 .debug_pubnames
                0x00003756       0xb2 cpu/arm_cortexa9/goldengate/libgoldengate.a(timer.o)
 .debug_pubnames
                0x00003808       0x2c lib_arm/libarm.a(bootm.o)
 .debug_pubnames
                0x00003834       0x22 lib_arm/libarm.a(cache.o)
 .debug_pubnames
                0x00003856       0x80 lib_arm/libarm.a(cache-cp15.o)
 .debug_pubnames
                0x000038d6       0x55 drivers/mtd/nand/libnand.a(nand_util.o)
 .debug_pubnames
                0x0000392b       0x21 lib_generic/libgeneric.a(div64.o)
 .debug_pubnames
                0x0000394c       0x1c /home/xtra/Work/ftm-100s/u-boot/lib_arm/eabi_compat.o

.debug_pubtypes
                0x00000000     0x2c42
 .debug_pubtypes
                0x00000000       0x59 lib_arm/libarm.a(board.o)
 .debug_pubtypes
                0x00000059       0x1e lib_arm/libarm.a(interrupts.o)
 .debug_pubtypes
                0x00000077       0x61 net/libnet.a(eth.o)
 .debug_pubtypes
                0x000000d8      0x103 net/libnet.a(net.o)
 .debug_pubtypes
                0x000001db       0x52 net/libnet.a(rarp.o)
 .debug_pubtypes
                0x0000022d       0x48 net/libnet.a(tftp.o)
 .debug_pubtypes
                0x00000275       0x80 net/libnet.a(bootp.o)
 .debug_pubtypes
                0x000002f5      0x2f9 drivers/mtd/nand/libnand.a(cs75xx_nand.o)
 .debug_pubtypes
                0x000005ee      0x22a drivers/mtd/nand/libnand.a(nand.o)
 .debug_pubtypes
                0x00000818      0x1f6 drivers/mtd/nand/libnand.a(nand_bbt.o)
 .debug_pubtypes
                0x00000a0e       0x3c drivers/mtd/nand/libnand.a(nand_ids.o)
 .debug_pubtypes
                0x00000a4a       0xa4 drivers/net/libnet.a(g2_ni_mfe.o)
 .debug_pubtypes
                0x00000aee       0x4a drivers/serial/libserial.a(serial_cs752x.o)
 .debug_pubtypes
                0x00000b38       0x66 common/libcommon.a(cmd_bdinfo.o)
 .debug_pubtypes
                0x00000b9e       0x38 common/libcommon.a(cmd_boot.o)
 .debug_pubtypes
                0x00000bd6      0x178 common/libcommon.a(cmd_bootm.o)
 .debug_pubtypes
                0x00000d4e       0x7c common/libcommon.a(cmd_load.o)
 .debug_pubtypes
                0x00000dca       0x61 common/libcommon.a(cmd_mem.o)
 .debug_pubtypes
                0x00000e2b      0x285 common/libcommon.a(cmd_nand.o)
 .debug_pubtypes
                0x000010b0       0x51 common/libcommon.a(cmd_net.o)
 .debug_pubtypes
                0x00001101       0x99 common/libcommon.a(cmd_nvedit.o)
 .debug_pubtypes
                0x0000119a      0x1e9 common/libcommon.a(cmd_recovery.o)
 .debug_pubtypes
                0x00001383       0x2e common/libcommon.a(command.o)
 .debug_pubtypes
                0x000013b1       0x9c common/libcommon.a(console.o)
 .debug_pubtypes
                0x0000144d       0xc6 common/libcommon.a(dlmalloc.o)
 .debug_pubtypes
                0x00001513       0x87 common/libcommon.a(env_common.o)
 .debug_pubtypes
                0x0000159a      0x20b common/libcommon.a(env_nand.o)
 .debug_pubtypes
                0x000017a5       0x4a common/libcommon.a(exports.o)
 .debug_pubtypes
                0x000017ef      0x169 common/libcommon.a(image.o)
 .debug_pubtypes
                0x00001958       0x2e common/libcommon.a(main.o)
 .debug_pubtypes
                0x00001986       0x66 common/libcommon.a(stdio.o)
 .debug_pubtypes
                0x000019ec       0x3f common/libcommon.a(xyzModem.o)
 .debug_pubtypes
                0x00001a2b      0x142 drivers/net/rtl83xx-1.3.0/librtl83xx.a(rtl83xx_main.o)
 .debug_pubtypes
                0x00001b6d      0x12a drivers/net/rtl83xx-1.3.0/librtl83xx.a(rtk_api.o)
 .debug_pubtypes
                0x00001c97       0x45 drivers/net/rtl83xx-1.3.0/librtl83xx.a(rtl8370_asicdrv.o)
 .debug_pubtypes
                0x00001cdc      0x10e drivers/net/rtl83xx-1.3.0/librtl83xx.a(rtl8370_asicdrv_port.o)
 .debug_pubtypes
                0x00001dea       0x45 drivers/net/rtl83xx-1.3.0/librtl83xx.a(rtl8370_asicdrv_phy.o)
 .debug_pubtypes
                0x00001e2f       0x45 drivers/net/rtl83xx-1.3.0/librtl83xx.a(rtl8370_asicdrv_lut.o)
 .debug_pubtypes
                0x00001e74       0x3b drivers/net/rtl83xx-1.3.0/librtl83xx.a(smi.o)
 .debug_pubtypes
                0x00001eaf       0x52 board/futuretek/ftm-100s/libftm-100s.a(ftm_100s.o)
 .debug_pubtypes
                0x00001f01       0x12 board/futuretek/ftm-100s/libftm-100s.a(watchdog.o)
 .debug_pubtypes
                0x00001f13      0x1f9 board/futuretek/ftm-100s/libftm-100s.a(cmd_ftm_100s.o)
 .debug_pubtypes
                0x0000210c      0x153 board/futuretek/ftm-100s/libftm-100s.a(csmi_uboot_cmds.o)
 .debug_pubtypes
                0x0000225f       0xe3 board/futuretek/ftm-100s/libftm-100s.a(csmi_user.o)
 .debug_pubtypes
                0x00002342       0x29 lib_generic/libgeneric.a(crc16.o)
 .debug_pubtypes
                0x0000236b       0x45 lib_generic/libgeneric.a(crc32.o)
 .debug_pubtypes
                0x000023b0       0x78 lib_generic/libgeneric.a(display_options.o)
 .debug_pubtypes
                0x00002428       0x9b lib_generic/libgeneric.a(gunzip.o)
 .debug_pubtypes
                0x000024c3       0x64 lib_generic/libgeneric.a(lmb.o)
 .debug_pubtypes
                0x00002527       0x2b lib_generic/libgeneric.a(md5.o)
 .debug_pubtypes
                0x00002552       0x3b lib_generic/libgeneric.a(string.o)
 .debug_pubtypes
                0x0000258d       0x46 lib_generic/libgeneric.a(vsprintf.o)
 .debug_pubtypes
                0x000025d3      0x10f lib_generic/libgeneric.a(zlib.o)
 .debug_pubtypes
                0x000026e2       0x38 cpu/arm_cortexa9/libarm_cortexa9.a(cpu.o)
 .debug_pubtypes
                0x0000271a       0x1c cpu/arm_cortexa9/goldengate/libgoldengate.a(timer.o)
 .debug_pubtypes
                0x00002736      0x20b lib_arm/libarm.a(bootm.o)
 .debug_pubtypes
                0x00002941       0x12 lib_arm/libarm.a(cache.o)
 .debug_pubtypes
                0x00002953       0x29 lib_arm/libarm.a(cache-cp15.o)
 .debug_pubtypes
                0x0000297c      0x25e drivers/mtd/nand/libnand.a(nand_util.o)
 .debug_pubtypes
                0x00002bda       0x56 lib_generic/libgeneric.a(div64.o)
 .debug_pubtypes
                0x00002c30       0x12 /home/xtra/Work/ftm-100s/u-boot/lib_arm/eabi_compat.o

.debug_str      0x00000000     0x866e
 .debug_str     0x00000000      0x290 lib_arm/libarm.a(board.o)
                                0x2eb (size before relaxing)
 .debug_str     0x00000290       0xcc lib_arm/libarm.a(interrupts.o)
                                0x1be (size before relaxing)
 .debug_str     0x0000035c      0x25b net/libnet.a(eth.o)
                                0x3fc (size before relaxing)
 .debug_str     0x000005b7      0x612 net/libnet.a(net.o)
                                0x865 (size before relaxing)
 .debug_str     0x00000bc9       0x4c net/libnet.a(rarp.o)
                                0x1c0 (size before relaxing)
 .debug_str     0x00000c15      0x167 net/libnet.a(tftp.o)
                                0x319 (size before relaxing)
 .debug_str     0x00000d7c      0x176 net/libnet.a(bootp.o)
                                0x406 (size before relaxing)
 .debug_str     0x00000ef2     0x1e5d drivers/mtd/nand/libnand.a(cs75xx_nand.o)
                               0x22a1 (size before relaxing)
 .debug_str     0x00000000     0x1e5d drivers/mtd/nand/libnand.a(nand.o)
                                0x86e (size before relaxing)
 .debug_str     0x00002d4f      0x28d drivers/mtd/nand/libnand.a(nand_bbt.o)
                                0xa53 (size before relaxing)
 .debug_str     0x00002fdc        0xb drivers/mtd/nand/libnand.a(nand_ids.o)
                                0x164 (size before relaxing)
 .debug_str     0x00002fe7      0x42e drivers/net/libnet.a(g2_ni_mfe.o)
                                0x646 (size before relaxing)
 .debug_str     0x00003415      0x11b drivers/serial/libserial.a(serial_cs752x.o)
                                0x2b9 (size before relaxing)
 .debug_str     0x00003530       0x66 common/libcommon.a(cmd_bdinfo.o)
                                0x22f (size before relaxing)
 .debug_str     0x00003596       0x3f common/libcommon.a(cmd_boot.o)
                                0x188 (size before relaxing)
 .debug_str     0x000035d5      0x44a common/libcommon.a(cmd_bootm.o)
                                0x6f9 (size before relaxing)
 .debug_str     0x00003a1f      0x28e common/libcommon.a(cmd_load.o)
                                0x4e8 (size before relaxing)
 .debug_str     0x00003cad      0x1f5 common/libcommon.a(cmd_mem.o)
                                0x3a0 (size before relaxing)
 .debug_str     0x00003ea2       0xfd common/libcommon.a(cmd_nand.o)
                                0xa01 (size before relaxing)
 .debug_str     0x00003f9f       0xa0 common/libcommon.a(cmd_net.o)
                                0x2c3 (size before relaxing)
 .debug_str     0x0000403f       0xd3 common/libcommon.a(cmd_nvedit.o)
                                0x33c (size before relaxing)
 .debug_str     0x00004112      0x1a6 common/libcommon.a(cmd_recovery.o)
                                0x75d (size before relaxing)
 .debug_str     0x000042b8       0xfa common/libcommon.a(command.o)
                                0x259 (size before relaxing)
 .debug_str     0x000043b2      0x2fc common/libcommon.a(console.o)
                                0x50e (size before relaxing)
 .debug_str     0x000046ae      0x2df common/libcommon.a(dlmalloc.o)
                                0x50c (size before relaxing)
 .debug_str     0x0000498d       0x9b common/libcommon.a(env_common.o)
                                0x259 (size before relaxing)
 .debug_str     0x00004a28       0x83 common/libcommon.a(env_nand.o)
                                0x65b (size before relaxing)
 .debug_str     0x00004aab       0x1f common/libcommon.a(exports.o)
                                0x32d (size before relaxing)
 .debug_str     0x00004aca      0x2c2 common/libcommon.a(image.o)
                                0x786 (size before relaxing)
 .debug_str     0x00004d8c      0x11f common/libcommon.a(main.o)
                                0x28f (size before relaxing)
 .debug_str     0x00004eab       0x8c common/libcommon.a(stdio.o)
                                0x2a4 (size before relaxing)
 .debug_str     0x00004f37      0x1c0 common/libcommon.a(xyzModem.o)
                                0x307 (size before relaxing)
 .debug_str     0x000050f7      0x60a drivers/net/rtl83xx-1.3.0/librtl83xx.a(rtl83xx_main.o)
                                0x754 (size before relaxing)
 .debug_str     0x00005701      0xebe drivers/net/rtl83xx-1.3.0/librtl83xx.a(rtk_api.o)
                               0x1237 (size before relaxing)
 .debug_str     0x000065bf       0xbc drivers/net/rtl83xx-1.3.0/librtl83xx.a(rtl8370_asicdrv.o)
                                0xefc (size before relaxing)
 .debug_str     0x0000667b      0x637 drivers/net/rtl83xx-1.3.0/librtl83xx.a(rtl8370_asicdrv_port.o)
                               0x158b (size before relaxing)
 .debug_str     0x00006cb2       0x58 drivers/net/rtl83xx-1.3.0/librtl83xx.a(rtl8370_asicdrv_phy.o)
                                0xe84 (size before relaxing)
 .debug_str     0x00006d0a       0x35 drivers/net/rtl83xx-1.3.0/librtl83xx.a(rtl8370_asicdrv_lut.o)
                                0xe67 (size before relaxing)
 .debug_str     0x00006d3f       0x5b drivers/net/rtl83xx-1.3.0/librtl83xx.a(smi.o)
                                0xea1 (size before relaxing)
 .debug_str     0x00006d9a       0xe6 board/futuretek/ftm-100s/libftm-100s.a(ftm_100s.o)
                                0x2b4 (size before relaxing)
 .debug_str     0x00006e80       0x80 board/futuretek/ftm-100s/libftm-100s.a(watchdog.o)
                                0x19c (size before relaxing)
 .debug_str     0x00006f00      0x119 board/futuretek/ftm-100s/libftm-100s.a(cmd_ftm_100s.o)
                                0x6a3 (size before relaxing)
 .debug_str     0x00007019      0x277 board/futuretek/ftm-100s/libftm-100s.a(csmi_uboot_cmds.o)
                                0x41e (size before relaxing)
 .debug_str     0x00007290      0x65c board/futuretek/ftm-100s/libftm-100s.a(csmi_user.o)
                                0x86d (size before relaxing)
 .debug_str     0x000078ec       0x51 lib_generic/libgeneric.a(crc16.o)
                                0x11c (size before relaxing)
 .debug_str     0x0000793d       0x3d lib_generic/libgeneric.a(crc32.o)
                                0x142 (size before relaxing)
 .debug_str     0x0000797a       0x3f lib_generic/libgeneric.a(display_options.o)
                                0x1a8 (size before relaxing)
 .debug_str     0x000079b9       0xd6 lib_generic/libgeneric.a(gunzip.o)
                                0x208 (size before relaxing)
 .debug_str     0x00007a8f      0x161 lib_generic/libgeneric.a(lmb.o)
                                0x2de (size before relaxing)
 .debug_str     0x00007bf0       0x61 lib_generic/libgeneric.a(md5.o)
                                0x173 (size before relaxing)
 .debug_str     0x00007c51       0xbb lib_generic/libgeneric.a(string.o)
                                0x200 (size before relaxing)
 .debug_str     0x00007d0c      0x104 lib_generic/libgeneric.a(vsprintf.o)
                                0x2a0 (size before relaxing)
 .debug_str     0x00007e10      0x2a6 lib_generic/libgeneric.a(zlib.o)
                                0x56d (size before relaxing)
 .debug_str     0x000080b6        0x8 lib_generic/libgeneric.a(ctype.o)
                                 0x8c (size before relaxing)
 .debug_str     0x000080be       0x62 cpu/arm_cortexa9/libarm_cortexa9.a(cpu.o)
                                0x186 (size before relaxing)
 .debug_str     0x00008120       0xdb cpu/arm_cortexa9/goldengate/libgoldengate.a(timer.o)
                                0x1de (size before relaxing)
 .debug_str     0x000081fb      0x236 lib_arm/libarm.a(bootm.o)
                                0x61a (size before relaxing)
 .debug_str     0x00008431       0x22 lib_arm/libarm.a(cache.o)
                                0x109 (size before relaxing)
 .debug_str     0x00008453       0x76 lib_arm/libarm.a(cache-cp15.o)
                                0x195 (size before relaxing)
 .debug_str     0x000084c9      0x171 drivers/mtd/nand/libnand.a(nand_util.o)
                                0x9aa (size before relaxing)
 .debug_str     0x0000863a       0x19 lib_generic/libgeneric.a(div64.o)
                                0x134 (size before relaxing)
 .debug_str     0x00008653       0x1b /home/xtra/Work/ftm-100s/u-boot/lib_arm/eabi_compat.o
                                0x102 (size before relaxing)

.debug_frame    0x00000000     0x411c
 .debug_frame   0x00000000      0x124 lib_arm/libarm.a(board.o)
 .debug_frame   0x00000124      0x110 lib_arm/libarm.a(interrupts.o)
 .debug_frame   0x00000234      0x1cc net/libnet.a(eth.o)
 .debug_frame   0x00000400      0x2e8 net/libnet.a(net.o)
 .debug_frame   0x000006e8       0x60 net/libnet.a(rarp.o)
 .debug_frame   0x00000748       0x88 net/libnet.a(tftp.o)
 .debug_frame   0x000007d0       0xb8 net/libnet.a(bootp.o)
 .debug_frame   0x00000888      0x5f0 drivers/mtd/nand/libnand.a(cs75xx_nand.o)
 .debug_frame   0x00000e78      0x1b8 drivers/mtd/nand/libnand.a(nand_bbt.o)
 .debug_frame   0x00001030      0x17c drivers/net/libnet.a(g2_ni_mfe.o)
 .debug_frame   0x000011ac       0xb8 drivers/serial/libserial.a(serial_cs752x.o)
 .debug_frame   0x00001264       0x30 common/libcommon.a(cmd_bdinfo.o)
 .debug_frame   0x00001294       0x44 common/libcommon.a(cmd_boot.o)
 .debug_frame   0x000012d8      0x194 common/libcommon.a(cmd_bootm.o)
 .debug_frame   0x0000146c      0x194 common/libcommon.a(cmd_load.o)
 .debug_frame   0x00001600      0x17c common/libcommon.a(cmd_mem.o)
 .debug_frame   0x0000177c      0x14c common/libcommon.a(cmd_nand.o)
 .debug_frame   0x000018c8       0x84 common/libcommon.a(cmd_net.o)
 .debug_frame   0x0000194c      0x140 common/libcommon.a(cmd_nvedit.o)
 .debug_frame   0x00001a8c       0xd4 common/libcommon.a(cmd_recovery.o)
 .debug_frame   0x00001b60       0xd4 common/libcommon.a(command.o)
 .debug_frame   0x00001c34      0x24c common/libcommon.a(console.o)
 .debug_frame   0x00001e80      0x140 common/libcommon.a(dlmalloc.o)
 .debug_frame   0x00001fc0       0x88 common/libcommon.a(env_common.o)
 .debug_frame   0x00002048       0xcc common/libcommon.a(env_nand.o)
 .debug_frame   0x00002114       0x48 common/libcommon.a(exports.o)
 .debug_frame   0x0000215c      0x258 common/libcommon.a(image.o)
 .debug_frame   0x000023b4      0x104 common/libcommon.a(main.o)
 .debug_frame   0x000024b8       0x90 common/libcommon.a(stdio.o)
 .debug_frame   0x00002548      0x134 common/libcommon.a(xyzModem.o)
 .debug_frame   0x0000267c       0xc8 drivers/net/rtl83xx-1.3.0/librtl83xx.a(rtl83xx_main.o)
 .debug_frame   0x00002744      0x1ec drivers/net/rtl83xx-1.3.0/librtl83xx.a(rtk_api.o)
 .debug_frame   0x00002930       0xc4 drivers/net/rtl83xx-1.3.0/librtl83xx.a(rtl8370_asicdrv.o)
 .debug_frame   0x000029f4      0x260 drivers/net/rtl83xx-1.3.0/librtl83xx.a(rtl8370_asicdrv_port.o)
 .debug_frame   0x00002c54       0x30 drivers/net/rtl83xx-1.3.0/librtl83xx.a(rtl8370_asicdrv_phy.o)
 .debug_frame   0x00002c84       0x20 drivers/net/rtl83xx-1.3.0/librtl83xx.a(rtl8370_asicdrv_lut.o)
 .debug_frame   0x00002ca4       0x78 drivers/net/rtl83xx-1.3.0/librtl83xx.a(smi.o)
 .debug_frame   0x00002d1c       0xc4 board/futuretek/ftm-100s/libftm-100s.a(ftm_100s.o)
 .debug_frame   0x00002de0       0x70 board/futuretek/ftm-100s/libftm-100s.a(watchdog.o)
 .debug_frame   0x00002e50      0x144 board/futuretek/ftm-100s/libftm-100s.a(cmd_ftm_100s.o)
 .debug_frame   0x00002f94       0xd4 board/futuretek/ftm-100s/libftm-100s.a(csmi_uboot_cmds.o)
 .debug_frame   0x00003068      0x52c board/futuretek/ftm-100s/libftm-100s.a(csmi_user.o)
 .debug_frame   0x00003594       0x28 lib_generic/libgeneric.a(crc16.o)
 .debug_frame   0x000035bc       0x58 lib_generic/libgeneric.a(crc32.o)
 .debug_frame   0x00003614       0x74 lib_generic/libgeneric.a(display_options.o)
 .debug_frame   0x00003688       0x70 lib_generic/libgeneric.a(gunzip.o)
 .debug_frame   0x000036f8      0x12c lib_generic/libgeneric.a(lmb.o)
 .debug_frame   0x00003824       0xc0 lib_generic/libgeneric.a(md5.o)
 .debug_frame   0x000038e4      0x204 lib_generic/libgeneric.a(string.o)
 .debug_frame   0x00003ae8      0x164 lib_generic/libgeneric.a(vsprintf.o)
 .debug_frame   0x00003c4c      0x128 lib_generic/libgeneric.a(zlib.o)
 .debug_frame   0x00003d74       0x50 cpu/arm_cortexa9/libarm_cortexa9.a(cpu.o)
 .debug_frame   0x00003dc4       0xf4 cpu/arm_cortexa9/goldengate/libgoldengate.a(timer.o)
 .debug_frame   0x00003eb8       0x34 lib_arm/libarm.a(bootm.o)
 .debug_frame   0x00003eec       0x20 lib_arm/libarm.a(cache.o)
 .debug_frame   0x00003f0c       0xb0 lib_arm/libarm.a(cache-cp15.o)
 .debug_frame   0x00003fbc       0xc0 drivers/mtd/nand/libnand.a(nand_util.o)
 .debug_frame   0x0000407c       0x38 lib_generic/libgeneric.a(div64.o)
 .debug_frame   0x000040b4       0x28 /home/xtra/Work/ftm-100s/u-boot/lib_arm/eabi_compat.o
 .debug_frame   0x000040dc       0x20 /opt/Cortina/toolchain/toolchain-arm_gcc-4.5.1+l_uClibc-0.9.32_eabi/bin/../lib/gcc/arm-openwrt-linux-uclibcgnueabi/4.5.2/libgcc.a(_udivsi3.o)
 .debug_frame   0x000040fc       0x20 /opt/Cortina/toolchain/toolchain-arm_gcc-4.5.1+l_uClibc-0.9.32_eabi/bin/../lib/gcc/arm-openwrt-linux-uclibcgnueabi/4.5.2/libgcc.a(_divsi3.o)

.debug_ranges   0x00000000     0x1b70
 .debug_ranges  0x00000000       0x30 net/libnet.a(eth.o)
 .debug_ranges  0x00000030      0x138 net/libnet.a(net.o)
 .debug_ranges  0x00000168       0x30 net/libnet.a(tftp.o)
 .debug_ranges  0x00000198      0x130 net/libnet.a(bootp.o)
 .debug_ranges  0x000002c8      0x830 drivers/mtd/nand/libnand.a(cs75xx_nand.o)
 .debug_ranges  0x00000af8      0x160 drivers/mtd/nand/libnand.a(nand_bbt.o)
 .debug_ranges  0x00000c58       0xf0 drivers/net/libnet.a(g2_ni_mfe.o)
 .debug_ranges  0x00000d48       0x60 drivers/serial/libserial.a(serial_cs752x.o)
 .debug_ranges  0x00000da8       0x68 common/libcommon.a(cmd_bootm.o)
 .debug_ranges  0x00000e10       0xd8 common/libcommon.a(cmd_load.o)
 .debug_ranges  0x00000ee8       0x60 common/libcommon.a(cmd_nand.o)
 .debug_ranges  0x00000f48       0x60 common/libcommon.a(cmd_nvedit.o)
 .debug_ranges  0x00000fa8      0x1d8 common/libcommon.a(cmd_recovery.o)
 .debug_ranges  0x00001180       0x30 common/libcommon.a(command.o)
 .debug_ranges  0x000011b0       0x30 common/libcommon.a(env_common.o)
 .debug_ranges  0x000011e0       0x30 common/libcommon.a(env_nand.o)
 .debug_ranges  0x00001210       0x90 common/libcommon.a(image.o)
 .debug_ranges  0x000012a0       0xa8 common/libcommon.a(main.o)
 .debug_ranges  0x00001348       0x98 common/libcommon.a(stdio.o)
 .debug_ranges  0x000013e0       0x18 common/libcommon.a(xyzModem.o)
 .debug_ranges  0x000013f8       0x40 board/futuretek/ftm-100s/libftm-100s.a(ftm_100s.o)
 .debug_ranges  0x00001438       0x50 board/futuretek/ftm-100s/libftm-100s.a(cmd_ftm_100s.o)
 .debug_ranges  0x00001488       0x18 board/futuretek/ftm-100s/libftm-100s.a(csmi_uboot_cmds.o)
 .debug_ranges  0x000014a0      0x208 board/futuretek/ftm-100s/libftm-100s.a(csmi_user.o)
 .debug_ranges  0x000016a8       0xd8 lib_generic/libgeneric.a(lmb.o)
 .debug_ranges  0x00001780       0x30 lib_generic/libgeneric.a(md5.o)
 .debug_ranges  0x000017b0      0x1d0 lib_generic/libgeneric.a(vsprintf.o)
 .debug_ranges  0x00001980       0x18 lib_generic/libgeneric.a(zlib.o)
 .debug_ranges  0x00001998       0xc0 lib_arm/libarm.a(bootm.o)
 .debug_ranges  0x00001a58      0x118 drivers/mtd/nand/libnand.a(nand_util.o)
